
Allocating common symbols
Common symbol       size              file

HIDIO_ack_buf_data  0x4e              CMakeFiles/kiibohd.dir/Output/HID-IO/hidio_com.c.obj
LED_framerate       0x4               CMakeFiles/kiibohd.dir/Scan/Devices/ISSILed/led_scan.c.obj
uart_tx_buf         0x106             CMakeFiles/kiibohd.dir/Scan/Devices/UARTConnect/connect_scan.c.obj
Pixel_AnimationStack
                    0x54              CMakeFiles/kiibohd.dir/Macro/PixelMap/pixel.c.obj
Pixel_animationControl
                    0x1               CMakeFiles/kiibohd.dir/Macro/PixelMap/pixel.c.obj
Connect_receive_RemoteCapabilityBuffer
                    0x6               CMakeFiles/kiibohd.dir/Scan/Devices/UARTConnect/connect_scan.c.obj
gWDT_entropy_pool   0x20              CMakeFiles/kiibohd.dir/Lib/entropy.c.obj
macroPauseMode      0x1               CMakeFiles/kiibohd.dir/Macro/PartialMap/macro.c.obj
macroTriggerEventBufferSize
                    0x1               CMakeFiles/kiibohd.dir/Macro/PartialMap/macro.c.obj
macroResultDelayedCapabilities
                    0x7c              CMakeFiles/kiibohd.dir/Macro/PartialMap/result.c.obj
Pixel_FrameState    0x1               CMakeFiles/kiibohd.dir/Macro/PixelMap/pixel.c.obj
USBKeys_LEDs_Changed
                    0x1               CMakeFiles/kiibohd.dir/Output/USB/output_usb.c.obj
LED_chipSend        0x1               CMakeFiles/kiibohd.dir/Scan/Devices/ISSILed/led_scan.c.obj
gWDT_buffer_position
                    0x1               CMakeFiles/kiibohd.dir/Lib/entropy.c.obj
CLIHexDebugMode     0x1               CMakeFiles/kiibohd.dir/main.c.obj
Output_DebugMode    0x1               CMakeFiles/kiibohd.dir/Output/Interface/output_gen.c.obj
LED_pause           0x1               CMakeFiles/kiibohd.dir/Scan/Devices/ISSILed/led_scan.c.obj
CLIHistoryCurrent   0x1               CMakeFiles/kiibohd.dir/main.c.obj
usb_rx_byte_count_data
                    0x14              CMakeFiles/kiibohd.dir/Output/USB/arm/usb_dev.c.obj
USBInit_TimeEnd     0x4               CMakeFiles/kiibohd.dir/Output/USB/output_usb.c.obj
CLILEDState         0x1               CMakeFiles/kiibohd.dir/main.c.obj
CLIDictionariesUsed
                    0x1               CMakeFiles/kiibohd.dir/main.c.obj
Macro_rotationLayer
                    0x2               CMakeFiles/kiibohd.dir/Macro/PartialMap/macro.c.obj
Pixel_AnimationElement_Stor
                    0x140             CMakeFiles/kiibohd.dir/Macro/PixelMap/pixel.c.obj
LED_displayFPS      0x1               CMakeFiles/kiibohd.dir/Scan/Devices/ISSILed/led_scan.c.obj
CLIHistoryBuffer    0x3e8             CMakeFiles/kiibohd.dir/main.c.obj
uart_tx_status      0x4               CMakeFiles/kiibohd.dir/Scan/Devices/UARTConnect/connect_scan.c.obj
HIDIO_Id_List_Size  0x4               CMakeFiles/kiibohd.dir/Output/HID-IO/hidio_com.c.obj
voteDebugMode       0x1               CMakeFiles/kiibohd.dir/Macro/PartialMap/macro.c.obj
CLILineBuffer       0x65              CMakeFiles/kiibohd.dir/main.c.obj
macroResultMacroPendingList
                    0x31c             CMakeFiles/kiibohd.dir/Macro/PartialMap/result.c.obj
Pixel_testMode      0x1               CMakeFiles/kiibohd.dir/Macro/PixelMap/pixel.c.obj
HIDIO_Packet_Size   0x2               CMakeFiles/kiibohd.dir/Output/HID-IO/hidio_com.c.obj
ResultMacroRecordList
                    0x129             CMakeFiles/kiibohd.dir/Macro/PartialMap/macro.c.obj
HIDIO_assembly_buf_data
                    0xd0              CMakeFiles/kiibohd.dir/Output/HID-IO/hidio_com.c.obj
CLIHistoryHead      0x1               CMakeFiles/kiibohd.dir/main.c.obj
USBInit_Ticks       0x2               CMakeFiles/kiibohd.dir/Output/USB/output_usb.c.obj
LayerState          0x2               CMakeFiles/kiibohd.dir/Macro/PartialMap/macro.c.obj
Connect_receive_RemoteCapabilityArgs
                    0x19              CMakeFiles/kiibohd.dir/Scan/Devices/UARTConnect/connect_scan.c.obj
USBKeys_idle        0x22              CMakeFiles/kiibohd.dir/Output/USB/output_usb.c.obj
LED_pageBuffer_brightness
                    0x124             CMakeFiles/kiibohd.dir/Scan/Devices/ISSILed/led_scan.c.obj
HIDIO_ack_buf       0x4               CMakeFiles/kiibohd.dir/Output/HID-IO/hidio_com.c.obj
gWDT_buffer         0x20              CMakeFiles/kiibohd.dir/Lib/entropy.c.obj
macroTriggerEventBuffer
                    0x10e             CMakeFiles/kiibohd.dir/Macro/PartialMap/macro.c.obj
Connect_receive_ScanCodeDeviceId
                    0x1               CMakeFiles/kiibohd.dir/Scan/Devices/UARTConnect/connect_scan.c.obj
macroStepCounter    0x2               CMakeFiles/kiibohd.dir/Macro/PartialMap/macro.c.obj
LED_brightness      0x1               CMakeFiles/kiibohd.dir/Scan/Devices/ISSILed/led_scan.c.obj
LED_timePrev        0x8               CMakeFiles/kiibohd.dir/Scan/Devices/ISSILed/led_scan.c.obj
i2c_channels        0x18              CMakeFiles/kiibohd.dir/Scan/Devices/ISSILed/i2c.c.obj
HIDIO_ack_send_data
                    0xd0              CMakeFiles/kiibohd.dir/Output/HID-IO/hidio_com.c.obj
Output_ExtCurrent_Available
                    0x2               CMakeFiles/kiibohd.dir/Output/Interface/output_gen.c.obj
uart_rx_status      0x8               CMakeFiles/kiibohd.dir/Scan/Devices/UARTConnect/connect_scan.c.obj
USBKeys_Sent        0x1               CMakeFiles/kiibohd.dir/Output/USB/output_usb.c.obj
LED_pageBuffer      0x124             CMakeFiles/kiibohd.dir/generatedPixelmap.c.obj
layerDebugMode      0x1               CMakeFiles/kiibohd.dir/Macro/PartialMap/macro.c.obj
USBKeys_primary     0x22              CMakeFiles/kiibohd.dir/Output/USB/output_usb.c.obj
Output_Available    0x1               CMakeFiles/kiibohd.dir/Output/Interface/output_gen.c.obj
HIDIO_ack_send_buf  0x10              CMakeFiles/kiibohd.dir/Output/HID-IO/hidio_com.c.obj
uart_rx_buf         0x104             CMakeFiles/kiibohd.dir/Scan/Devices/UARTConnect/connect_scan.c.obj
macroTriggerEventLayerCache
                    0x5a              CMakeFiles/kiibohd.dir/Macro/PartialMap/macro.c.obj
gWDT_pool_count     0x1               CMakeFiles/kiibohd.dir/Lib/entropy.c.obj
HIDIO_Id_List       0xf0              CMakeFiles/kiibohd.dir/Output/HID-IO/hidio_com.c.obj
HIDIO_assembly_buf  0x10              CMakeFiles/kiibohd.dir/Output/HID-IO/hidio_com.c.obj
Connect_receive_ScanCodeBuffer
                    0x3               CMakeFiles/kiibohd.dir/Scan/Devices/UARTConnect/connect_scan.c.obj
Output_USBCurrent_Available
                    0x2               CMakeFiles/kiibohd.dir/Output/Interface/output_gen.c.obj
LED_enable          0x1               CMakeFiles/kiibohd.dir/Scan/Devices/ISSILed/led_scan.c.obj
CLIDict             0x28              CMakeFiles/kiibohd.dir/main.c.obj
HIDIO_tx_buf        0x10              CMakeFiles/kiibohd.dir/Output/HID-IO/hidio_com.c.obj
gWDT_pool_start     0x1               CMakeFiles/kiibohd.dir/Lib/entropy.c.obj
gWDT_pool_end       0x1               CMakeFiles/kiibohd.dir/Lib/entropy.c.obj
HIDIO_tx_buf_data   0xca              CMakeFiles/kiibohd.dir/Output/HID-IO/hidio_com.c.obj
LCD_layerStackExact
                    0x8               CMakeFiles/kiibohd.dir/Scan/Devices/STLcd/lcd_scan.c.obj
CLIHistoryTail      0x1               CMakeFiles/kiibohd.dir/main.c.obj
macroDebugMode      0x1               CMakeFiles/kiibohd.dir/Macro/PartialMap/macro.c.obj
USBKeys_Protocol_Change
                    0x1               CMakeFiles/kiibohd.dir/Output/USB/output_usb.c.obj
macroInterconnectCache
                    0x10e             CMakeFiles/kiibohd.dir/Macro/PartialMap/macro.c.obj
CLIDictNames        0x28              CMakeFiles/kiibohd.dir/main.c.obj
Connect_receive_ScanCodeBufferPos
                    0x1               CMakeFiles/kiibohd.dir/Scan/Devices/UARTConnect/connect_scan.c.obj
USBInit_TimeStart   0x4               CMakeFiles/kiibohd.dir/Output/USB/output_usb.c.obj
gWDT_loop_counter   0x1               CMakeFiles/kiibohd.dir/Lib/entropy.c.obj
CLILineBufferCurrent
                    0x1               CMakeFiles/kiibohd.dir/main.c.obj
TriggerMacroRecordList
                    0xce              CMakeFiles/kiibohd.dir/Macro/PartialMap/macro.c.obj

Discarded input sections

 .group         0x0000000000000000        0x8 CMakeFiles/kiibohd.dir/main.c.obj
 .group         0x0000000000000000        0x8 CMakeFiles/kiibohd.dir/main.c.obj
 .group         0x0000000000000000        0x8 CMakeFiles/kiibohd.dir/main.c.obj
 .group         0x0000000000000000        0x8 CMakeFiles/kiibohd.dir/main.c.obj
 .group         0x0000000000000000        0x8 CMakeFiles/kiibohd.dir/main.c.obj
 .group         0x0000000000000000        0x8 CMakeFiles/kiibohd.dir/main.c.obj
 .group         0x0000000000000000        0x8 CMakeFiles/kiibohd.dir/main.c.obj
 .group         0x0000000000000000        0x8 CMakeFiles/kiibohd.dir/main.c.obj
 .group         0x0000000000000000        0x8 CMakeFiles/kiibohd.dir/main.c.obj
 .group         0x0000000000000000        0x8 CMakeFiles/kiibohd.dir/main.c.obj
 .group         0x0000000000000000        0x8 CMakeFiles/kiibohd.dir/main.c.obj
 .group         0x0000000000000000        0x8 CMakeFiles/kiibohd.dir/main.c.obj
 .group         0x0000000000000000        0x8 CMakeFiles/kiibohd.dir/main.c.obj
 .group         0x0000000000000000        0x8 CMakeFiles/kiibohd.dir/main.c.obj
 .group         0x0000000000000000        0x8 CMakeFiles/kiibohd.dir/main.c.obj
 .group         0x0000000000000000        0x8 CMakeFiles/kiibohd.dir/main.c.obj
 .text          0x0000000000000000        0x0 CMakeFiles/kiibohd.dir/main.c.obj
 .data          0x0000000000000000        0x0 CMakeFiles/kiibohd.dir/main.c.obj
 .bss           0x0000000000000000        0x0 CMakeFiles/kiibohd.dir/main.c.obj
 .group         0x0000000000000000        0x8 CMakeFiles/kiibohd.dir/Lib/kinetis.c.obj
 .group         0x0000000000000000        0x8 CMakeFiles/kiibohd.dir/Lib/kinetis.c.obj
 .group         0x0000000000000000        0x8 CMakeFiles/kiibohd.dir/Lib/kinetis.c.obj
 .group         0x0000000000000000        0x8 CMakeFiles/kiibohd.dir/Lib/kinetis.c.obj
 .group         0x0000000000000000        0x8 CMakeFiles/kiibohd.dir/Lib/kinetis.c.obj
 .group         0x0000000000000000        0x8 CMakeFiles/kiibohd.dir/Lib/kinetis.c.obj
 .group         0x0000000000000000        0x8 CMakeFiles/kiibohd.dir/Lib/kinetis.c.obj
 .group         0x0000000000000000        0x8 CMakeFiles/kiibohd.dir/Lib/kinetis.c.obj
 .group         0x0000000000000000        0x8 CMakeFiles/kiibohd.dir/Lib/kinetis.c.obj
 .group         0x0000000000000000        0x8 CMakeFiles/kiibohd.dir/Lib/kinetis.c.obj
 .group         0x0000000000000000        0x8 CMakeFiles/kiibohd.dir/Lib/kinetis.c.obj
 .group         0x0000000000000000        0x8 CMakeFiles/kiibohd.dir/Lib/kinetis.c.obj
 .group         0x0000000000000000        0x8 CMakeFiles/kiibohd.dir/Lib/kinetis.c.obj
 .text          0x0000000000000000        0x0 CMakeFiles/kiibohd.dir/Lib/kinetis.c.obj
 .data          0x0000000000000000        0x0 CMakeFiles/kiibohd.dir/Lib/kinetis.c.obj
 .bss           0x0000000000000000        0x0 CMakeFiles/kiibohd.dir/Lib/kinetis.c.obj
 .text.memcmp   0x0000000000000000       0x1c CMakeFiles/kiibohd.dir/Lib/kinetis.c.obj
 .text._sbrk    0x0000000000000000       0x10 CMakeFiles/kiibohd.dir/Lib/kinetis.c.obj
 .text.nvic_execution_priority
                0x0000000000000000       0x3c CMakeFiles/kiibohd.dir/Lib/kinetis.c.obj
 .data.__brkval
                0x0000000000000000        0x4 CMakeFiles/kiibohd.dir/Lib/kinetis.c.obj
 .debug_macro   0x0000000000000000      0xa54 CMakeFiles/kiibohd.dir/Lib/kinetis.c.obj
 .debug_macro   0x0000000000000000       0x22 CMakeFiles/kiibohd.dir/Lib/kinetis.c.obj
 .debug_macro   0x0000000000000000       0x22 CMakeFiles/kiibohd.dir/Lib/kinetis.c.obj
 .debug_macro   0x0000000000000000       0x87 CMakeFiles/kiibohd.dir/Lib/kinetis.c.obj
 .debug_macro   0x0000000000000000       0x51 CMakeFiles/kiibohd.dir/Lib/kinetis.c.obj
 .debug_macro   0x0000000000000000       0xef CMakeFiles/kiibohd.dir/Lib/kinetis.c.obj
 .debug_macro   0x0000000000000000       0x6a CMakeFiles/kiibohd.dir/Lib/kinetis.c.obj
 .debug_macro   0x0000000000000000      0x1df CMakeFiles/kiibohd.dir/Lib/kinetis.c.obj
 .debug_macro   0x0000000000000000      0x288 CMakeFiles/kiibohd.dir/Lib/kinetis.c.obj
 .debug_macro   0x0000000000000000       0xbe CMakeFiles/kiibohd.dir/Lib/kinetis.c.obj
 .debug_macro   0x0000000000000000       0x10 CMakeFiles/kiibohd.dir/Lib/kinetis.c.obj
 .debug_macro   0x0000000000000000       0x9a CMakeFiles/kiibohd.dir/Lib/kinetis.c.obj
 .group         0x0000000000000000        0x8 CMakeFiles/kiibohd.dir/Lib/delay.c.obj
 .group         0x0000000000000000        0x8 CMakeFiles/kiibohd.dir/Lib/delay.c.obj
 .group         0x0000000000000000        0x8 CMakeFiles/kiibohd.dir/Lib/delay.c.obj
 .group         0x0000000000000000        0x8 CMakeFiles/kiibohd.dir/Lib/delay.c.obj
 .group         0x0000000000000000        0x8 CMakeFiles/kiibohd.dir/Lib/delay.c.obj
 .group         0x0000000000000000        0x8 CMakeFiles/kiibohd.dir/Lib/delay.c.obj
 .group         0x0000000000000000        0x8 CMakeFiles/kiibohd.dir/Lib/delay.c.obj
 .group         0x0000000000000000        0x8 CMakeFiles/kiibohd.dir/Lib/delay.c.obj
 .group         0x0000000000000000        0x8 CMakeFiles/kiibohd.dir/Lib/delay.c.obj
 .group         0x0000000000000000        0x8 CMakeFiles/kiibohd.dir/Lib/delay.c.obj
 .text          0x0000000000000000        0x0 CMakeFiles/kiibohd.dir/Lib/delay.c.obj
 .data          0x0000000000000000        0x0 CMakeFiles/kiibohd.dir/Lib/delay.c.obj
 .bss           0x0000000000000000        0x0 CMakeFiles/kiibohd.dir/Lib/delay.c.obj
 .text.cycle_now
                0x0000000000000000        0xc CMakeFiles/kiibohd.dir/Lib/delay.c.obj
 .text.ms_now   0x0000000000000000        0xc CMakeFiles/kiibohd.dir/Lib/delay.c.obj
 .text.delay_cycles
                0x0000000000000000       0x1c CMakeFiles/kiibohd.dir/Lib/delay.c.obj
 .debug_macro   0x0000000000000000      0xa54 CMakeFiles/kiibohd.dir/Lib/delay.c.obj
 .debug_macro   0x0000000000000000       0x22 CMakeFiles/kiibohd.dir/Lib/delay.c.obj
 .debug_macro   0x0000000000000000       0x87 CMakeFiles/kiibohd.dir/Lib/delay.c.obj
 .debug_macro   0x0000000000000000       0x51 CMakeFiles/kiibohd.dir/Lib/delay.c.obj
 .debug_macro   0x0000000000000000       0xef CMakeFiles/kiibohd.dir/Lib/delay.c.obj
 .debug_macro   0x0000000000000000       0x6a CMakeFiles/kiibohd.dir/Lib/delay.c.obj
 .debug_macro   0x0000000000000000      0x1df CMakeFiles/kiibohd.dir/Lib/delay.c.obj
 .debug_macro   0x0000000000000000       0x22 CMakeFiles/kiibohd.dir/Lib/delay.c.obj
 .debug_macro   0x0000000000000000     0x5af5 CMakeFiles/kiibohd.dir/Lib/delay.c.obj
 .group         0x0000000000000000        0x8 CMakeFiles/kiibohd.dir/Lib/entropy.c.obj
 .group         0x0000000000000000        0x8 CMakeFiles/kiibohd.dir/Lib/entropy.c.obj
 .group         0x0000000000000000        0x8 CMakeFiles/kiibohd.dir/Lib/entropy.c.obj
 .group         0x0000000000000000        0x8 CMakeFiles/kiibohd.dir/Lib/entropy.c.obj
 .group         0x0000000000000000        0x8 CMakeFiles/kiibohd.dir/Lib/entropy.c.obj
 .group         0x0000000000000000        0x8 CMakeFiles/kiibohd.dir/Lib/entropy.c.obj
 .group         0x0000000000000000        0x8 CMakeFiles/kiibohd.dir/Lib/entropy.c.obj
 .group         0x0000000000000000        0x8 CMakeFiles/kiibohd.dir/Lib/entropy.c.obj
 .group         0x0000000000000000        0x8 CMakeFiles/kiibohd.dir/Lib/entropy.c.obj
 .group         0x0000000000000000        0x8 CMakeFiles/kiibohd.dir/Lib/entropy.c.obj
 .text          0x0000000000000000        0x0 CMakeFiles/kiibohd.dir/Lib/entropy.c.obj
 .data          0x0000000000000000        0x0 CMakeFiles/kiibohd.dir/Lib/entropy.c.obj
 .bss           0x0000000000000000        0x0 CMakeFiles/kiibohd.dir/Lib/entropy.c.obj
 .text.rand_disable
                0x0000000000000000       0x10 CMakeFiles/kiibohd.dir/Lib/entropy.c.obj
 .debug_macro   0x0000000000000000      0xa54 CMakeFiles/kiibohd.dir/Lib/entropy.c.obj
 .debug_macro   0x0000000000000000       0x22 CMakeFiles/kiibohd.dir/Lib/entropy.c.obj
 .debug_macro   0x0000000000000000       0x22 CMakeFiles/kiibohd.dir/Lib/entropy.c.obj
 .debug_macro   0x0000000000000000       0x87 CMakeFiles/kiibohd.dir/Lib/entropy.c.obj
 .debug_macro   0x0000000000000000       0x51 CMakeFiles/kiibohd.dir/Lib/entropy.c.obj
 .debug_macro   0x0000000000000000       0xef CMakeFiles/kiibohd.dir/Lib/entropy.c.obj
 .debug_macro   0x0000000000000000       0x6a CMakeFiles/kiibohd.dir/Lib/entropy.c.obj
 .debug_macro   0x0000000000000000      0x1df CMakeFiles/kiibohd.dir/Lib/entropy.c.obj
 .debug_macro   0x0000000000000000     0x5af5 CMakeFiles/kiibohd.dir/Lib/entropy.c.obj
 .group         0x0000000000000000        0x8 CMakeFiles/kiibohd.dir/Lib/periodic.c.obj
 .group         0x0000000000000000        0x8 CMakeFiles/kiibohd.dir/Lib/periodic.c.obj
 .group         0x0000000000000000        0x8 CMakeFiles/kiibohd.dir/Lib/periodic.c.obj
 .group         0x0000000000000000        0x8 CMakeFiles/kiibohd.dir/Lib/periodic.c.obj
 .group         0x0000000000000000        0x8 CMakeFiles/kiibohd.dir/Lib/periodic.c.obj
 .group         0x0000000000000000        0x8 CMakeFiles/kiibohd.dir/Lib/periodic.c.obj
 .group         0x0000000000000000        0x8 CMakeFiles/kiibohd.dir/Lib/periodic.c.obj
 .group         0x0000000000000000        0x8 CMakeFiles/kiibohd.dir/Lib/periodic.c.obj
 .group         0x0000000000000000        0x8 CMakeFiles/kiibohd.dir/Lib/periodic.c.obj
 .group         0x0000000000000000        0x8 CMakeFiles/kiibohd.dir/Lib/periodic.c.obj
 .text          0x0000000000000000        0x0 CMakeFiles/kiibohd.dir/Lib/periodic.c.obj
 .data          0x0000000000000000        0x0 CMakeFiles/kiibohd.dir/Lib/periodic.c.obj
 .bss           0x0000000000000000        0x0 CMakeFiles/kiibohd.dir/Lib/periodic.c.obj
 .debug_macro   0x0000000000000000      0xa54 CMakeFiles/kiibohd.dir/Lib/periodic.c.obj
 .debug_macro   0x0000000000000000       0x1c CMakeFiles/kiibohd.dir/Lib/periodic.c.obj
 .debug_macro   0x0000000000000000       0x22 CMakeFiles/kiibohd.dir/Lib/periodic.c.obj
 .debug_macro   0x0000000000000000       0x87 CMakeFiles/kiibohd.dir/Lib/periodic.c.obj
 .debug_macro   0x0000000000000000       0x51 CMakeFiles/kiibohd.dir/Lib/periodic.c.obj
 .debug_macro   0x0000000000000000       0xef CMakeFiles/kiibohd.dir/Lib/periodic.c.obj
 .debug_macro   0x0000000000000000       0x6a CMakeFiles/kiibohd.dir/Lib/periodic.c.obj
 .debug_macro   0x0000000000000000      0x1df CMakeFiles/kiibohd.dir/Lib/periodic.c.obj
 .debug_macro   0x0000000000000000     0x5add CMakeFiles/kiibohd.dir/Lib/periodic.c.obj
 .debug_macro   0x0000000000000000       0x22 CMakeFiles/kiibohd.dir/Lib/periodic.c.obj
 .group         0x0000000000000000        0x8 CMakeFiles/kiibohd.dir/Lib/time.c.obj
 .group         0x0000000000000000        0x8 CMakeFiles/kiibohd.dir/Lib/time.c.obj
 .group         0x0000000000000000        0x8 CMakeFiles/kiibohd.dir/Lib/time.c.obj
 .group         0x0000000000000000        0x8 CMakeFiles/kiibohd.dir/Lib/time.c.obj
 .group         0x0000000000000000        0x8 CMakeFiles/kiibohd.dir/Lib/time.c.obj
 .group         0x0000000000000000        0x8 CMakeFiles/kiibohd.dir/Lib/time.c.obj
 .group         0x0000000000000000        0x8 CMakeFiles/kiibohd.dir/Lib/time.c.obj
 .group         0x0000000000000000        0x8 CMakeFiles/kiibohd.dir/Lib/time.c.obj
 .group         0x0000000000000000        0x8 CMakeFiles/kiibohd.dir/Lib/time.c.obj
 .group         0x0000000000000000        0x8 CMakeFiles/kiibohd.dir/Lib/time.c.obj
 .group         0x0000000000000000        0x8 CMakeFiles/kiibohd.dir/Lib/time.c.obj
 .group         0x0000000000000000        0x8 CMakeFiles/kiibohd.dir/Lib/time.c.obj
 .group         0x0000000000000000        0x8 CMakeFiles/kiibohd.dir/Lib/time.c.obj
 .group         0x0000000000000000        0x8 CMakeFiles/kiibohd.dir/Lib/time.c.obj
 .group         0x0000000000000000        0x8 CMakeFiles/kiibohd.dir/Lib/time.c.obj
 .group         0x0000000000000000        0x8 CMakeFiles/kiibohd.dir/Lib/time.c.obj
 .group         0x0000000000000000        0x8 CMakeFiles/kiibohd.dir/Lib/time.c.obj
 .text          0x0000000000000000        0x0 CMakeFiles/kiibohd.dir/Lib/time.c.obj
 .data          0x0000000000000000        0x0 CMakeFiles/kiibohd.dir/Lib/time.c.obj
 .bss           0x0000000000000000        0x0 CMakeFiles/kiibohd.dir/Lib/time.c.obj
 .text.Time_init
                0x0000000000000000        0x8 CMakeFiles/kiibohd.dir/Lib/time.c.obj
 .text.Time_days
                0x0000000000000000       0x18 CMakeFiles/kiibohd.dir/Lib/time.c.obj
 .text.Time_hours
                0x0000000000000000       0x18 CMakeFiles/kiibohd.dir/Lib/time.c.obj
 .text.Time_minutes
                0x0000000000000000       0x16 CMakeFiles/kiibohd.dir/Lib/time.c.obj
 .text.Time_seconds
                0x0000000000000000       0x16 CMakeFiles/kiibohd.dir/Lib/time.c.obj
 .text.Time_ticks
                0x0000000000000000       0x28 CMakeFiles/kiibohd.dir/Lib/time.c.obj
 .text.Time_from_days
                0x0000000000000000       0x10 CMakeFiles/kiibohd.dir/Lib/time.c.obj
 .text.Time_from_hours
                0x0000000000000000       0x10 CMakeFiles/kiibohd.dir/Lib/time.c.obj
 .text.Time_from_minutes
                0x0000000000000000        0xe CMakeFiles/kiibohd.dir/Lib/time.c.obj
 .text.Time_from_seconds
                0x0000000000000000        0xe CMakeFiles/kiibohd.dir/Lib/time.c.obj
 .text.Time_from_ms
                0x0000000000000000        0x8 CMakeFiles/kiibohd.dir/Lib/time.c.obj
 .text.Time_duration_days
                0x0000000000000000       0x24 CMakeFiles/kiibohd.dir/Lib/time.c.obj
 .text.Time_duration_hours
                0x0000000000000000       0x24 CMakeFiles/kiibohd.dir/Lib/time.c.obj
 .text.Time_duration_minutes
                0x0000000000000000       0x22 CMakeFiles/kiibohd.dir/Lib/time.c.obj
 .text.Time_duration_seconds
                0x0000000000000000       0x22 CMakeFiles/kiibohd.dir/Lib/time.c.obj
 .rodata.Time_maxTicks
                0x0000000000000000        0x4 CMakeFiles/kiibohd.dir/Lib/time.c.obj
 .rodata.Time_maxTicks_ms
                0x0000000000000000        0x4 CMakeFiles/kiibohd.dir/Lib/time.c.obj
 .debug_macro   0x0000000000000000      0xa54 CMakeFiles/kiibohd.dir/Lib/time.c.obj
 .debug_macro   0x0000000000000000       0x22 CMakeFiles/kiibohd.dir/Lib/time.c.obj
 .debug_macro   0x0000000000000000       0x22 CMakeFiles/kiibohd.dir/Lib/time.c.obj
 .debug_macro   0x0000000000000000       0x87 CMakeFiles/kiibohd.dir/Lib/time.c.obj
 .debug_macro   0x0000000000000000       0x51 CMakeFiles/kiibohd.dir/Lib/time.c.obj
 .debug_macro   0x0000000000000000       0xef CMakeFiles/kiibohd.dir/Lib/time.c.obj
 .debug_macro   0x0000000000000000       0x6a CMakeFiles/kiibohd.dir/Lib/time.c.obj
 .debug_macro   0x0000000000000000      0x1df CMakeFiles/kiibohd.dir/Lib/time.c.obj
 .debug_macro   0x0000000000000000     0x5add CMakeFiles/kiibohd.dir/Lib/time.c.obj
 .debug_macro   0x0000000000000000       0x10 CMakeFiles/kiibohd.dir/Lib/time.c.obj
 .debug_macro   0x0000000000000000      0x288 CMakeFiles/kiibohd.dir/Lib/time.c.obj
 .debug_macro   0x0000000000000000       0xbe CMakeFiles/kiibohd.dir/Lib/time.c.obj
 .debug_macro   0x0000000000000000       0x10 CMakeFiles/kiibohd.dir/Lib/time.c.obj
 .debug_macro   0x0000000000000000       0x9a CMakeFiles/kiibohd.dir/Lib/time.c.obj
 .debug_macro   0x0000000000000000       0x10 CMakeFiles/kiibohd.dir/Lib/time.c.obj
 .group         0x0000000000000000        0x8 CMakeFiles/kiibohd.dir/Scan/Devices/ISSILed/i2c.c.obj
 .group         0x0000000000000000        0x8 CMakeFiles/kiibohd.dir/Scan/Devices/ISSILed/i2c.c.obj
 .group         0x0000000000000000        0x8 CMakeFiles/kiibohd.dir/Scan/Devices/ISSILed/i2c.c.obj
 .group         0x0000000000000000        0x8 CMakeFiles/kiibohd.dir/Scan/Devices/ISSILed/i2c.c.obj
 .group         0x0000000000000000        0x8 CMakeFiles/kiibohd.dir/Scan/Devices/ISSILed/i2c.c.obj
 .group         0x0000000000000000        0x8 CMakeFiles/kiibohd.dir/Scan/Devices/ISSILed/i2c.c.obj
 .group         0x0000000000000000        0x8 CMakeFiles/kiibohd.dir/Scan/Devices/ISSILed/i2c.c.obj
 .group         0x0000000000000000        0x8 CMakeFiles/kiibohd.dir/Scan/Devices/ISSILed/i2c.c.obj
 .group         0x0000000000000000        0x8 CMakeFiles/kiibohd.dir/Scan/Devices/ISSILed/i2c.c.obj
 .group         0x0000000000000000        0x8 CMakeFiles/kiibohd.dir/Scan/Devices/ISSILed/i2c.c.obj
 .group         0x0000000000000000        0x8 CMakeFiles/kiibohd.dir/Scan/Devices/ISSILed/i2c.c.obj
 .group         0x0000000000000000        0x8 CMakeFiles/kiibohd.dir/Scan/Devices/ISSILed/i2c.c.obj
 .group         0x0000000000000000        0x8 CMakeFiles/kiibohd.dir/Scan/Devices/ISSILed/i2c.c.obj
 .group         0x0000000000000000        0x8 CMakeFiles/kiibohd.dir/Scan/Devices/ISSILed/i2c.c.obj
 .group         0x0000000000000000        0x8 CMakeFiles/kiibohd.dir/Scan/Devices/ISSILed/i2c.c.obj
 .group         0x0000000000000000        0x8 CMakeFiles/kiibohd.dir/Scan/Devices/ISSILed/i2c.c.obj
 .group         0x0000000000000000        0x8 CMakeFiles/kiibohd.dir/Scan/Devices/ISSILed/i2c.c.obj
 .text          0x0000000000000000        0x0 CMakeFiles/kiibohd.dir/Scan/Devices/ISSILed/i2c.c.obj
 .data          0x0000000000000000        0x0 CMakeFiles/kiibohd.dir/Scan/Devices/ISSILed/i2c.c.obj
 .bss           0x0000000000000000        0x0 CMakeFiles/kiibohd.dir/Scan/Devices/ISSILed/i2c.c.obj
 .text.i2c_any_busy
                0x0000000000000000       0x10 CMakeFiles/kiibohd.dir/Scan/Devices/ISSILed/i2c.c.obj
 .debug_macro   0x0000000000000000      0xa54 CMakeFiles/kiibohd.dir/Scan/Devices/ISSILed/i2c.c.obj
 .debug_macro   0x0000000000000000       0x22 CMakeFiles/kiibohd.dir/Scan/Devices/ISSILed/i2c.c.obj
 .debug_macro   0x0000000000000000       0x1c CMakeFiles/kiibohd.dir/Scan/Devices/ISSILed/i2c.c.obj
 .debug_macro   0x0000000000000000       0x22 CMakeFiles/kiibohd.dir/Scan/Devices/ISSILed/i2c.c.obj
 .debug_macro   0x0000000000000000       0x87 CMakeFiles/kiibohd.dir/Scan/Devices/ISSILed/i2c.c.obj
 .debug_macro   0x0000000000000000       0x51 CMakeFiles/kiibohd.dir/Scan/Devices/ISSILed/i2c.c.obj
 .debug_macro   0x0000000000000000       0xef CMakeFiles/kiibohd.dir/Scan/Devices/ISSILed/i2c.c.obj
 .debug_macro   0x0000000000000000       0x6a CMakeFiles/kiibohd.dir/Scan/Devices/ISSILed/i2c.c.obj
 .debug_macro   0x0000000000000000      0x1df CMakeFiles/kiibohd.dir/Scan/Devices/ISSILed/i2c.c.obj
 .debug_macro   0x0000000000000000     0x5add CMakeFiles/kiibohd.dir/Scan/Devices/ISSILed/i2c.c.obj
 .debug_macro   0x0000000000000000       0x10 CMakeFiles/kiibohd.dir/Scan/Devices/ISSILed/i2c.c.obj
 .debug_macro   0x0000000000000000       0x10 CMakeFiles/kiibohd.dir/Scan/Devices/ISSILed/i2c.c.obj
 .debug_macro   0x0000000000000000      0x288 CMakeFiles/kiibohd.dir/Scan/Devices/ISSILed/i2c.c.obj
 .debug_macro   0x0000000000000000       0xbe CMakeFiles/kiibohd.dir/Scan/Devices/ISSILed/i2c.c.obj
 .debug_macro   0x0000000000000000       0x10 CMakeFiles/kiibohd.dir/Scan/Devices/ISSILed/i2c.c.obj
 .debug_macro   0x0000000000000000       0x9a CMakeFiles/kiibohd.dir/Scan/Devices/ISSILed/i2c.c.obj
 .group         0x0000000000000000        0x8 CMakeFiles/kiibohd.dir/Scan/Devices/ISSILed/led_scan.c.obj
 .group         0x0000000000000000        0x8 CMakeFiles/kiibohd.dir/Scan/Devices/ISSILed/led_scan.c.obj
 .group         0x0000000000000000        0x8 CMakeFiles/kiibohd.dir/Scan/Devices/ISSILed/led_scan.c.obj
 .group         0x0000000000000000        0x8 CMakeFiles/kiibohd.dir/Scan/Devices/ISSILed/led_scan.c.obj
 .group         0x0000000000000000        0x8 CMakeFiles/kiibohd.dir/Scan/Devices/ISSILed/led_scan.c.obj
 .group         0x0000000000000000        0x8 CMakeFiles/kiibohd.dir/Scan/Devices/ISSILed/led_scan.c.obj
 .group         0x0000000000000000        0x8 CMakeFiles/kiibohd.dir/Scan/Devices/ISSILed/led_scan.c.obj
 .group         0x0000000000000000        0x8 CMakeFiles/kiibohd.dir/Scan/Devices/ISSILed/led_scan.c.obj
 .group         0x0000000000000000        0x8 CMakeFiles/kiibohd.dir/Scan/Devices/ISSILed/led_scan.c.obj
 .group         0x0000000000000000        0x8 CMakeFiles/kiibohd.dir/Scan/Devices/ISSILed/led_scan.c.obj
 .group         0x0000000000000000        0x8 CMakeFiles/kiibohd.dir/Scan/Devices/ISSILed/led_scan.c.obj
 .group         0x0000000000000000        0x8 CMakeFiles/kiibohd.dir/Scan/Devices/ISSILed/led_scan.c.obj
 .group         0x0000000000000000        0x8 CMakeFiles/kiibohd.dir/Scan/Devices/ISSILed/led_scan.c.obj
 .group         0x0000000000000000        0x8 CMakeFiles/kiibohd.dir/Scan/Devices/ISSILed/led_scan.c.obj
 .group         0x0000000000000000        0x8 CMakeFiles/kiibohd.dir/Scan/Devices/ISSILed/led_scan.c.obj
 .group         0x0000000000000000        0x8 CMakeFiles/kiibohd.dir/Scan/Devices/ISSILed/led_scan.c.obj
 .group         0x0000000000000000        0x8 CMakeFiles/kiibohd.dir/Scan/Devices/ISSILed/led_scan.c.obj
 .group         0x0000000000000000        0x8 CMakeFiles/kiibohd.dir/Scan/Devices/ISSILed/led_scan.c.obj
 .group         0x0000000000000000        0x8 CMakeFiles/kiibohd.dir/Scan/Devices/ISSILed/led_scan.c.obj
 .group         0x0000000000000000        0x8 CMakeFiles/kiibohd.dir/Scan/Devices/ISSILed/led_scan.c.obj
 .group         0x0000000000000000        0x8 CMakeFiles/kiibohd.dir/Scan/Devices/ISSILed/led_scan.c.obj
 .text          0x0000000000000000        0x0 CMakeFiles/kiibohd.dir/Scan/Devices/ISSILed/led_scan.c.obj
 .data          0x0000000000000000        0x0 CMakeFiles/kiibohd.dir/Scan/Devices/ISSILed/led_scan.c.obj
 .bss           0x0000000000000000        0x0 CMakeFiles/kiibohd.dir/Scan/Devices/ISSILed/led_scan.c.obj
 .text.LED_syncReg
                0x0000000000000000       0x50 CMakeFiles/kiibohd.dir/Scan/Devices/ISSILed/led_scan.c.obj
 .text.LED_readReg
                0x0000000000000000       0x7a CMakeFiles/kiibohd.dir/Scan/Devices/ISSILed/led_scan.c.obj
 .text.LED_shortOpenDetect
                0x0000000000000000        0x2 CMakeFiles/kiibohd.dir/Scan/Devices/ISSILed/led_scan.c.obj
 .rodata.LED_ChannelMapping
                0x0000000000000000        0x2 CMakeFiles/kiibohd.dir/Scan/Devices/ISSILed/led_scan.c.obj
 .debug_macro   0x0000000000000000      0xa54 CMakeFiles/kiibohd.dir/Scan/Devices/ISSILed/led_scan.c.obj
 .debug_macro   0x0000000000000000       0x22 CMakeFiles/kiibohd.dir/Scan/Devices/ISSILed/led_scan.c.obj
 .debug_macro   0x0000000000000000       0x1c CMakeFiles/kiibohd.dir/Scan/Devices/ISSILed/led_scan.c.obj
 .debug_macro   0x0000000000000000       0x22 CMakeFiles/kiibohd.dir/Scan/Devices/ISSILed/led_scan.c.obj
 .debug_macro   0x0000000000000000       0x87 CMakeFiles/kiibohd.dir/Scan/Devices/ISSILed/led_scan.c.obj
 .debug_macro   0x0000000000000000       0x51 CMakeFiles/kiibohd.dir/Scan/Devices/ISSILed/led_scan.c.obj
 .debug_macro   0x0000000000000000       0xef CMakeFiles/kiibohd.dir/Scan/Devices/ISSILed/led_scan.c.obj
 .debug_macro   0x0000000000000000       0x6a CMakeFiles/kiibohd.dir/Scan/Devices/ISSILed/led_scan.c.obj
 .debug_macro   0x0000000000000000      0x1df CMakeFiles/kiibohd.dir/Scan/Devices/ISSILed/led_scan.c.obj
 .debug_macro   0x0000000000000000     0x5add CMakeFiles/kiibohd.dir/Scan/Devices/ISSILed/led_scan.c.obj
 .debug_macro   0x0000000000000000       0x10 CMakeFiles/kiibohd.dir/Scan/Devices/ISSILed/led_scan.c.obj
 .debug_macro   0x0000000000000000       0x10 CMakeFiles/kiibohd.dir/Scan/Devices/ISSILed/led_scan.c.obj
 .debug_macro   0x0000000000000000      0x288 CMakeFiles/kiibohd.dir/Scan/Devices/ISSILed/led_scan.c.obj
 .debug_macro   0x0000000000000000       0xbe CMakeFiles/kiibohd.dir/Scan/Devices/ISSILed/led_scan.c.obj
 .debug_macro   0x0000000000000000       0x10 CMakeFiles/kiibohd.dir/Scan/Devices/ISSILed/led_scan.c.obj
 .debug_macro   0x0000000000000000       0x3a CMakeFiles/kiibohd.dir/Scan/Devices/ISSILed/led_scan.c.obj
 .debug_macro   0x0000000000000000       0x9a CMakeFiles/kiibohd.dir/Scan/Devices/ISSILed/led_scan.c.obj
 .debug_macro   0x0000000000000000       0x2e CMakeFiles/kiibohd.dir/Scan/Devices/ISSILed/led_scan.c.obj
 .group         0x0000000000000000        0x8 CMakeFiles/kiibohd.dir/Scan/Devices/MatrixARMPeriodic/matrix_scan.c.obj
 .group         0x0000000000000000        0x8 CMakeFiles/kiibohd.dir/Scan/Devices/MatrixARMPeriodic/matrix_scan.c.obj
 .group         0x0000000000000000        0x8 CMakeFiles/kiibohd.dir/Scan/Devices/MatrixARMPeriodic/matrix_scan.c.obj
 .group         0x0000000000000000        0x8 CMakeFiles/kiibohd.dir/Scan/Devices/MatrixARMPeriodic/matrix_scan.c.obj
 .group         0x0000000000000000        0x8 CMakeFiles/kiibohd.dir/Scan/Devices/MatrixARMPeriodic/matrix_scan.c.obj
 .group         0x0000000000000000        0x8 CMakeFiles/kiibohd.dir/Scan/Devices/MatrixARMPeriodic/matrix_scan.c.obj
 .group         0x0000000000000000        0x8 CMakeFiles/kiibohd.dir/Scan/Devices/MatrixARMPeriodic/matrix_scan.c.obj
 .group         0x0000000000000000        0x8 CMakeFiles/kiibohd.dir/Scan/Devices/MatrixARMPeriodic/matrix_scan.c.obj
 .group         0x0000000000000000        0x8 CMakeFiles/kiibohd.dir/Scan/Devices/MatrixARMPeriodic/matrix_scan.c.obj
 .group         0x0000000000000000        0x8 CMakeFiles/kiibohd.dir/Scan/Devices/MatrixARMPeriodic/matrix_scan.c.obj
 .group         0x0000000000000000        0x8 CMakeFiles/kiibohd.dir/Scan/Devices/MatrixARMPeriodic/matrix_scan.c.obj
 .group         0x0000000000000000        0x8 CMakeFiles/kiibohd.dir/Scan/Devices/MatrixARMPeriodic/matrix_scan.c.obj
 .group         0x0000000000000000        0x8 CMakeFiles/kiibohd.dir/Scan/Devices/MatrixARMPeriodic/matrix_scan.c.obj
 .group         0x0000000000000000        0x8 CMakeFiles/kiibohd.dir/Scan/Devices/MatrixARMPeriodic/matrix_scan.c.obj
 .group         0x0000000000000000        0x8 CMakeFiles/kiibohd.dir/Scan/Devices/MatrixARMPeriodic/matrix_scan.c.obj
 .group         0x0000000000000000        0x8 CMakeFiles/kiibohd.dir/Scan/Devices/MatrixARMPeriodic/matrix_scan.c.obj
 .group         0x0000000000000000        0x8 CMakeFiles/kiibohd.dir/Scan/Devices/MatrixARMPeriodic/matrix_scan.c.obj
 .group         0x0000000000000000        0x8 CMakeFiles/kiibohd.dir/Scan/Devices/MatrixARMPeriodic/matrix_scan.c.obj
 .group         0x0000000000000000        0x8 CMakeFiles/kiibohd.dir/Scan/Devices/MatrixARMPeriodic/matrix_scan.c.obj
 .text          0x0000000000000000        0x0 CMakeFiles/kiibohd.dir/Scan/Devices/MatrixARMPeriodic/matrix_scan.c.obj
 .data          0x0000000000000000        0x0 CMakeFiles/kiibohd.dir/Scan/Devices/MatrixARMPeriodic/matrix_scan.c.obj
 .bss           0x0000000000000000        0x0 CMakeFiles/kiibohd.dir/Scan/Devices/MatrixARMPeriodic/matrix_scan.c.obj
 .text.Matrix_totalColumns
                0x0000000000000000        0x4 CMakeFiles/kiibohd.dir/Scan/Devices/MatrixARMPeriodic/matrix_scan.c.obj
 .debug_macro   0x0000000000000000      0xa54 CMakeFiles/kiibohd.dir/Scan/Devices/MatrixARMPeriodic/matrix_scan.c.obj
 .debug_macro   0x0000000000000000       0x22 CMakeFiles/kiibohd.dir/Scan/Devices/MatrixARMPeriodic/matrix_scan.c.obj
 .debug_macro   0x0000000000000000       0x1c CMakeFiles/kiibohd.dir/Scan/Devices/MatrixARMPeriodic/matrix_scan.c.obj
 .debug_macro   0x0000000000000000       0x22 CMakeFiles/kiibohd.dir/Scan/Devices/MatrixARMPeriodic/matrix_scan.c.obj
 .debug_macro   0x0000000000000000       0x87 CMakeFiles/kiibohd.dir/Scan/Devices/MatrixARMPeriodic/matrix_scan.c.obj
 .debug_macro   0x0000000000000000       0x51 CMakeFiles/kiibohd.dir/Scan/Devices/MatrixARMPeriodic/matrix_scan.c.obj
 .debug_macro   0x0000000000000000       0xef CMakeFiles/kiibohd.dir/Scan/Devices/MatrixARMPeriodic/matrix_scan.c.obj
 .debug_macro   0x0000000000000000       0x6a CMakeFiles/kiibohd.dir/Scan/Devices/MatrixARMPeriodic/matrix_scan.c.obj
 .debug_macro   0x0000000000000000      0x1df CMakeFiles/kiibohd.dir/Scan/Devices/MatrixARMPeriodic/matrix_scan.c.obj
 .debug_macro   0x0000000000000000     0x5add CMakeFiles/kiibohd.dir/Scan/Devices/MatrixARMPeriodic/matrix_scan.c.obj
 .debug_macro   0x0000000000000000       0x10 CMakeFiles/kiibohd.dir/Scan/Devices/MatrixARMPeriodic/matrix_scan.c.obj
 .debug_macro   0x0000000000000000       0x10 CMakeFiles/kiibohd.dir/Scan/Devices/MatrixARMPeriodic/matrix_scan.c.obj
 .debug_macro   0x0000000000000000      0x288 CMakeFiles/kiibohd.dir/Scan/Devices/MatrixARMPeriodic/matrix_scan.c.obj
 .debug_macro   0x0000000000000000       0xbe CMakeFiles/kiibohd.dir/Scan/Devices/MatrixARMPeriodic/matrix_scan.c.obj
 .debug_macro   0x0000000000000000       0x10 CMakeFiles/kiibohd.dir/Scan/Devices/MatrixARMPeriodic/matrix_scan.c.obj
 .debug_macro   0x0000000000000000       0x3a CMakeFiles/kiibohd.dir/Scan/Devices/MatrixARMPeriodic/matrix_scan.c.obj
 .debug_macro   0x0000000000000000       0x9a CMakeFiles/kiibohd.dir/Scan/Devices/MatrixARMPeriodic/matrix_scan.c.obj
 .group         0x0000000000000000        0x8 CMakeFiles/kiibohd.dir/Scan/Devices/STLcd/lcd_scan.c.obj
 .group         0x0000000000000000        0x8 CMakeFiles/kiibohd.dir/Scan/Devices/STLcd/lcd_scan.c.obj
 .group         0x0000000000000000        0x8 CMakeFiles/kiibohd.dir/Scan/Devices/STLcd/lcd_scan.c.obj
 .group         0x0000000000000000        0x8 CMakeFiles/kiibohd.dir/Scan/Devices/STLcd/lcd_scan.c.obj
 .group         0x0000000000000000        0x8 CMakeFiles/kiibohd.dir/Scan/Devices/STLcd/lcd_scan.c.obj
 .group         0x0000000000000000        0x8 CMakeFiles/kiibohd.dir/Scan/Devices/STLcd/lcd_scan.c.obj
 .group         0x0000000000000000        0x8 CMakeFiles/kiibohd.dir/Scan/Devices/STLcd/lcd_scan.c.obj
 .group         0x0000000000000000        0x8 CMakeFiles/kiibohd.dir/Scan/Devices/STLcd/lcd_scan.c.obj
 .group         0x0000000000000000        0x8 CMakeFiles/kiibohd.dir/Scan/Devices/STLcd/lcd_scan.c.obj
 .group         0x0000000000000000        0x8 CMakeFiles/kiibohd.dir/Scan/Devices/STLcd/lcd_scan.c.obj
 .group         0x0000000000000000        0x8 CMakeFiles/kiibohd.dir/Scan/Devices/STLcd/lcd_scan.c.obj
 .group         0x0000000000000000        0x8 CMakeFiles/kiibohd.dir/Scan/Devices/STLcd/lcd_scan.c.obj
 .group         0x0000000000000000        0x8 CMakeFiles/kiibohd.dir/Scan/Devices/STLcd/lcd_scan.c.obj
 .group         0x0000000000000000        0x8 CMakeFiles/kiibohd.dir/Scan/Devices/STLcd/lcd_scan.c.obj
 .group         0x0000000000000000        0x8 CMakeFiles/kiibohd.dir/Scan/Devices/STLcd/lcd_scan.c.obj
 .group         0x0000000000000000        0x8 CMakeFiles/kiibohd.dir/Scan/Devices/STLcd/lcd_scan.c.obj
 .group         0x0000000000000000        0x8 CMakeFiles/kiibohd.dir/Scan/Devices/STLcd/lcd_scan.c.obj
 .group         0x0000000000000000        0x8 CMakeFiles/kiibohd.dir/Scan/Devices/STLcd/lcd_scan.c.obj
 .group         0x0000000000000000        0x8 CMakeFiles/kiibohd.dir/Scan/Devices/STLcd/lcd_scan.c.obj
 .text          0x0000000000000000        0x0 CMakeFiles/kiibohd.dir/Scan/Devices/STLcd/lcd_scan.c.obj
 .data          0x0000000000000000        0x0 CMakeFiles/kiibohd.dir/Scan/Devices/STLcd/lcd_scan.c.obj
 .bss           0x0000000000000000        0x0 CMakeFiles/kiibohd.dir/Scan/Devices/STLcd/lcd_scan.c.obj
 .bss.LCD_layerStackExact_size
                0x0000000000000000        0x1 CMakeFiles/kiibohd.dir/Scan/Devices/STLcd/lcd_scan.c.obj
 .bss.cliFullToggleState
                0x0000000000000000        0x1 CMakeFiles/kiibohd.dir/Scan/Devices/STLcd/lcd_scan.c.obj
 .bss.cliNormalReverseToggleState
                0x0000000000000000        0x1 CMakeFiles/kiibohd.dir/Scan/Devices/STLcd/lcd_scan.c.obj
 .debug_macro   0x0000000000000000      0xa54 CMakeFiles/kiibohd.dir/Scan/Devices/STLcd/lcd_scan.c.obj
 .debug_macro   0x0000000000000000       0x22 CMakeFiles/kiibohd.dir/Scan/Devices/STLcd/lcd_scan.c.obj
 .debug_macro   0x0000000000000000       0x1c CMakeFiles/kiibohd.dir/Scan/Devices/STLcd/lcd_scan.c.obj
 .debug_macro   0x0000000000000000       0x22 CMakeFiles/kiibohd.dir/Scan/Devices/STLcd/lcd_scan.c.obj
 .debug_macro   0x0000000000000000       0x87 CMakeFiles/kiibohd.dir/Scan/Devices/STLcd/lcd_scan.c.obj
 .debug_macro   0x0000000000000000       0x51 CMakeFiles/kiibohd.dir/Scan/Devices/STLcd/lcd_scan.c.obj
 .debug_macro   0x0000000000000000       0xef CMakeFiles/kiibohd.dir/Scan/Devices/STLcd/lcd_scan.c.obj
 .debug_macro   0x0000000000000000       0x6a CMakeFiles/kiibohd.dir/Scan/Devices/STLcd/lcd_scan.c.obj
 .debug_macro   0x0000000000000000      0x1df CMakeFiles/kiibohd.dir/Scan/Devices/STLcd/lcd_scan.c.obj
 .debug_macro   0x0000000000000000     0x5add CMakeFiles/kiibohd.dir/Scan/Devices/STLcd/lcd_scan.c.obj
 .debug_macro   0x0000000000000000       0x10 CMakeFiles/kiibohd.dir/Scan/Devices/STLcd/lcd_scan.c.obj
 .debug_macro   0x0000000000000000       0x10 CMakeFiles/kiibohd.dir/Scan/Devices/STLcd/lcd_scan.c.obj
 .debug_macro   0x0000000000000000      0x288 CMakeFiles/kiibohd.dir/Scan/Devices/STLcd/lcd_scan.c.obj
 .debug_macro   0x0000000000000000       0xbe CMakeFiles/kiibohd.dir/Scan/Devices/STLcd/lcd_scan.c.obj
 .debug_macro   0x0000000000000000       0x10 CMakeFiles/kiibohd.dir/Scan/Devices/STLcd/lcd_scan.c.obj
 .debug_macro   0x0000000000000000       0x3a CMakeFiles/kiibohd.dir/Scan/Devices/STLcd/lcd_scan.c.obj
 .debug_macro   0x0000000000000000       0x9a CMakeFiles/kiibohd.dir/Scan/Devices/STLcd/lcd_scan.c.obj
 .debug_macro   0x0000000000000000     0x1217 CMakeFiles/kiibohd.dir/Scan/Devices/STLcd/lcd_scan.c.obj
 .debug_macro   0x0000000000000000       0x6c CMakeFiles/kiibohd.dir/Scan/Devices/STLcd/lcd_scan.c.obj
 COMMON         0x0000000000000000        0x8 CMakeFiles/kiibohd.dir/Scan/Devices/STLcd/lcd_scan.c.obj
 .group         0x0000000000000000        0x8 CMakeFiles/kiibohd.dir/Scan/Devices/UARTConnect/connect_scan.c.obj
 .group         0x0000000000000000        0x8 CMakeFiles/kiibohd.dir/Scan/Devices/UARTConnect/connect_scan.c.obj
 .group         0x0000000000000000        0x8 CMakeFiles/kiibohd.dir/Scan/Devices/UARTConnect/connect_scan.c.obj
 .group         0x0000000000000000        0x8 CMakeFiles/kiibohd.dir/Scan/Devices/UARTConnect/connect_scan.c.obj
 .group         0x0000000000000000        0x8 CMakeFiles/kiibohd.dir/Scan/Devices/UARTConnect/connect_scan.c.obj
 .group         0x0000000000000000        0x8 CMakeFiles/kiibohd.dir/Scan/Devices/UARTConnect/connect_scan.c.obj
 .group         0x0000000000000000        0x8 CMakeFiles/kiibohd.dir/Scan/Devices/UARTConnect/connect_scan.c.obj
 .group         0x0000000000000000        0x8 CMakeFiles/kiibohd.dir/Scan/Devices/UARTConnect/connect_scan.c.obj
 .group         0x0000000000000000        0x8 CMakeFiles/kiibohd.dir/Scan/Devices/UARTConnect/connect_scan.c.obj
 .group         0x0000000000000000        0x8 CMakeFiles/kiibohd.dir/Scan/Devices/UARTConnect/connect_scan.c.obj
 .group         0x0000000000000000        0x8 CMakeFiles/kiibohd.dir/Scan/Devices/UARTConnect/connect_scan.c.obj
 .group         0x0000000000000000        0x8 CMakeFiles/kiibohd.dir/Scan/Devices/UARTConnect/connect_scan.c.obj
 .group         0x0000000000000000        0x8 CMakeFiles/kiibohd.dir/Scan/Devices/UARTConnect/connect_scan.c.obj
 .group         0x0000000000000000        0x8 CMakeFiles/kiibohd.dir/Scan/Devices/UARTConnect/connect_scan.c.obj
 .group         0x0000000000000000        0x8 CMakeFiles/kiibohd.dir/Scan/Devices/UARTConnect/connect_scan.c.obj
 .group         0x0000000000000000        0x8 CMakeFiles/kiibohd.dir/Scan/Devices/UARTConnect/connect_scan.c.obj
 .group         0x0000000000000000        0x8 CMakeFiles/kiibohd.dir/Scan/Devices/UARTConnect/connect_scan.c.obj
 .group         0x0000000000000000        0x8 CMakeFiles/kiibohd.dir/Scan/Devices/UARTConnect/connect_scan.c.obj
 .group         0x0000000000000000        0x8 CMakeFiles/kiibohd.dir/Scan/Devices/UARTConnect/connect_scan.c.obj
 .text          0x0000000000000000        0x0 CMakeFiles/kiibohd.dir/Scan/Devices/UARTConnect/connect_scan.c.obj
 .data          0x0000000000000000        0x0 CMakeFiles/kiibohd.dir/Scan/Devices/UARTConnect/connect_scan.c.obj
 .bss           0x0000000000000000        0x0 CMakeFiles/kiibohd.dir/Scan/Devices/UARTConnect/connect_scan.c.obj
 .text.Connect_send_Animation
                0x0000000000000000       0x54 CMakeFiles/kiibohd.dir/Scan/Devices/UARTConnect/connect_scan.c.obj
 .debug_macro   0x0000000000000000      0xa54 CMakeFiles/kiibohd.dir/Scan/Devices/UARTConnect/connect_scan.c.obj
 .debug_macro   0x0000000000000000       0x22 CMakeFiles/kiibohd.dir/Scan/Devices/UARTConnect/connect_scan.c.obj
 .debug_macro   0x0000000000000000       0x1c CMakeFiles/kiibohd.dir/Scan/Devices/UARTConnect/connect_scan.c.obj
 .debug_macro   0x0000000000000000       0x22 CMakeFiles/kiibohd.dir/Scan/Devices/UARTConnect/connect_scan.c.obj
 .debug_macro   0x0000000000000000       0x87 CMakeFiles/kiibohd.dir/Scan/Devices/UARTConnect/connect_scan.c.obj
 .debug_macro   0x0000000000000000       0x51 CMakeFiles/kiibohd.dir/Scan/Devices/UARTConnect/connect_scan.c.obj
 .debug_macro   0x0000000000000000       0xef CMakeFiles/kiibohd.dir/Scan/Devices/UARTConnect/connect_scan.c.obj
 .debug_macro   0x0000000000000000       0x6a CMakeFiles/kiibohd.dir/Scan/Devices/UARTConnect/connect_scan.c.obj
 .debug_macro   0x0000000000000000      0x1df CMakeFiles/kiibohd.dir/Scan/Devices/UARTConnect/connect_scan.c.obj
 .debug_macro   0x0000000000000000     0x5add CMakeFiles/kiibohd.dir/Scan/Devices/UARTConnect/connect_scan.c.obj
 .debug_macro   0x0000000000000000       0x10 CMakeFiles/kiibohd.dir/Scan/Devices/UARTConnect/connect_scan.c.obj
 .debug_macro   0x0000000000000000       0x10 CMakeFiles/kiibohd.dir/Scan/Devices/UARTConnect/connect_scan.c.obj
 .debug_macro   0x0000000000000000      0x288 CMakeFiles/kiibohd.dir/Scan/Devices/UARTConnect/connect_scan.c.obj
 .debug_macro   0x0000000000000000       0xbe CMakeFiles/kiibohd.dir/Scan/Devices/UARTConnect/connect_scan.c.obj
 .debug_macro   0x0000000000000000       0x10 CMakeFiles/kiibohd.dir/Scan/Devices/UARTConnect/connect_scan.c.obj
 .debug_macro   0x0000000000000000       0x3a CMakeFiles/kiibohd.dir/Scan/Devices/UARTConnect/connect_scan.c.obj
 .debug_macro   0x0000000000000000       0x9a CMakeFiles/kiibohd.dir/Scan/Devices/UARTConnect/connect_scan.c.obj
 .debug_macro   0x0000000000000000     0x1217 CMakeFiles/kiibohd.dir/Scan/Devices/UARTConnect/connect_scan.c.obj
 .debug_macro   0x0000000000000000       0x6c CMakeFiles/kiibohd.dir/Scan/Devices/UARTConnect/connect_scan.c.obj
 .group         0x0000000000000000        0x8 CMakeFiles/kiibohd.dir/Scan/Infinity_Ergodox/scan_loop.c.obj
 .group         0x0000000000000000        0x8 CMakeFiles/kiibohd.dir/Scan/Infinity_Ergodox/scan_loop.c.obj
 .group         0x0000000000000000        0x8 CMakeFiles/kiibohd.dir/Scan/Infinity_Ergodox/scan_loop.c.obj
 .group         0x0000000000000000        0x8 CMakeFiles/kiibohd.dir/Scan/Infinity_Ergodox/scan_loop.c.obj
 .group         0x0000000000000000        0x8 CMakeFiles/kiibohd.dir/Scan/Infinity_Ergodox/scan_loop.c.obj
 .group         0x0000000000000000        0x8 CMakeFiles/kiibohd.dir/Scan/Infinity_Ergodox/scan_loop.c.obj
 .group         0x0000000000000000        0x8 CMakeFiles/kiibohd.dir/Scan/Infinity_Ergodox/scan_loop.c.obj
 .group         0x0000000000000000        0x8 CMakeFiles/kiibohd.dir/Scan/Infinity_Ergodox/scan_loop.c.obj
 .group         0x0000000000000000        0x8 CMakeFiles/kiibohd.dir/Scan/Infinity_Ergodox/scan_loop.c.obj
 .group         0x0000000000000000        0x8 CMakeFiles/kiibohd.dir/Scan/Infinity_Ergodox/scan_loop.c.obj
 .group         0x0000000000000000        0x8 CMakeFiles/kiibohd.dir/Scan/Infinity_Ergodox/scan_loop.c.obj
 .group         0x0000000000000000        0x8 CMakeFiles/kiibohd.dir/Scan/Infinity_Ergodox/scan_loop.c.obj
 .group         0x0000000000000000        0x8 CMakeFiles/kiibohd.dir/Scan/Infinity_Ergodox/scan_loop.c.obj
 .group         0x0000000000000000        0x8 CMakeFiles/kiibohd.dir/Scan/Infinity_Ergodox/scan_loop.c.obj
 .group         0x0000000000000000        0x8 CMakeFiles/kiibohd.dir/Scan/Infinity_Ergodox/scan_loop.c.obj
 .group         0x0000000000000000        0x8 CMakeFiles/kiibohd.dir/Scan/Infinity_Ergodox/scan_loop.c.obj
 .group         0x0000000000000000        0x8 CMakeFiles/kiibohd.dir/Scan/Infinity_Ergodox/scan_loop.c.obj
 .group         0x0000000000000000        0x8 CMakeFiles/kiibohd.dir/Scan/Infinity_Ergodox/scan_loop.c.obj
 .group         0x0000000000000000        0x8 CMakeFiles/kiibohd.dir/Scan/Infinity_Ergodox/scan_loop.c.obj
 .group         0x0000000000000000        0x8 CMakeFiles/kiibohd.dir/Scan/Infinity_Ergodox/scan_loop.c.obj
 .group         0x0000000000000000        0x8 CMakeFiles/kiibohd.dir/Scan/Infinity_Ergodox/scan_loop.c.obj
 .text          0x0000000000000000        0x0 CMakeFiles/kiibohd.dir/Scan/Infinity_Ergodox/scan_loop.c.obj
 .data          0x0000000000000000        0x0 CMakeFiles/kiibohd.dir/Scan/Infinity_Ergodox/scan_loop.c.obj
 .bss           0x0000000000000000        0x0 CMakeFiles/kiibohd.dir/Scan/Infinity_Ergodox/scan_loop.c.obj
 .debug_macro   0x0000000000000000      0xa54 CMakeFiles/kiibohd.dir/Scan/Infinity_Ergodox/scan_loop.c.obj
 .debug_macro   0x0000000000000000       0x22 CMakeFiles/kiibohd.dir/Scan/Infinity_Ergodox/scan_loop.c.obj
 .debug_macro   0x0000000000000000       0x1c CMakeFiles/kiibohd.dir/Scan/Infinity_Ergodox/scan_loop.c.obj
 .debug_macro   0x0000000000000000       0x22 CMakeFiles/kiibohd.dir/Scan/Infinity_Ergodox/scan_loop.c.obj
 .debug_macro   0x0000000000000000       0x87 CMakeFiles/kiibohd.dir/Scan/Infinity_Ergodox/scan_loop.c.obj
 .debug_macro   0x0000000000000000       0x51 CMakeFiles/kiibohd.dir/Scan/Infinity_Ergodox/scan_loop.c.obj
 .debug_macro   0x0000000000000000       0xef CMakeFiles/kiibohd.dir/Scan/Infinity_Ergodox/scan_loop.c.obj
 .debug_macro   0x0000000000000000       0x6a CMakeFiles/kiibohd.dir/Scan/Infinity_Ergodox/scan_loop.c.obj
 .debug_macro   0x0000000000000000      0x1df CMakeFiles/kiibohd.dir/Scan/Infinity_Ergodox/scan_loop.c.obj
 .debug_macro   0x0000000000000000     0x5add CMakeFiles/kiibohd.dir/Scan/Infinity_Ergodox/scan_loop.c.obj
 .debug_macro   0x0000000000000000       0x10 CMakeFiles/kiibohd.dir/Scan/Infinity_Ergodox/scan_loop.c.obj
 .debug_macro   0x0000000000000000       0x10 CMakeFiles/kiibohd.dir/Scan/Infinity_Ergodox/scan_loop.c.obj
 .debug_macro   0x0000000000000000      0x288 CMakeFiles/kiibohd.dir/Scan/Infinity_Ergodox/scan_loop.c.obj
 .debug_macro   0x0000000000000000       0xbe CMakeFiles/kiibohd.dir/Scan/Infinity_Ergodox/scan_loop.c.obj
 .debug_macro   0x0000000000000000       0x10 CMakeFiles/kiibohd.dir/Scan/Infinity_Ergodox/scan_loop.c.obj
 .debug_macro   0x0000000000000000       0x3a CMakeFiles/kiibohd.dir/Scan/Infinity_Ergodox/scan_loop.c.obj
 .debug_macro   0x0000000000000000       0x9a CMakeFiles/kiibohd.dir/Scan/Infinity_Ergodox/scan_loop.c.obj
 .debug_macro   0x0000000000000000     0x1217 CMakeFiles/kiibohd.dir/Scan/Infinity_Ergodox/scan_loop.c.obj
 .debug_macro   0x0000000000000000       0x6c CMakeFiles/kiibohd.dir/Scan/Infinity_Ergodox/scan_loop.c.obj
 .debug_macro   0x0000000000000000       0x10 CMakeFiles/kiibohd.dir/Scan/Infinity_Ergodox/scan_loop.c.obj
 .debug_macro   0x0000000000000000       0x35 CMakeFiles/kiibohd.dir/Scan/Infinity_Ergodox/scan_loop.c.obj
 .group         0x0000000000000000        0x8 CMakeFiles/kiibohd.dir/Macro/PartialMap/macro.c.obj
 .group         0x0000000000000000        0x8 CMakeFiles/kiibohd.dir/Macro/PartialMap/macro.c.obj
 .group         0x0000000000000000        0x8 CMakeFiles/kiibohd.dir/Macro/PartialMap/macro.c.obj
 .group         0x0000000000000000        0x8 CMakeFiles/kiibohd.dir/Macro/PartialMap/macro.c.obj
 .group         0x0000000000000000        0x8 CMakeFiles/kiibohd.dir/Macro/PartialMap/macro.c.obj
 .group         0x0000000000000000        0x8 CMakeFiles/kiibohd.dir/Macro/PartialMap/macro.c.obj
 .group         0x0000000000000000        0x8 CMakeFiles/kiibohd.dir/Macro/PartialMap/macro.c.obj
 .group         0x0000000000000000        0x8 CMakeFiles/kiibohd.dir/Macro/PartialMap/macro.c.obj
 .group         0x0000000000000000        0x8 CMakeFiles/kiibohd.dir/Macro/PartialMap/macro.c.obj
 .group         0x0000000000000000        0x8 CMakeFiles/kiibohd.dir/Macro/PartialMap/macro.c.obj
 .group         0x0000000000000000        0x8 CMakeFiles/kiibohd.dir/Macro/PartialMap/macro.c.obj
 .group         0x0000000000000000        0x8 CMakeFiles/kiibohd.dir/Macro/PartialMap/macro.c.obj
 .group         0x0000000000000000        0x8 CMakeFiles/kiibohd.dir/Macro/PartialMap/macro.c.obj
 .group         0x0000000000000000        0x8 CMakeFiles/kiibohd.dir/Macro/PartialMap/macro.c.obj
 .group         0x0000000000000000        0x8 CMakeFiles/kiibohd.dir/Macro/PartialMap/macro.c.obj
 .group         0x0000000000000000        0x8 CMakeFiles/kiibohd.dir/Macro/PartialMap/macro.c.obj
 .group         0x0000000000000000        0x8 CMakeFiles/kiibohd.dir/Macro/PartialMap/macro.c.obj
 .group         0x0000000000000000        0x8 CMakeFiles/kiibohd.dir/Macro/PartialMap/macro.c.obj
 .group         0x0000000000000000        0x8 CMakeFiles/kiibohd.dir/Macro/PartialMap/macro.c.obj
 .group         0x0000000000000000        0x8 CMakeFiles/kiibohd.dir/Macro/PartialMap/macro.c.obj
 .text          0x0000000000000000        0x0 CMakeFiles/kiibohd.dir/Macro/PartialMap/macro.c.obj
 .data          0x0000000000000000        0x0 CMakeFiles/kiibohd.dir/Macro/PartialMap/macro.c.obj
 .bss           0x0000000000000000        0x0 CMakeFiles/kiibohd.dir/Macro/PartialMap/macro.c.obj
 .text.Macro_layerState
                0x0000000000000000        0xe CMakeFiles/kiibohd.dir/Macro/PartialMap/macro.c.obj
 .text.Macro_showScheduleParam
                0x0000000000000000       0x38 CMakeFiles/kiibohd.dir/Macro/PartialMap/macro.c.obj
 .text.Macro_showSchedule
                0x0000000000000000       0x38 CMakeFiles/kiibohd.dir/Macro/PartialMap/macro.c.obj
 .text.Macro_showTriggerGuide
                0x0000000000000000        0x2 CMakeFiles/kiibohd.dir/Macro/PartialMap/macro.c.obj
 .text.Macro_analogState
                0x0000000000000000       0x54 CMakeFiles/kiibohd.dir/Macro/PartialMap/macro.c.obj
 .text.Macro_ledState
                0x0000000000000000       0x2c CMakeFiles/kiibohd.dir/Macro/PartialMap/macro.c.obj
 .text.Macro_animationState
                0x0000000000000000       0x58 CMakeFiles/kiibohd.dir/Macro/PartialMap/macro.c.obj
 .rodata.Key_Positions
                0x0000000000000000      0x390 CMakeFiles/kiibohd.dir/Macro/PartialMap/macro.c.obj
 .rodata.Macro_showScheduleParam.str1.1
                0x0000000000000000        0x2 CMakeFiles/kiibohd.dir/Macro/PartialMap/macro.c.obj
 .debug_macro   0x0000000000000000      0xa54 CMakeFiles/kiibohd.dir/Macro/PartialMap/macro.c.obj
 .debug_macro   0x0000000000000000       0x22 CMakeFiles/kiibohd.dir/Macro/PartialMap/macro.c.obj
 .debug_macro   0x0000000000000000       0x1c CMakeFiles/kiibohd.dir/Macro/PartialMap/macro.c.obj
 .debug_macro   0x0000000000000000       0x22 CMakeFiles/kiibohd.dir/Macro/PartialMap/macro.c.obj
 .debug_macro   0x0000000000000000       0x87 CMakeFiles/kiibohd.dir/Macro/PartialMap/macro.c.obj
 .debug_macro   0x0000000000000000       0x51 CMakeFiles/kiibohd.dir/Macro/PartialMap/macro.c.obj
 .debug_macro   0x0000000000000000       0xef CMakeFiles/kiibohd.dir/Macro/PartialMap/macro.c.obj
 .debug_macro   0x0000000000000000       0x6a CMakeFiles/kiibohd.dir/Macro/PartialMap/macro.c.obj
 .debug_macro   0x0000000000000000      0x1df CMakeFiles/kiibohd.dir/Macro/PartialMap/macro.c.obj
 .debug_macro   0x0000000000000000     0x5add CMakeFiles/kiibohd.dir/Macro/PartialMap/macro.c.obj
 .debug_macro   0x0000000000000000       0x10 CMakeFiles/kiibohd.dir/Macro/PartialMap/macro.c.obj
 .debug_macro   0x0000000000000000       0x10 CMakeFiles/kiibohd.dir/Macro/PartialMap/macro.c.obj
 .debug_macro   0x0000000000000000      0x288 CMakeFiles/kiibohd.dir/Macro/PartialMap/macro.c.obj
 .debug_macro   0x0000000000000000       0xbe CMakeFiles/kiibohd.dir/Macro/PartialMap/macro.c.obj
 .debug_macro   0x0000000000000000       0x10 CMakeFiles/kiibohd.dir/Macro/PartialMap/macro.c.obj
 .debug_macro   0x0000000000000000       0x3a CMakeFiles/kiibohd.dir/Macro/PartialMap/macro.c.obj
 .debug_macro   0x0000000000000000       0x9a CMakeFiles/kiibohd.dir/Macro/PartialMap/macro.c.obj
 .debug_macro   0x0000000000000000     0x1217 CMakeFiles/kiibohd.dir/Macro/PartialMap/macro.c.obj
 .debug_macro   0x0000000000000000       0x6c CMakeFiles/kiibohd.dir/Macro/PartialMap/macro.c.obj
 .debug_macro   0x0000000000000000       0x35 CMakeFiles/kiibohd.dir/Macro/PartialMap/macro.c.obj
 .group         0x0000000000000000        0x8 CMakeFiles/kiibohd.dir/Macro/PartialMap/result.c.obj
 .group         0x0000000000000000        0x8 CMakeFiles/kiibohd.dir/Macro/PartialMap/result.c.obj
 .group         0x0000000000000000        0x8 CMakeFiles/kiibohd.dir/Macro/PartialMap/result.c.obj
 .group         0x0000000000000000        0x8 CMakeFiles/kiibohd.dir/Macro/PartialMap/result.c.obj
 .group         0x0000000000000000        0x8 CMakeFiles/kiibohd.dir/Macro/PartialMap/result.c.obj
 .group         0x0000000000000000        0x8 CMakeFiles/kiibohd.dir/Macro/PartialMap/result.c.obj
 .group         0x0000000000000000        0x8 CMakeFiles/kiibohd.dir/Macro/PartialMap/result.c.obj
 .group         0x0000000000000000        0x8 CMakeFiles/kiibohd.dir/Macro/PartialMap/result.c.obj
 .group         0x0000000000000000        0x8 CMakeFiles/kiibohd.dir/Macro/PartialMap/result.c.obj
 .group         0x0000000000000000        0x8 CMakeFiles/kiibohd.dir/Macro/PartialMap/result.c.obj
 .group         0x0000000000000000        0x8 CMakeFiles/kiibohd.dir/Macro/PartialMap/result.c.obj
 .group         0x0000000000000000        0x8 CMakeFiles/kiibohd.dir/Macro/PartialMap/result.c.obj
 .group         0x0000000000000000        0x8 CMakeFiles/kiibohd.dir/Macro/PartialMap/result.c.obj
 .group         0x0000000000000000        0x8 CMakeFiles/kiibohd.dir/Macro/PartialMap/result.c.obj
 .group         0x0000000000000000        0x8 CMakeFiles/kiibohd.dir/Macro/PartialMap/result.c.obj
 .group         0x0000000000000000        0x8 CMakeFiles/kiibohd.dir/Macro/PartialMap/result.c.obj
 .group         0x0000000000000000        0x8 CMakeFiles/kiibohd.dir/Macro/PartialMap/result.c.obj
 .group         0x0000000000000000        0x8 CMakeFiles/kiibohd.dir/Macro/PartialMap/result.c.obj
 .text          0x0000000000000000        0x0 CMakeFiles/kiibohd.dir/Macro/PartialMap/result.c.obj
 .data          0x0000000000000000        0x0 CMakeFiles/kiibohd.dir/Macro/PartialMap/result.c.obj
 .bss           0x0000000000000000        0x0 CMakeFiles/kiibohd.dir/Macro/PartialMap/result.c.obj
 .debug_macro   0x0000000000000000      0xa54 CMakeFiles/kiibohd.dir/Macro/PartialMap/result.c.obj
 .debug_macro   0x0000000000000000       0x22 CMakeFiles/kiibohd.dir/Macro/PartialMap/result.c.obj
 .debug_macro   0x0000000000000000       0x1c CMakeFiles/kiibohd.dir/Macro/PartialMap/result.c.obj
 .debug_macro   0x0000000000000000       0x22 CMakeFiles/kiibohd.dir/Macro/PartialMap/result.c.obj
 .debug_macro   0x0000000000000000       0x87 CMakeFiles/kiibohd.dir/Macro/PartialMap/result.c.obj
 .debug_macro   0x0000000000000000       0x51 CMakeFiles/kiibohd.dir/Macro/PartialMap/result.c.obj
 .debug_macro   0x0000000000000000       0xef CMakeFiles/kiibohd.dir/Macro/PartialMap/result.c.obj
 .debug_macro   0x0000000000000000       0x6a CMakeFiles/kiibohd.dir/Macro/PartialMap/result.c.obj
 .debug_macro   0x0000000000000000      0x1df CMakeFiles/kiibohd.dir/Macro/PartialMap/result.c.obj
 .debug_macro   0x0000000000000000     0x5add CMakeFiles/kiibohd.dir/Macro/PartialMap/result.c.obj
 .debug_macro   0x0000000000000000       0x10 CMakeFiles/kiibohd.dir/Macro/PartialMap/result.c.obj
 .debug_macro   0x0000000000000000       0x10 CMakeFiles/kiibohd.dir/Macro/PartialMap/result.c.obj
 .debug_macro   0x0000000000000000      0x288 CMakeFiles/kiibohd.dir/Macro/PartialMap/result.c.obj
 .debug_macro   0x0000000000000000       0xbe CMakeFiles/kiibohd.dir/Macro/PartialMap/result.c.obj
 .debug_macro   0x0000000000000000       0x10 CMakeFiles/kiibohd.dir/Macro/PartialMap/result.c.obj
 .debug_macro   0x0000000000000000       0x9a CMakeFiles/kiibohd.dir/Macro/PartialMap/result.c.obj
 .debug_macro   0x0000000000000000     0x1217 CMakeFiles/kiibohd.dir/Macro/PartialMap/result.c.obj
 .debug_macro   0x0000000000000000       0x6c CMakeFiles/kiibohd.dir/Macro/PartialMap/result.c.obj
 .group         0x0000000000000000        0x8 CMakeFiles/kiibohd.dir/Macro/PartialMap/trigger.c.obj
 .group         0x0000000000000000        0x8 CMakeFiles/kiibohd.dir/Macro/PartialMap/trigger.c.obj
 .group         0x0000000000000000        0x8 CMakeFiles/kiibohd.dir/Macro/PartialMap/trigger.c.obj
 .group         0x0000000000000000        0x8 CMakeFiles/kiibohd.dir/Macro/PartialMap/trigger.c.obj
 .group         0x0000000000000000        0x8 CMakeFiles/kiibohd.dir/Macro/PartialMap/trigger.c.obj
 .group         0x0000000000000000        0x8 CMakeFiles/kiibohd.dir/Macro/PartialMap/trigger.c.obj
 .group         0x0000000000000000        0x8 CMakeFiles/kiibohd.dir/Macro/PartialMap/trigger.c.obj
 .group         0x0000000000000000        0x8 CMakeFiles/kiibohd.dir/Macro/PartialMap/trigger.c.obj
 .group         0x0000000000000000        0x8 CMakeFiles/kiibohd.dir/Macro/PartialMap/trigger.c.obj
 .group         0x0000000000000000        0x8 CMakeFiles/kiibohd.dir/Macro/PartialMap/trigger.c.obj
 .group         0x0000000000000000        0x8 CMakeFiles/kiibohd.dir/Macro/PartialMap/trigger.c.obj
 .group         0x0000000000000000        0x8 CMakeFiles/kiibohd.dir/Macro/PartialMap/trigger.c.obj
 .group         0x0000000000000000        0x8 CMakeFiles/kiibohd.dir/Macro/PartialMap/trigger.c.obj
 .group         0x0000000000000000        0x8 CMakeFiles/kiibohd.dir/Macro/PartialMap/trigger.c.obj
 .group         0x0000000000000000        0x8 CMakeFiles/kiibohd.dir/Macro/PartialMap/trigger.c.obj
 .group         0x0000000000000000        0x8 CMakeFiles/kiibohd.dir/Macro/PartialMap/trigger.c.obj
 .group         0x0000000000000000        0x8 CMakeFiles/kiibohd.dir/Macro/PartialMap/trigger.c.obj
 .group         0x0000000000000000        0x8 CMakeFiles/kiibohd.dir/Macro/PartialMap/trigger.c.obj
 .text          0x0000000000000000        0x0 CMakeFiles/kiibohd.dir/Macro/PartialMap/trigger.c.obj
 .data          0x0000000000000000        0x0 CMakeFiles/kiibohd.dir/Macro/PartialMap/trigger.c.obj
 .bss           0x0000000000000000        0x0 CMakeFiles/kiibohd.dir/Macro/PartialMap/trigger.c.obj
 .text.Trigger_state
                0x0000000000000000        0x2 CMakeFiles/kiibohd.dir/Macro/PartialMap/trigger.c.obj
 .text.Trigger_update
                0x0000000000000000        0x4 CMakeFiles/kiibohd.dir/Macro/PartialMap/trigger.c.obj
 .debug_macro   0x0000000000000000      0xa54 CMakeFiles/kiibohd.dir/Macro/PartialMap/trigger.c.obj
 .debug_macro   0x0000000000000000       0x22 CMakeFiles/kiibohd.dir/Macro/PartialMap/trigger.c.obj
 .debug_macro   0x0000000000000000       0x1c CMakeFiles/kiibohd.dir/Macro/PartialMap/trigger.c.obj
 .debug_macro   0x0000000000000000       0x22 CMakeFiles/kiibohd.dir/Macro/PartialMap/trigger.c.obj
 .debug_macro   0x0000000000000000       0x87 CMakeFiles/kiibohd.dir/Macro/PartialMap/trigger.c.obj
 .debug_macro   0x0000000000000000       0x51 CMakeFiles/kiibohd.dir/Macro/PartialMap/trigger.c.obj
 .debug_macro   0x0000000000000000       0xef CMakeFiles/kiibohd.dir/Macro/PartialMap/trigger.c.obj
 .debug_macro   0x0000000000000000       0x6a CMakeFiles/kiibohd.dir/Macro/PartialMap/trigger.c.obj
 .debug_macro   0x0000000000000000      0x1df CMakeFiles/kiibohd.dir/Macro/PartialMap/trigger.c.obj
 .debug_macro   0x0000000000000000     0x5add CMakeFiles/kiibohd.dir/Macro/PartialMap/trigger.c.obj
 .debug_macro   0x0000000000000000       0x10 CMakeFiles/kiibohd.dir/Macro/PartialMap/trigger.c.obj
 .debug_macro   0x0000000000000000       0x10 CMakeFiles/kiibohd.dir/Macro/PartialMap/trigger.c.obj
 .debug_macro   0x0000000000000000      0x288 CMakeFiles/kiibohd.dir/Macro/PartialMap/trigger.c.obj
 .debug_macro   0x0000000000000000       0xbe CMakeFiles/kiibohd.dir/Macro/PartialMap/trigger.c.obj
 .debug_macro   0x0000000000000000       0x10 CMakeFiles/kiibohd.dir/Macro/PartialMap/trigger.c.obj
 .debug_macro   0x0000000000000000       0x9a CMakeFiles/kiibohd.dir/Macro/PartialMap/trigger.c.obj
 .debug_macro   0x0000000000000000     0x1217 CMakeFiles/kiibohd.dir/Macro/PartialMap/trigger.c.obj
 .debug_macro   0x0000000000000000       0x6c CMakeFiles/kiibohd.dir/Macro/PartialMap/trigger.c.obj
 .group         0x0000000000000000        0x8 CMakeFiles/kiibohd.dir/Macro/PixelMap/pixel.c.obj
 .group         0x0000000000000000        0x8 CMakeFiles/kiibohd.dir/Macro/PixelMap/pixel.c.obj
 .group         0x0000000000000000        0x8 CMakeFiles/kiibohd.dir/Macro/PixelMap/pixel.c.obj
 .group         0x0000000000000000        0x8 CMakeFiles/kiibohd.dir/Macro/PixelMap/pixel.c.obj
 .group         0x0000000000000000        0x8 CMakeFiles/kiibohd.dir/Macro/PixelMap/pixel.c.obj
 .group         0x0000000000000000        0x8 CMakeFiles/kiibohd.dir/Macro/PixelMap/pixel.c.obj
 .group         0x0000000000000000        0x8 CMakeFiles/kiibohd.dir/Macro/PixelMap/pixel.c.obj
 .group         0x0000000000000000        0x8 CMakeFiles/kiibohd.dir/Macro/PixelMap/pixel.c.obj
 .group         0x0000000000000000        0x8 CMakeFiles/kiibohd.dir/Macro/PixelMap/pixel.c.obj
 .group         0x0000000000000000        0x8 CMakeFiles/kiibohd.dir/Macro/PixelMap/pixel.c.obj
 .group         0x0000000000000000        0x8 CMakeFiles/kiibohd.dir/Macro/PixelMap/pixel.c.obj
 .group         0x0000000000000000        0x8 CMakeFiles/kiibohd.dir/Macro/PixelMap/pixel.c.obj
 .group         0x0000000000000000        0x8 CMakeFiles/kiibohd.dir/Macro/PixelMap/pixel.c.obj
 .group         0x0000000000000000        0x8 CMakeFiles/kiibohd.dir/Macro/PixelMap/pixel.c.obj
 .group         0x0000000000000000        0x8 CMakeFiles/kiibohd.dir/Macro/PixelMap/pixel.c.obj
 .group         0x0000000000000000        0x8 CMakeFiles/kiibohd.dir/Macro/PixelMap/pixel.c.obj
 .group         0x0000000000000000        0x8 CMakeFiles/kiibohd.dir/Macro/PixelMap/pixel.c.obj
 .group         0x0000000000000000        0x8 CMakeFiles/kiibohd.dir/Macro/PixelMap/pixel.c.obj
 .group         0x0000000000000000        0x8 CMakeFiles/kiibohd.dir/Macro/PixelMap/pixel.c.obj
 .group         0x0000000000000000        0x8 CMakeFiles/kiibohd.dir/Macro/PixelMap/pixel.c.obj
 .text          0x0000000000000000        0x0 CMakeFiles/kiibohd.dir/Macro/PixelMap/pixel.c.obj
 .data          0x0000000000000000        0x0 CMakeFiles/kiibohd.dir/Macro/PixelMap/pixel.c.obj
 .bss           0x0000000000000000        0x0 CMakeFiles/kiibohd.dir/Macro/PixelMap/pixel.c.obj
 .text.Pixel_8bitInterpolation
                0x0000000000000000       0x10 CMakeFiles/kiibohd.dir/Macro/PixelMap/pixel.c.obj
 .text.Pixel_addDefaultAnimation
                0x0000000000000000       0x24 CMakeFiles/kiibohd.dir/Macro/PixelMap/pixel.c.obj
 .text.Pixel_delAnimation
                0x0000000000000000       0x30 CMakeFiles/kiibohd.dir/Macro/PixelMap/pixel.c.obj
 .text.Pixel_pixelInterpolate
                0x0000000000000000       0x42 CMakeFiles/kiibohd.dir/Macro/PixelMap/pixel.c.obj
 .text.Pixel_frameTweenInterpolation
                0x0000000000000000        0x2 CMakeFiles/kiibohd.dir/Macro/PixelMap/pixel.c.obj
 .text.Pixel_initializeStartAnimations
                0x0000000000000000        0x2 CMakeFiles/kiibohd.dir/Macro/PixelMap/pixel.c.obj
 .debug_macro   0x0000000000000000      0xa54 CMakeFiles/kiibohd.dir/Macro/PixelMap/pixel.c.obj
 .debug_macro   0x0000000000000000       0x22 CMakeFiles/kiibohd.dir/Macro/PixelMap/pixel.c.obj
 .debug_macro   0x0000000000000000       0x1c CMakeFiles/kiibohd.dir/Macro/PixelMap/pixel.c.obj
 .debug_macro   0x0000000000000000       0x22 CMakeFiles/kiibohd.dir/Macro/PixelMap/pixel.c.obj
 .debug_macro   0x0000000000000000       0x87 CMakeFiles/kiibohd.dir/Macro/PixelMap/pixel.c.obj
 .debug_macro   0x0000000000000000       0x51 CMakeFiles/kiibohd.dir/Macro/PixelMap/pixel.c.obj
 .debug_macro   0x0000000000000000       0xef CMakeFiles/kiibohd.dir/Macro/PixelMap/pixel.c.obj
 .debug_macro   0x0000000000000000       0x6a CMakeFiles/kiibohd.dir/Macro/PixelMap/pixel.c.obj
 .debug_macro   0x0000000000000000      0x1df CMakeFiles/kiibohd.dir/Macro/PixelMap/pixel.c.obj
 .debug_macro   0x0000000000000000     0x5add CMakeFiles/kiibohd.dir/Macro/PixelMap/pixel.c.obj
 .debug_macro   0x0000000000000000       0x10 CMakeFiles/kiibohd.dir/Macro/PixelMap/pixel.c.obj
 .debug_macro   0x0000000000000000       0x10 CMakeFiles/kiibohd.dir/Macro/PixelMap/pixel.c.obj
 .debug_macro   0x0000000000000000      0x288 CMakeFiles/kiibohd.dir/Macro/PixelMap/pixel.c.obj
 .debug_macro   0x0000000000000000       0xbe CMakeFiles/kiibohd.dir/Macro/PixelMap/pixel.c.obj
 .debug_macro   0x0000000000000000       0x10 CMakeFiles/kiibohd.dir/Macro/PixelMap/pixel.c.obj
 .debug_macro   0x0000000000000000       0x3a CMakeFiles/kiibohd.dir/Macro/PixelMap/pixel.c.obj
 .debug_macro   0x0000000000000000       0x9a CMakeFiles/kiibohd.dir/Macro/PixelMap/pixel.c.obj
 .debug_macro   0x0000000000000000     0x1217 CMakeFiles/kiibohd.dir/Macro/PixelMap/pixel.c.obj
 .debug_macro   0x0000000000000000       0x6c CMakeFiles/kiibohd.dir/Macro/PixelMap/pixel.c.obj
 .debug_macro   0x0000000000000000       0x35 CMakeFiles/kiibohd.dir/Macro/PixelMap/pixel.c.obj
 .group         0x0000000000000000        0x8 CMakeFiles/kiibohd.dir/generatedPixelmap.c.obj
 .group         0x0000000000000000        0x8 CMakeFiles/kiibohd.dir/generatedPixelmap.c.obj
 .group         0x0000000000000000        0x8 CMakeFiles/kiibohd.dir/generatedPixelmap.c.obj
 .group         0x0000000000000000        0x8 CMakeFiles/kiibohd.dir/generatedPixelmap.c.obj
 .group         0x0000000000000000        0x8 CMakeFiles/kiibohd.dir/generatedPixelmap.c.obj
 .group         0x0000000000000000        0x8 CMakeFiles/kiibohd.dir/generatedPixelmap.c.obj
 .group         0x0000000000000000        0x8 CMakeFiles/kiibohd.dir/generatedPixelmap.c.obj
 .group         0x0000000000000000        0x8 CMakeFiles/kiibohd.dir/generatedPixelmap.c.obj
 .group         0x0000000000000000        0x8 CMakeFiles/kiibohd.dir/generatedPixelmap.c.obj
 .group         0x0000000000000000        0x8 CMakeFiles/kiibohd.dir/generatedPixelmap.c.obj
 .group         0x0000000000000000        0x8 CMakeFiles/kiibohd.dir/generatedPixelmap.c.obj
 .group         0x0000000000000000        0x8 CMakeFiles/kiibohd.dir/generatedPixelmap.c.obj
 .group         0x0000000000000000        0x8 CMakeFiles/kiibohd.dir/generatedPixelmap.c.obj
 .group         0x0000000000000000        0x8 CMakeFiles/kiibohd.dir/generatedPixelmap.c.obj
 .group         0x0000000000000000        0x8 CMakeFiles/kiibohd.dir/generatedPixelmap.c.obj
 .text          0x0000000000000000        0x0 CMakeFiles/kiibohd.dir/generatedPixelmap.c.obj
 .data          0x0000000000000000        0x0 CMakeFiles/kiibohd.dir/generatedPixelmap.c.obj
 .bss           0x0000000000000000        0x0 CMakeFiles/kiibohd.dir/generatedPixelmap.c.obj
 .rodata.Pixel_AnimationSettings
                0x0000000000000000        0x0 CMakeFiles/kiibohd.dir/generatedPixelmap.c.obj
 .debug_macro   0x0000000000000000      0xa54 CMakeFiles/kiibohd.dir/generatedPixelmap.c.obj
 .debug_macro   0x0000000000000000       0x22 CMakeFiles/kiibohd.dir/generatedPixelmap.c.obj
 .debug_macro   0x0000000000000000       0x87 CMakeFiles/kiibohd.dir/generatedPixelmap.c.obj
 .debug_macro   0x0000000000000000       0x51 CMakeFiles/kiibohd.dir/generatedPixelmap.c.obj
 .debug_macro   0x0000000000000000       0xef CMakeFiles/kiibohd.dir/generatedPixelmap.c.obj
 .debug_macro   0x0000000000000000       0x6a CMakeFiles/kiibohd.dir/generatedPixelmap.c.obj
 .debug_macro   0x0000000000000000      0x1df CMakeFiles/kiibohd.dir/generatedPixelmap.c.obj
 .debug_macro   0x0000000000000000      0x288 CMakeFiles/kiibohd.dir/generatedPixelmap.c.obj
 .debug_macro   0x0000000000000000       0x22 CMakeFiles/kiibohd.dir/generatedPixelmap.c.obj
 .debug_macro   0x0000000000000000       0xbe CMakeFiles/kiibohd.dir/generatedPixelmap.c.obj
 .debug_macro   0x0000000000000000       0x10 CMakeFiles/kiibohd.dir/generatedPixelmap.c.obj
 .debug_macro   0x0000000000000000       0x9a CMakeFiles/kiibohd.dir/generatedPixelmap.c.obj
 .debug_macro   0x0000000000000000     0x1217 CMakeFiles/kiibohd.dir/generatedPixelmap.c.obj
 .debug_macro   0x0000000000000000       0x6c CMakeFiles/kiibohd.dir/generatedPixelmap.c.obj
 .debug_macro   0x0000000000000000       0x35 CMakeFiles/kiibohd.dir/generatedPixelmap.c.obj
 .group         0x0000000000000000        0x8 CMakeFiles/kiibohd.dir/Output/HID-IO/hidio_com.c.obj
 .group         0x0000000000000000        0x8 CMakeFiles/kiibohd.dir/Output/HID-IO/hidio_com.c.obj
 .group         0x0000000000000000        0x8 CMakeFiles/kiibohd.dir/Output/HID-IO/hidio_com.c.obj
 .group         0x0000000000000000        0x8 CMakeFiles/kiibohd.dir/Output/HID-IO/hidio_com.c.obj
 .group         0x0000000000000000        0x8 CMakeFiles/kiibohd.dir/Output/HID-IO/hidio_com.c.obj
 .group         0x0000000000000000        0x8 CMakeFiles/kiibohd.dir/Output/HID-IO/hidio_com.c.obj
 .group         0x0000000000000000        0x8 CMakeFiles/kiibohd.dir/Output/HID-IO/hidio_com.c.obj
 .group         0x0000000000000000        0x8 CMakeFiles/kiibohd.dir/Output/HID-IO/hidio_com.c.obj
 .group         0x0000000000000000        0x8 CMakeFiles/kiibohd.dir/Output/HID-IO/hidio_com.c.obj
 .group         0x0000000000000000        0x8 CMakeFiles/kiibohd.dir/Output/HID-IO/hidio_com.c.obj
 .group         0x0000000000000000        0x8 CMakeFiles/kiibohd.dir/Output/HID-IO/hidio_com.c.obj
 .group         0x0000000000000000        0x8 CMakeFiles/kiibohd.dir/Output/HID-IO/hidio_com.c.obj
 .group         0x0000000000000000        0x8 CMakeFiles/kiibohd.dir/Output/HID-IO/hidio_com.c.obj
 .group         0x0000000000000000        0x8 CMakeFiles/kiibohd.dir/Output/HID-IO/hidio_com.c.obj
 .group         0x0000000000000000        0x8 CMakeFiles/kiibohd.dir/Output/HID-IO/hidio_com.c.obj
 .group         0x0000000000000000        0x8 CMakeFiles/kiibohd.dir/Output/HID-IO/hidio_com.c.obj
 .group         0x0000000000000000        0x8 CMakeFiles/kiibohd.dir/Output/HID-IO/hidio_com.c.obj
 .group         0x0000000000000000        0x8 CMakeFiles/kiibohd.dir/Output/HID-IO/hidio_com.c.obj
 .group         0x0000000000000000        0x8 CMakeFiles/kiibohd.dir/Output/HID-IO/hidio_com.c.obj
 .text          0x0000000000000000        0x0 CMakeFiles/kiibohd.dir/Output/HID-IO/hidio_com.c.obj
 .data          0x0000000000000000        0x0 CMakeFiles/kiibohd.dir/Output/HID-IO/hidio_com.c.obj
 .bss           0x0000000000000000        0x0 CMakeFiles/kiibohd.dir/Output/HID-IO/hidio_com.c.obj
 .text.HIDIO_max_payload
                0x0000000000000000       0x10 CMakeFiles/kiibohd.dir/Output/HID-IO/hidio_com.c.obj
 .text.HIDIO_buffer_id_width
                0x0000000000000000        0xa CMakeFiles/kiibohd.dir/Output/HID-IO/hidio_com.c.obj
 .text.HIDIO_id_width
                0x0000000000000000        0xc CMakeFiles/kiibohd.dir/Output/HID-IO/hidio_com.c.obj
 .text.HIDIO_supported_0_request
                0x0000000000000000        0x2 CMakeFiles/kiibohd.dir/Output/HID-IO/hidio_com.c.obj
 .text.HIDIO_info_1_request
                0x0000000000000000        0x2 CMakeFiles/kiibohd.dir/Output/HID-IO/hidio_com.c.obj
 .text.HIDIO_test_2_request
                0x0000000000000000       0x38 CMakeFiles/kiibohd.dir/Output/HID-IO/hidio_com.c.obj
 .text.HIDIO_invalid_65535_request
                0x0000000000000000       0x24 CMakeFiles/kiibohd.dir/Output/HID-IO/hidio_com.c.obj
 .text.HIDIO_packet_size
                0x0000000000000000        0xc CMakeFiles/kiibohd.dir/Output/HID-IO/hidio_com.c.obj
 .text.HIDIO_packet_interrupt
                0x0000000000000000        0xc CMakeFiles/kiibohd.dir/Output/HID-IO/hidio_com.c.obj
 .rodata.HIDIO_packet_interrupt.str1.1
                0x0000000000000000        0x4 CMakeFiles/kiibohd.dir/Output/HID-IO/hidio_com.c.obj
 .debug_macro   0x0000000000000000      0xa54 CMakeFiles/kiibohd.dir/Output/HID-IO/hidio_com.c.obj
 .debug_macro   0x0000000000000000       0x22 CMakeFiles/kiibohd.dir/Output/HID-IO/hidio_com.c.obj
 .debug_macro   0x0000000000000000       0x1c CMakeFiles/kiibohd.dir/Output/HID-IO/hidio_com.c.obj
 .debug_macro   0x0000000000000000       0x22 CMakeFiles/kiibohd.dir/Output/HID-IO/hidio_com.c.obj
 .debug_macro   0x0000000000000000       0x87 CMakeFiles/kiibohd.dir/Output/HID-IO/hidio_com.c.obj
 .debug_macro   0x0000000000000000       0x51 CMakeFiles/kiibohd.dir/Output/HID-IO/hidio_com.c.obj
 .debug_macro   0x0000000000000000       0xef CMakeFiles/kiibohd.dir/Output/HID-IO/hidio_com.c.obj
 .debug_macro   0x0000000000000000       0x6a CMakeFiles/kiibohd.dir/Output/HID-IO/hidio_com.c.obj
 .debug_macro   0x0000000000000000      0x1df CMakeFiles/kiibohd.dir/Output/HID-IO/hidio_com.c.obj
 .debug_macro   0x0000000000000000     0x5add CMakeFiles/kiibohd.dir/Output/HID-IO/hidio_com.c.obj
 .debug_macro   0x0000000000000000       0x10 CMakeFiles/kiibohd.dir/Output/HID-IO/hidio_com.c.obj
 .debug_macro   0x0000000000000000       0x10 CMakeFiles/kiibohd.dir/Output/HID-IO/hidio_com.c.obj
 .debug_macro   0x0000000000000000      0x288 CMakeFiles/kiibohd.dir/Output/HID-IO/hidio_com.c.obj
 .debug_macro   0x0000000000000000       0xbe CMakeFiles/kiibohd.dir/Output/HID-IO/hidio_com.c.obj
 .debug_macro   0x0000000000000000       0x10 CMakeFiles/kiibohd.dir/Output/HID-IO/hidio_com.c.obj
 .debug_macro   0x0000000000000000       0x3a CMakeFiles/kiibohd.dir/Output/HID-IO/hidio_com.c.obj
 .debug_macro   0x0000000000000000       0x9a CMakeFiles/kiibohd.dir/Output/HID-IO/hidio_com.c.obj
 .debug_macro   0x0000000000000000     0x1217 CMakeFiles/kiibohd.dir/Output/HID-IO/hidio_com.c.obj
 .debug_macro   0x0000000000000000       0x6c CMakeFiles/kiibohd.dir/Output/HID-IO/hidio_com.c.obj
 .group         0x0000000000000000        0x8 CMakeFiles/kiibohd.dir/Output/Interface/output_gen.c.obj
 .group         0x0000000000000000        0x8 CMakeFiles/kiibohd.dir/Output/Interface/output_gen.c.obj
 .group         0x0000000000000000        0x8 CMakeFiles/kiibohd.dir/Output/Interface/output_gen.c.obj
 .group         0x0000000000000000        0x8 CMakeFiles/kiibohd.dir/Output/Interface/output_gen.c.obj
 .group         0x0000000000000000        0x8 CMakeFiles/kiibohd.dir/Output/Interface/output_gen.c.obj
 .group         0x0000000000000000        0x8 CMakeFiles/kiibohd.dir/Output/Interface/output_gen.c.obj
 .group         0x0000000000000000        0x8 CMakeFiles/kiibohd.dir/Output/Interface/output_gen.c.obj
 .group         0x0000000000000000        0x8 CMakeFiles/kiibohd.dir/Output/Interface/output_gen.c.obj
 .group         0x0000000000000000        0x8 CMakeFiles/kiibohd.dir/Output/Interface/output_gen.c.obj
 .group         0x0000000000000000        0x8 CMakeFiles/kiibohd.dir/Output/Interface/output_gen.c.obj
 .group         0x0000000000000000        0x8 CMakeFiles/kiibohd.dir/Output/Interface/output_gen.c.obj
 .group         0x0000000000000000        0x8 CMakeFiles/kiibohd.dir/Output/Interface/output_gen.c.obj
 .group         0x0000000000000000        0x8 CMakeFiles/kiibohd.dir/Output/Interface/output_gen.c.obj
 .group         0x0000000000000000        0x8 CMakeFiles/kiibohd.dir/Output/Interface/output_gen.c.obj
 .group         0x0000000000000000        0x8 CMakeFiles/kiibohd.dir/Output/Interface/output_gen.c.obj
 .group         0x0000000000000000        0x8 CMakeFiles/kiibohd.dir/Output/Interface/output_gen.c.obj
 .group         0x0000000000000000        0x8 CMakeFiles/kiibohd.dir/Output/Interface/output_gen.c.obj
 .group         0x0000000000000000        0x8 CMakeFiles/kiibohd.dir/Output/Interface/output_gen.c.obj
 .group         0x0000000000000000        0x8 CMakeFiles/kiibohd.dir/Output/Interface/output_gen.c.obj
 .text          0x0000000000000000        0x0 CMakeFiles/kiibohd.dir/Output/Interface/output_gen.c.obj
 .data          0x0000000000000000        0x0 CMakeFiles/kiibohd.dir/Output/Interface/output_gen.c.obj
 .bss           0x0000000000000000        0x0 CMakeFiles/kiibohd.dir/Output/Interface/output_gen.c.obj
 .text.Output_ignored_capability
                0x0000000000000000        0x2 CMakeFiles/kiibohd.dir/Output/Interface/output_gen.c.obj
 .debug_macro   0x0000000000000000      0xa54 CMakeFiles/kiibohd.dir/Output/Interface/output_gen.c.obj
 .debug_macro   0x0000000000000000       0x22 CMakeFiles/kiibohd.dir/Output/Interface/output_gen.c.obj
 .debug_macro   0x0000000000000000       0x1c CMakeFiles/kiibohd.dir/Output/Interface/output_gen.c.obj
 .debug_macro   0x0000000000000000       0x22 CMakeFiles/kiibohd.dir/Output/Interface/output_gen.c.obj
 .debug_macro   0x0000000000000000       0x87 CMakeFiles/kiibohd.dir/Output/Interface/output_gen.c.obj
 .debug_macro   0x0000000000000000       0x51 CMakeFiles/kiibohd.dir/Output/Interface/output_gen.c.obj
 .debug_macro   0x0000000000000000       0xef CMakeFiles/kiibohd.dir/Output/Interface/output_gen.c.obj
 .debug_macro   0x0000000000000000       0x6a CMakeFiles/kiibohd.dir/Output/Interface/output_gen.c.obj
 .debug_macro   0x0000000000000000      0x1df CMakeFiles/kiibohd.dir/Output/Interface/output_gen.c.obj
 .debug_macro   0x0000000000000000     0x5add CMakeFiles/kiibohd.dir/Output/Interface/output_gen.c.obj
 .debug_macro   0x0000000000000000       0x10 CMakeFiles/kiibohd.dir/Output/Interface/output_gen.c.obj
 .debug_macro   0x0000000000000000       0x10 CMakeFiles/kiibohd.dir/Output/Interface/output_gen.c.obj
 .debug_macro   0x0000000000000000      0x288 CMakeFiles/kiibohd.dir/Output/Interface/output_gen.c.obj
 .debug_macro   0x0000000000000000       0xbe CMakeFiles/kiibohd.dir/Output/Interface/output_gen.c.obj
 .debug_macro   0x0000000000000000       0x10 CMakeFiles/kiibohd.dir/Output/Interface/output_gen.c.obj
 .debug_macro   0x0000000000000000       0x3a CMakeFiles/kiibohd.dir/Output/Interface/output_gen.c.obj
 .debug_macro   0x0000000000000000       0x9a CMakeFiles/kiibohd.dir/Output/Interface/output_gen.c.obj
 .debug_macro   0x0000000000000000     0x1217 CMakeFiles/kiibohd.dir/Output/Interface/output_gen.c.obj
 .debug_macro   0x0000000000000000       0x6c CMakeFiles/kiibohd.dir/Output/Interface/output_gen.c.obj
 .group         0x0000000000000000        0x8 CMakeFiles/kiibohd.dir/Output/USB/output_com.c.obj
 .group         0x0000000000000000        0x8 CMakeFiles/kiibohd.dir/Output/USB/output_com.c.obj
 .group         0x0000000000000000        0x8 CMakeFiles/kiibohd.dir/Output/USB/output_com.c.obj
 .group         0x0000000000000000        0x8 CMakeFiles/kiibohd.dir/Output/USB/output_com.c.obj
 .group         0x0000000000000000        0x8 CMakeFiles/kiibohd.dir/Output/USB/output_com.c.obj
 .group         0x0000000000000000        0x8 CMakeFiles/kiibohd.dir/Output/USB/output_com.c.obj
 .group         0x0000000000000000        0x8 CMakeFiles/kiibohd.dir/Output/USB/output_com.c.obj
 .group         0x0000000000000000        0x8 CMakeFiles/kiibohd.dir/Output/USB/output_com.c.obj
 .group         0x0000000000000000        0x8 CMakeFiles/kiibohd.dir/Output/USB/output_com.c.obj
 .group         0x0000000000000000        0x8 CMakeFiles/kiibohd.dir/Output/USB/output_com.c.obj
 .group         0x0000000000000000        0x8 CMakeFiles/kiibohd.dir/Output/USB/output_com.c.obj
 .group         0x0000000000000000        0x8 CMakeFiles/kiibohd.dir/Output/USB/output_com.c.obj
 .group         0x0000000000000000        0x8 CMakeFiles/kiibohd.dir/Output/USB/output_com.c.obj
 .group         0x0000000000000000        0x8 CMakeFiles/kiibohd.dir/Output/USB/output_com.c.obj
 .group         0x0000000000000000        0x8 CMakeFiles/kiibohd.dir/Output/USB/output_com.c.obj
 .group         0x0000000000000000        0x8 CMakeFiles/kiibohd.dir/Output/USB/output_com.c.obj
 .group         0x0000000000000000        0x8 CMakeFiles/kiibohd.dir/Output/USB/output_com.c.obj
 .text          0x0000000000000000        0x0 CMakeFiles/kiibohd.dir/Output/USB/output_com.c.obj
 .data          0x0000000000000000        0x0 CMakeFiles/kiibohd.dir/Output/USB/output_com.c.obj
 .bss           0x0000000000000000        0x0 CMakeFiles/kiibohd.dir/Output/USB/output_com.c.obj
 .text.Output_putchar
                0x0000000000000000        0x4 CMakeFiles/kiibohd.dir/Output/USB/output_com.c.obj
 .debug_macro   0x0000000000000000      0xa54 CMakeFiles/kiibohd.dir/Output/USB/output_com.c.obj
 .debug_macro   0x0000000000000000       0x22 CMakeFiles/kiibohd.dir/Output/USB/output_com.c.obj
 .debug_macro   0x0000000000000000       0x1c CMakeFiles/kiibohd.dir/Output/USB/output_com.c.obj
 .debug_macro   0x0000000000000000       0x22 CMakeFiles/kiibohd.dir/Output/USB/output_com.c.obj
 .debug_macro   0x0000000000000000       0x87 CMakeFiles/kiibohd.dir/Output/USB/output_com.c.obj
 .debug_macro   0x0000000000000000       0x51 CMakeFiles/kiibohd.dir/Output/USB/output_com.c.obj
 .debug_macro   0x0000000000000000       0xef CMakeFiles/kiibohd.dir/Output/USB/output_com.c.obj
 .debug_macro   0x0000000000000000       0x6a CMakeFiles/kiibohd.dir/Output/USB/output_com.c.obj
 .debug_macro   0x0000000000000000      0x1df CMakeFiles/kiibohd.dir/Output/USB/output_com.c.obj
 .debug_macro   0x0000000000000000     0x5add CMakeFiles/kiibohd.dir/Output/USB/output_com.c.obj
 .debug_macro   0x0000000000000000       0x10 CMakeFiles/kiibohd.dir/Output/USB/output_com.c.obj
 .debug_macro   0x0000000000000000      0x288 CMakeFiles/kiibohd.dir/Output/USB/output_com.c.obj
 .debug_macro   0x0000000000000000       0xbe CMakeFiles/kiibohd.dir/Output/USB/output_com.c.obj
 .debug_macro   0x0000000000000000       0x10 CMakeFiles/kiibohd.dir/Output/USB/output_com.c.obj
 .debug_macro   0x0000000000000000       0x9a CMakeFiles/kiibohd.dir/Output/USB/output_com.c.obj
 .debug_macro   0x0000000000000000     0x1217 CMakeFiles/kiibohd.dir/Output/USB/output_com.c.obj
 .debug_macro   0x0000000000000000       0x6c CMakeFiles/kiibohd.dir/Output/USB/output_com.c.obj
 .group         0x0000000000000000        0x8 CMakeFiles/kiibohd.dir/Output/USB/output_usb.c.obj
 .group         0x0000000000000000        0x8 CMakeFiles/kiibohd.dir/Output/USB/output_usb.c.obj
 .group         0x0000000000000000        0x8 CMakeFiles/kiibohd.dir/Output/USB/output_usb.c.obj
 .group         0x0000000000000000        0x8 CMakeFiles/kiibohd.dir/Output/USB/output_usb.c.obj
 .group         0x0000000000000000        0x8 CMakeFiles/kiibohd.dir/Output/USB/output_usb.c.obj
 .group         0x0000000000000000        0x8 CMakeFiles/kiibohd.dir/Output/USB/output_usb.c.obj
 .group         0x0000000000000000        0x8 CMakeFiles/kiibohd.dir/Output/USB/output_usb.c.obj
 .group         0x0000000000000000        0x8 CMakeFiles/kiibohd.dir/Output/USB/output_usb.c.obj
 .group         0x0000000000000000        0x8 CMakeFiles/kiibohd.dir/Output/USB/output_usb.c.obj
 .group         0x0000000000000000        0x8 CMakeFiles/kiibohd.dir/Output/USB/output_usb.c.obj
 .group         0x0000000000000000        0x8 CMakeFiles/kiibohd.dir/Output/USB/output_usb.c.obj
 .group         0x0000000000000000        0x8 CMakeFiles/kiibohd.dir/Output/USB/output_usb.c.obj
 .group         0x0000000000000000        0x8 CMakeFiles/kiibohd.dir/Output/USB/output_usb.c.obj
 .group         0x0000000000000000        0x8 CMakeFiles/kiibohd.dir/Output/USB/output_usb.c.obj
 .group         0x0000000000000000        0x8 CMakeFiles/kiibohd.dir/Output/USB/output_usb.c.obj
 .group         0x0000000000000000        0x8 CMakeFiles/kiibohd.dir/Output/USB/output_usb.c.obj
 .group         0x0000000000000000        0x8 CMakeFiles/kiibohd.dir/Output/USB/output_usb.c.obj
 .group         0x0000000000000000        0x8 CMakeFiles/kiibohd.dir/Output/USB/output_usb.c.obj
 .group         0x0000000000000000        0x8 CMakeFiles/kiibohd.dir/Output/USB/output_usb.c.obj
 .group         0x0000000000000000        0x8 CMakeFiles/kiibohd.dir/Output/USB/output_usb.c.obj
 .group         0x0000000000000000        0x8 CMakeFiles/kiibohd.dir/Output/USB/output_usb.c.obj
 .group         0x0000000000000000        0x8 CMakeFiles/kiibohd.dir/Output/USB/output_usb.c.obj
 .group         0x0000000000000000        0x8 CMakeFiles/kiibohd.dir/Output/USB/output_usb.c.obj
 .group         0x0000000000000000        0x8 CMakeFiles/kiibohd.dir/Output/USB/output_usb.c.obj
 .group         0x0000000000000000        0x8 CMakeFiles/kiibohd.dir/Output/USB/output_usb.c.obj
 .group         0x0000000000000000        0x8 CMakeFiles/kiibohd.dir/Output/USB/output_usb.c.obj
 .group         0x0000000000000000        0x8 CMakeFiles/kiibohd.dir/Output/USB/output_usb.c.obj
 .text          0x0000000000000000        0x0 CMakeFiles/kiibohd.dir/Output/USB/output_usb.c.obj
 .data          0x0000000000000000        0x0 CMakeFiles/kiibohd.dir/Output/USB/output_usb.c.obj
 .bss           0x0000000000000000        0x0 CMakeFiles/kiibohd.dir/Output/USB/output_usb.c.obj
 .text.USB_putchar
                0x0000000000000000        0x4 CMakeFiles/kiibohd.dir/Output/USB/output_usb.c.obj
 .bss.USBKeys_Idle_Count
                0x0000000000000000        0x1 CMakeFiles/kiibohd.dir/Output/USB/output_usb.c.obj
 .debug_macro   0x0000000000000000      0xa54 CMakeFiles/kiibohd.dir/Output/USB/output_usb.c.obj
 .debug_macro   0x0000000000000000       0x22 CMakeFiles/kiibohd.dir/Output/USB/output_usb.c.obj
 .debug_macro   0x0000000000000000       0x1c CMakeFiles/kiibohd.dir/Output/USB/output_usb.c.obj
 .debug_macro   0x0000000000000000       0x22 CMakeFiles/kiibohd.dir/Output/USB/output_usb.c.obj
 .debug_macro   0x0000000000000000       0x87 CMakeFiles/kiibohd.dir/Output/USB/output_usb.c.obj
 .debug_macro   0x0000000000000000       0x51 CMakeFiles/kiibohd.dir/Output/USB/output_usb.c.obj
 .debug_macro   0x0000000000000000       0xef CMakeFiles/kiibohd.dir/Output/USB/output_usb.c.obj
 .debug_macro   0x0000000000000000       0x6a CMakeFiles/kiibohd.dir/Output/USB/output_usb.c.obj
 .debug_macro   0x0000000000000000      0x1df CMakeFiles/kiibohd.dir/Output/USB/output_usb.c.obj
 .debug_macro   0x0000000000000000     0x5add CMakeFiles/kiibohd.dir/Output/USB/output_usb.c.obj
 .debug_macro   0x0000000000000000       0x10 CMakeFiles/kiibohd.dir/Output/USB/output_usb.c.obj
 .debug_macro   0x0000000000000000       0x10 CMakeFiles/kiibohd.dir/Output/USB/output_usb.c.obj
 .debug_macro   0x0000000000000000      0x288 CMakeFiles/kiibohd.dir/Output/USB/output_usb.c.obj
 .debug_macro   0x0000000000000000       0xbe CMakeFiles/kiibohd.dir/Output/USB/output_usb.c.obj
 .debug_macro   0x0000000000000000       0x10 CMakeFiles/kiibohd.dir/Output/USB/output_usb.c.obj
 .debug_macro   0x0000000000000000       0x3a CMakeFiles/kiibohd.dir/Output/USB/output_usb.c.obj
 .debug_macro   0x0000000000000000       0x9a CMakeFiles/kiibohd.dir/Output/USB/output_usb.c.obj
 .debug_macro   0x0000000000000000      0x174 CMakeFiles/kiibohd.dir/Output/USB/output_usb.c.obj
 .debug_macro   0x0000000000000000     0x1217 CMakeFiles/kiibohd.dir/Output/USB/output_usb.c.obj
 .debug_macro   0x0000000000000000       0x6c CMakeFiles/kiibohd.dir/Output/USB/output_usb.c.obj
 .group         0x0000000000000000        0x8 CMakeFiles/kiibohd.dir/Output/USB/arm/usb_desc.c.obj
 .group         0x0000000000000000        0x8 CMakeFiles/kiibohd.dir/Output/USB/arm/usb_desc.c.obj
 .group         0x0000000000000000        0x8 CMakeFiles/kiibohd.dir/Output/USB/arm/usb_desc.c.obj
 .group         0x0000000000000000        0x8 CMakeFiles/kiibohd.dir/Output/USB/arm/usb_desc.c.obj
 .group         0x0000000000000000        0x8 CMakeFiles/kiibohd.dir/Output/USB/arm/usb_desc.c.obj
 .group         0x0000000000000000        0x8 CMakeFiles/kiibohd.dir/Output/USB/arm/usb_desc.c.obj
 .group         0x0000000000000000        0x8 CMakeFiles/kiibohd.dir/Output/USB/arm/usb_desc.c.obj
 .group         0x0000000000000000        0x8 CMakeFiles/kiibohd.dir/Output/USB/arm/usb_desc.c.obj
 .group         0x0000000000000000        0x8 CMakeFiles/kiibohd.dir/Output/USB/arm/usb_desc.c.obj
 .group         0x0000000000000000        0x8 CMakeFiles/kiibohd.dir/Output/USB/arm/usb_desc.c.obj
 .group         0x0000000000000000        0x8 CMakeFiles/kiibohd.dir/Output/USB/arm/usb_desc.c.obj
 .group         0x0000000000000000        0x8 CMakeFiles/kiibohd.dir/Output/USB/arm/usb_desc.c.obj
 .text          0x0000000000000000        0x0 CMakeFiles/kiibohd.dir/Output/USB/arm/usb_desc.c.obj
 .data          0x0000000000000000        0x0 CMakeFiles/kiibohd.dir/Output/USB/arm/usb_desc.c.obj
 .bss           0x0000000000000000        0x0 CMakeFiles/kiibohd.dir/Output/USB/arm/usb_desc.c.obj
 .debug_macro   0x0000000000000000      0xa54 CMakeFiles/kiibohd.dir/Output/USB/arm/usb_desc.c.obj
 .debug_macro   0x0000000000000000       0x22 CMakeFiles/kiibohd.dir/Output/USB/arm/usb_desc.c.obj
 .debug_macro   0x0000000000000000       0x87 CMakeFiles/kiibohd.dir/Output/USB/arm/usb_desc.c.obj
 .debug_macro   0x0000000000000000       0x51 CMakeFiles/kiibohd.dir/Output/USB/arm/usb_desc.c.obj
 .debug_macro   0x0000000000000000       0xef CMakeFiles/kiibohd.dir/Output/USB/arm/usb_desc.c.obj
 .debug_macro   0x0000000000000000       0x6a CMakeFiles/kiibohd.dir/Output/USB/arm/usb_desc.c.obj
 .debug_macro   0x0000000000000000      0x1df CMakeFiles/kiibohd.dir/Output/USB/arm/usb_desc.c.obj
 .debug_macro   0x0000000000000000      0x174 CMakeFiles/kiibohd.dir/Output/USB/arm/usb_desc.c.obj
 .debug_macro   0x0000000000000000       0xbe CMakeFiles/kiibohd.dir/Output/USB/arm/usb_desc.c.obj
 .debug_macro   0x0000000000000000       0x10 CMakeFiles/kiibohd.dir/Output/USB/arm/usb_desc.c.obj
 .debug_macro   0x0000000000000000      0x210 CMakeFiles/kiibohd.dir/Output/USB/arm/usb_desc.c.obj
 .debug_macro   0x0000000000000000      0x288 CMakeFiles/kiibohd.dir/Output/USB/arm/usb_desc.c.obj
 .group         0x0000000000000000        0x8 CMakeFiles/kiibohd.dir/Output/USB/arm/usb_dev.c.obj
 .group         0x0000000000000000        0x8 CMakeFiles/kiibohd.dir/Output/USB/arm/usb_dev.c.obj
 .group         0x0000000000000000        0x8 CMakeFiles/kiibohd.dir/Output/USB/arm/usb_dev.c.obj
 .group         0x0000000000000000        0x8 CMakeFiles/kiibohd.dir/Output/USB/arm/usb_dev.c.obj
 .group         0x0000000000000000        0x8 CMakeFiles/kiibohd.dir/Output/USB/arm/usb_dev.c.obj
 .group         0x0000000000000000        0x8 CMakeFiles/kiibohd.dir/Output/USB/arm/usb_dev.c.obj
 .group         0x0000000000000000        0x8 CMakeFiles/kiibohd.dir/Output/USB/arm/usb_dev.c.obj
 .group         0x0000000000000000        0x8 CMakeFiles/kiibohd.dir/Output/USB/arm/usb_dev.c.obj
 .group         0x0000000000000000        0x8 CMakeFiles/kiibohd.dir/Output/USB/arm/usb_dev.c.obj
 .group         0x0000000000000000        0x8 CMakeFiles/kiibohd.dir/Output/USB/arm/usb_dev.c.obj
 .group         0x0000000000000000        0x8 CMakeFiles/kiibohd.dir/Output/USB/arm/usb_dev.c.obj
 .group         0x0000000000000000        0x8 CMakeFiles/kiibohd.dir/Output/USB/arm/usb_dev.c.obj
 .group         0x0000000000000000        0x8 CMakeFiles/kiibohd.dir/Output/USB/arm/usb_dev.c.obj
 .group         0x0000000000000000        0x8 CMakeFiles/kiibohd.dir/Output/USB/arm/usb_dev.c.obj
 .group         0x0000000000000000        0x8 CMakeFiles/kiibohd.dir/Output/USB/arm/usb_dev.c.obj
 .group         0x0000000000000000        0x8 CMakeFiles/kiibohd.dir/Output/USB/arm/usb_dev.c.obj
 .group         0x0000000000000000        0x8 CMakeFiles/kiibohd.dir/Output/USB/arm/usb_dev.c.obj
 .group         0x0000000000000000        0x8 CMakeFiles/kiibohd.dir/Output/USB/arm/usb_dev.c.obj
 .group         0x0000000000000000        0x8 CMakeFiles/kiibohd.dir/Output/USB/arm/usb_dev.c.obj
 .group         0x0000000000000000        0x8 CMakeFiles/kiibohd.dir/Output/USB/arm/usb_dev.c.obj
 .group         0x0000000000000000        0x8 CMakeFiles/kiibohd.dir/Output/USB/arm/usb_dev.c.obj
 .group         0x0000000000000000        0x8 CMakeFiles/kiibohd.dir/Output/USB/arm/usb_dev.c.obj
 .group         0x0000000000000000        0x8 CMakeFiles/kiibohd.dir/Output/USB/arm/usb_dev.c.obj
 .text          0x0000000000000000        0x0 CMakeFiles/kiibohd.dir/Output/USB/arm/usb_dev.c.obj
 .data          0x0000000000000000        0x0 CMakeFiles/kiibohd.dir/Output/USB/arm/usb_dev.c.obj
 .bss           0x0000000000000000        0x0 CMakeFiles/kiibohd.dir/Output/USB/arm/usb_dev.c.obj
 .text.usb_tx_byte_count
                0x0000000000000000       0x28 CMakeFiles/kiibohd.dir/Output/USB/arm/usb_dev.c.obj
 .text.usb_reinit
                0x0000000000000000       0x24 CMakeFiles/kiibohd.dir/Output/USB/arm/usb_dev.c.obj
 .text.usb_configured
                0x0000000000000000        0xc CMakeFiles/kiibohd.dir/Output/USB/arm/usb_dev.c.obj
 .debug_macro   0x0000000000000000      0xa54 CMakeFiles/kiibohd.dir/Output/USB/arm/usb_dev.c.obj
 .debug_macro   0x0000000000000000       0x22 CMakeFiles/kiibohd.dir/Output/USB/arm/usb_dev.c.obj
 .debug_macro   0x0000000000000000       0x1c CMakeFiles/kiibohd.dir/Output/USB/arm/usb_dev.c.obj
 .debug_macro   0x0000000000000000       0x22 CMakeFiles/kiibohd.dir/Output/USB/arm/usb_dev.c.obj
 .debug_macro   0x0000000000000000       0x87 CMakeFiles/kiibohd.dir/Output/USB/arm/usb_dev.c.obj
 .debug_macro   0x0000000000000000       0x51 CMakeFiles/kiibohd.dir/Output/USB/arm/usb_dev.c.obj
 .debug_macro   0x0000000000000000       0xef CMakeFiles/kiibohd.dir/Output/USB/arm/usb_dev.c.obj
 .debug_macro   0x0000000000000000       0x6a CMakeFiles/kiibohd.dir/Output/USB/arm/usb_dev.c.obj
 .debug_macro   0x0000000000000000      0x1df CMakeFiles/kiibohd.dir/Output/USB/arm/usb_dev.c.obj
 .debug_macro   0x0000000000000000     0x5add CMakeFiles/kiibohd.dir/Output/USB/arm/usb_dev.c.obj
 .debug_macro   0x0000000000000000       0x10 CMakeFiles/kiibohd.dir/Output/USB/arm/usb_dev.c.obj
 .debug_macro   0x0000000000000000      0x288 CMakeFiles/kiibohd.dir/Output/USB/arm/usb_dev.c.obj
 .debug_macro   0x0000000000000000       0xbe CMakeFiles/kiibohd.dir/Output/USB/arm/usb_dev.c.obj
 .debug_macro   0x0000000000000000       0x10 CMakeFiles/kiibohd.dir/Output/USB/arm/usb_dev.c.obj
 .debug_macro   0x0000000000000000       0x9a CMakeFiles/kiibohd.dir/Output/USB/arm/usb_dev.c.obj
 .debug_macro   0x0000000000000000      0x174 CMakeFiles/kiibohd.dir/Output/USB/arm/usb_dev.c.obj
 .debug_macro   0x0000000000000000      0x210 CMakeFiles/kiibohd.dir/Output/USB/arm/usb_dev.c.obj
 .debug_macro   0x0000000000000000       0x52 CMakeFiles/kiibohd.dir/Output/USB/arm/usb_dev.c.obj
 .debug_macro   0x0000000000000000       0x35 CMakeFiles/kiibohd.dir/Output/USB/arm/usb_dev.c.obj
 .debug_macro   0x0000000000000000       0xa2 CMakeFiles/kiibohd.dir/Output/USB/arm/usb_dev.c.obj
 .debug_macro   0x0000000000000000       0x35 CMakeFiles/kiibohd.dir/Output/USB/arm/usb_dev.c.obj
 .debug_macro   0x0000000000000000      0x460 CMakeFiles/kiibohd.dir/Output/USB/arm/usb_dev.c.obj
 .debug_macro   0x0000000000000000       0x22 CMakeFiles/kiibohd.dir/Output/USB/arm/usb_dev.c.obj
 .group         0x0000000000000000        0x8 CMakeFiles/kiibohd.dir/Output/USB/arm/usb_joystick.c.obj
 .text          0x0000000000000000        0x0 CMakeFiles/kiibohd.dir/Output/USB/arm/usb_joystick.c.obj
 .data          0x0000000000000000        0x0 CMakeFiles/kiibohd.dir/Output/USB/arm/usb_joystick.c.obj
 .bss           0x0000000000000000        0x0 CMakeFiles/kiibohd.dir/Output/USB/arm/usb_joystick.c.obj
 .debug_info    0x0000000000000000       0x21 CMakeFiles/kiibohd.dir/Output/USB/arm/usb_joystick.c.obj
 .debug_abbrev  0x0000000000000000       0x13 CMakeFiles/kiibohd.dir/Output/USB/arm/usb_joystick.c.obj
 .debug_aranges
                0x0000000000000000       0x18 CMakeFiles/kiibohd.dir/Output/USB/arm/usb_joystick.c.obj
 .debug_macro   0x0000000000000000       0x11 CMakeFiles/kiibohd.dir/Output/USB/arm/usb_joystick.c.obj
 .debug_macro   0x0000000000000000      0xa54 CMakeFiles/kiibohd.dir/Output/USB/arm/usb_joystick.c.obj
 .debug_line    0x0000000000000000       0x59 CMakeFiles/kiibohd.dir/Output/USB/arm/usb_joystick.c.obj
 .debug_str     0x0000000000000000     0x2c79 CMakeFiles/kiibohd.dir/Output/USB/arm/usb_joystick.c.obj
 .comment       0x0000000000000000       0x1e CMakeFiles/kiibohd.dir/Output/USB/arm/usb_joystick.c.obj
 .ARM.attributes
                0x0000000000000000       0x33 CMakeFiles/kiibohd.dir/Output/USB/arm/usb_joystick.c.obj
 .group         0x0000000000000000        0x8 CMakeFiles/kiibohd.dir/Output/USB/arm/usb_keyboard.c.obj
 .group         0x0000000000000000        0x8 CMakeFiles/kiibohd.dir/Output/USB/arm/usb_keyboard.c.obj
 .group         0x0000000000000000        0x8 CMakeFiles/kiibohd.dir/Output/USB/arm/usb_keyboard.c.obj
 .group         0x0000000000000000        0x8 CMakeFiles/kiibohd.dir/Output/USB/arm/usb_keyboard.c.obj
 .group         0x0000000000000000        0x8 CMakeFiles/kiibohd.dir/Output/USB/arm/usb_keyboard.c.obj
 .group         0x0000000000000000        0x8 CMakeFiles/kiibohd.dir/Output/USB/arm/usb_keyboard.c.obj
 .group         0x0000000000000000        0x8 CMakeFiles/kiibohd.dir/Output/USB/arm/usb_keyboard.c.obj
 .group         0x0000000000000000        0x8 CMakeFiles/kiibohd.dir/Output/USB/arm/usb_keyboard.c.obj
 .group         0x0000000000000000        0x8 CMakeFiles/kiibohd.dir/Output/USB/arm/usb_keyboard.c.obj
 .group         0x0000000000000000        0x8 CMakeFiles/kiibohd.dir/Output/USB/arm/usb_keyboard.c.obj
 .group         0x0000000000000000        0x8 CMakeFiles/kiibohd.dir/Output/USB/arm/usb_keyboard.c.obj
 .group         0x0000000000000000        0x8 CMakeFiles/kiibohd.dir/Output/USB/arm/usb_keyboard.c.obj
 .group         0x0000000000000000        0x8 CMakeFiles/kiibohd.dir/Output/USB/arm/usb_keyboard.c.obj
 .group         0x0000000000000000        0x8 CMakeFiles/kiibohd.dir/Output/USB/arm/usb_keyboard.c.obj
 .group         0x0000000000000000        0x8 CMakeFiles/kiibohd.dir/Output/USB/arm/usb_keyboard.c.obj
 .group         0x0000000000000000        0x8 CMakeFiles/kiibohd.dir/Output/USB/arm/usb_keyboard.c.obj
 .group         0x0000000000000000        0x8 CMakeFiles/kiibohd.dir/Output/USB/arm/usb_keyboard.c.obj
 .group         0x0000000000000000        0x8 CMakeFiles/kiibohd.dir/Output/USB/arm/usb_keyboard.c.obj
 .group         0x0000000000000000        0x8 CMakeFiles/kiibohd.dir/Output/USB/arm/usb_keyboard.c.obj
 .group         0x0000000000000000        0x8 CMakeFiles/kiibohd.dir/Output/USB/arm/usb_keyboard.c.obj
 .group         0x0000000000000000        0x8 CMakeFiles/kiibohd.dir/Output/USB/arm/usb_keyboard.c.obj
 .group         0x0000000000000000        0x8 CMakeFiles/kiibohd.dir/Output/USB/arm/usb_keyboard.c.obj
 .group         0x0000000000000000        0x8 CMakeFiles/kiibohd.dir/Output/USB/arm/usb_keyboard.c.obj
 .group         0x0000000000000000        0x8 CMakeFiles/kiibohd.dir/Output/USB/arm/usb_keyboard.c.obj
 .group         0x0000000000000000        0x8 CMakeFiles/kiibohd.dir/Output/USB/arm/usb_keyboard.c.obj
 .group         0x0000000000000000        0x8 CMakeFiles/kiibohd.dir/Output/USB/arm/usb_keyboard.c.obj
 .group         0x0000000000000000        0x8 CMakeFiles/kiibohd.dir/Output/USB/arm/usb_keyboard.c.obj
 .group         0x0000000000000000        0x8 CMakeFiles/kiibohd.dir/Output/USB/arm/usb_keyboard.c.obj
 .group         0x0000000000000000        0x8 CMakeFiles/kiibohd.dir/Output/USB/arm/usb_keyboard.c.obj
 .group         0x0000000000000000        0x8 CMakeFiles/kiibohd.dir/Output/USB/arm/usb_keyboard.c.obj
 .text          0x0000000000000000        0x0 CMakeFiles/kiibohd.dir/Output/USB/arm/usb_keyboard.c.obj
 .data          0x0000000000000000        0x0 CMakeFiles/kiibohd.dir/Output/USB/arm/usb_keyboard.c.obj
 .bss           0x0000000000000000        0x0 CMakeFiles/kiibohd.dir/Output/USB/arm/usb_keyboard.c.obj
 .debug_macro   0x0000000000000000      0xa54 CMakeFiles/kiibohd.dir/Output/USB/arm/usb_keyboard.c.obj
 .debug_macro   0x0000000000000000      0x288 CMakeFiles/kiibohd.dir/Output/USB/arm/usb_keyboard.c.obj
 .debug_macro   0x0000000000000000       0x22 CMakeFiles/kiibohd.dir/Output/USB/arm/usb_keyboard.c.obj
 .debug_macro   0x0000000000000000       0x35 CMakeFiles/kiibohd.dir/Output/USB/arm/usb_keyboard.c.obj
 .debug_macro   0x0000000000000000      0x174 CMakeFiles/kiibohd.dir/Output/USB/arm/usb_keyboard.c.obj
 .debug_macro   0x0000000000000000       0x35 CMakeFiles/kiibohd.dir/Output/USB/arm/usb_keyboard.c.obj
 .debug_macro   0x0000000000000000       0x22 CMakeFiles/kiibohd.dir/Output/USB/arm/usb_keyboard.c.obj
 .debug_macro   0x0000000000000000       0x16 CMakeFiles/kiibohd.dir/Output/USB/arm/usb_keyboard.c.obj
 .debug_macro   0x0000000000000000       0xef CMakeFiles/kiibohd.dir/Output/USB/arm/usb_keyboard.c.obj
 .debug_macro   0x0000000000000000       0x6a CMakeFiles/kiibohd.dir/Output/USB/arm/usb_keyboard.c.obj
 .debug_macro   0x0000000000000000      0x1df CMakeFiles/kiibohd.dir/Output/USB/arm/usb_keyboard.c.obj
 .debug_macro   0x0000000000000000     0x5add CMakeFiles/kiibohd.dir/Output/USB/arm/usb_keyboard.c.obj
 .debug_macro   0x0000000000000000       0x10 CMakeFiles/kiibohd.dir/Output/USB/arm/usb_keyboard.c.obj
 .debug_macro   0x0000000000000000       0xbe CMakeFiles/kiibohd.dir/Output/USB/arm/usb_keyboard.c.obj
 .debug_macro   0x0000000000000000       0x10 CMakeFiles/kiibohd.dir/Output/USB/arm/usb_keyboard.c.obj
 .debug_macro   0x0000000000000000       0x9a CMakeFiles/kiibohd.dir/Output/USB/arm/usb_keyboard.c.obj
 .debug_macro   0x0000000000000000      0x210 CMakeFiles/kiibohd.dir/Output/USB/arm/usb_keyboard.c.obj
 .debug_macro   0x0000000000000000      0x460 CMakeFiles/kiibohd.dir/Output/USB/arm/usb_keyboard.c.obj
 .group         0x0000000000000000        0x8 CMakeFiles/kiibohd.dir/Output/USB/arm/usb_mem.c.obj
 .group         0x0000000000000000        0x8 CMakeFiles/kiibohd.dir/Output/USB/arm/usb_mem.c.obj
 .group         0x0000000000000000        0x8 CMakeFiles/kiibohd.dir/Output/USB/arm/usb_mem.c.obj
 .group         0x0000000000000000        0x8 CMakeFiles/kiibohd.dir/Output/USB/arm/usb_mem.c.obj
 .group         0x0000000000000000        0x8 CMakeFiles/kiibohd.dir/Output/USB/arm/usb_mem.c.obj
 .group         0x0000000000000000        0x8 CMakeFiles/kiibohd.dir/Output/USB/arm/usb_mem.c.obj
 .group         0x0000000000000000        0x8 CMakeFiles/kiibohd.dir/Output/USB/arm/usb_mem.c.obj
 .group         0x0000000000000000        0x8 CMakeFiles/kiibohd.dir/Output/USB/arm/usb_mem.c.obj
 .group         0x0000000000000000        0x8 CMakeFiles/kiibohd.dir/Output/USB/arm/usb_mem.c.obj
 .group         0x0000000000000000        0x8 CMakeFiles/kiibohd.dir/Output/USB/arm/usb_mem.c.obj
 .group         0x0000000000000000        0x8 CMakeFiles/kiibohd.dir/Output/USB/arm/usb_mem.c.obj
 .group         0x0000000000000000        0x8 CMakeFiles/kiibohd.dir/Output/USB/arm/usb_mem.c.obj
 .group         0x0000000000000000        0x8 CMakeFiles/kiibohd.dir/Output/USB/arm/usb_mem.c.obj
 .group         0x0000000000000000        0x8 CMakeFiles/kiibohd.dir/Output/USB/arm/usb_mem.c.obj
 .group         0x0000000000000000        0x8 CMakeFiles/kiibohd.dir/Output/USB/arm/usb_mem.c.obj
 .text          0x0000000000000000        0x0 CMakeFiles/kiibohd.dir/Output/USB/arm/usb_mem.c.obj
 .data          0x0000000000000000        0x0 CMakeFiles/kiibohd.dir/Output/USB/arm/usb_mem.c.obj
 .bss           0x0000000000000000        0x0 CMakeFiles/kiibohd.dir/Output/USB/arm/usb_mem.c.obj
 .debug_macro   0x0000000000000000      0xa54 CMakeFiles/kiibohd.dir/Output/USB/arm/usb_mem.c.obj
 .debug_macro   0x0000000000000000       0x22 CMakeFiles/kiibohd.dir/Output/USB/arm/usb_mem.c.obj
 .debug_macro   0x0000000000000000       0x1c CMakeFiles/kiibohd.dir/Output/USB/arm/usb_mem.c.obj
 .debug_macro   0x0000000000000000       0x22 CMakeFiles/kiibohd.dir/Output/USB/arm/usb_mem.c.obj
 .debug_macro   0x0000000000000000       0x87 CMakeFiles/kiibohd.dir/Output/USB/arm/usb_mem.c.obj
 .debug_macro   0x0000000000000000       0x51 CMakeFiles/kiibohd.dir/Output/USB/arm/usb_mem.c.obj
 .debug_macro   0x0000000000000000       0xef CMakeFiles/kiibohd.dir/Output/USB/arm/usb_mem.c.obj
 .debug_macro   0x0000000000000000       0x6a CMakeFiles/kiibohd.dir/Output/USB/arm/usb_mem.c.obj
 .debug_macro   0x0000000000000000      0x1df CMakeFiles/kiibohd.dir/Output/USB/arm/usb_mem.c.obj
 .debug_macro   0x0000000000000000     0x5add CMakeFiles/kiibohd.dir/Output/USB/arm/usb_mem.c.obj
 .debug_macro   0x0000000000000000       0x10 CMakeFiles/kiibohd.dir/Output/USB/arm/usb_mem.c.obj
 .debug_macro   0x0000000000000000      0x174 CMakeFiles/kiibohd.dir/Output/USB/arm/usb_mem.c.obj
 .debug_macro   0x0000000000000000       0xbe CMakeFiles/kiibohd.dir/Output/USB/arm/usb_mem.c.obj
 .debug_macro   0x0000000000000000       0x10 CMakeFiles/kiibohd.dir/Output/USB/arm/usb_mem.c.obj
 .debug_macro   0x0000000000000000      0x210 CMakeFiles/kiibohd.dir/Output/USB/arm/usb_mem.c.obj
 .group         0x0000000000000000        0x8 CMakeFiles/kiibohd.dir/Output/USB/arm/usb_mouse.c.obj
 .group         0x0000000000000000        0x8 CMakeFiles/kiibohd.dir/Output/USB/arm/usb_mouse.c.obj
 .group         0x0000000000000000        0x8 CMakeFiles/kiibohd.dir/Output/USB/arm/usb_mouse.c.obj
 .group         0x0000000000000000        0x8 CMakeFiles/kiibohd.dir/Output/USB/arm/usb_mouse.c.obj
 .group         0x0000000000000000        0x8 CMakeFiles/kiibohd.dir/Output/USB/arm/usb_mouse.c.obj
 .group         0x0000000000000000        0x8 CMakeFiles/kiibohd.dir/Output/USB/arm/usb_mouse.c.obj
 .group         0x0000000000000000        0x8 CMakeFiles/kiibohd.dir/Output/USB/arm/usb_mouse.c.obj
 .group         0x0000000000000000        0x8 CMakeFiles/kiibohd.dir/Output/USB/arm/usb_mouse.c.obj
 .group         0x0000000000000000        0x8 CMakeFiles/kiibohd.dir/Output/USB/arm/usb_mouse.c.obj
 .group         0x0000000000000000        0x8 CMakeFiles/kiibohd.dir/Output/USB/arm/usb_mouse.c.obj
 .group         0x0000000000000000        0x8 CMakeFiles/kiibohd.dir/Output/USB/arm/usb_mouse.c.obj
 .group         0x0000000000000000        0x8 CMakeFiles/kiibohd.dir/Output/USB/arm/usb_mouse.c.obj
 .group         0x0000000000000000        0x8 CMakeFiles/kiibohd.dir/Output/USB/arm/usb_mouse.c.obj
 .group         0x0000000000000000        0x8 CMakeFiles/kiibohd.dir/Output/USB/arm/usb_mouse.c.obj
 .group         0x0000000000000000        0x8 CMakeFiles/kiibohd.dir/Output/USB/arm/usb_mouse.c.obj
 .group         0x0000000000000000        0x8 CMakeFiles/kiibohd.dir/Output/USB/arm/usb_mouse.c.obj
 .group         0x0000000000000000        0x8 CMakeFiles/kiibohd.dir/Output/USB/arm/usb_mouse.c.obj
 .group         0x0000000000000000        0x8 CMakeFiles/kiibohd.dir/Output/USB/arm/usb_mouse.c.obj
 .group         0x0000000000000000        0x8 CMakeFiles/kiibohd.dir/Output/USB/arm/usb_mouse.c.obj
 .group         0x0000000000000000        0x8 CMakeFiles/kiibohd.dir/Output/USB/arm/usb_mouse.c.obj
 .group         0x0000000000000000        0x8 CMakeFiles/kiibohd.dir/Output/USB/arm/usb_mouse.c.obj
 .group         0x0000000000000000        0x8 CMakeFiles/kiibohd.dir/Output/USB/arm/usb_mouse.c.obj
 .group         0x0000000000000000        0x8 CMakeFiles/kiibohd.dir/Output/USB/arm/usb_mouse.c.obj
 .group         0x0000000000000000        0x8 CMakeFiles/kiibohd.dir/Output/USB/arm/usb_mouse.c.obj
 .group         0x0000000000000000        0x8 CMakeFiles/kiibohd.dir/Output/USB/arm/usb_mouse.c.obj
 .group         0x0000000000000000        0x8 CMakeFiles/kiibohd.dir/Output/USB/arm/usb_mouse.c.obj
 .group         0x0000000000000000        0x8 CMakeFiles/kiibohd.dir/Output/USB/arm/usb_mouse.c.obj
 .group         0x0000000000000000        0x8 CMakeFiles/kiibohd.dir/Output/USB/arm/usb_mouse.c.obj
 .group         0x0000000000000000        0x8 CMakeFiles/kiibohd.dir/Output/USB/arm/usb_mouse.c.obj
 .group         0x0000000000000000        0x8 CMakeFiles/kiibohd.dir/Output/USB/arm/usb_mouse.c.obj
 .text          0x0000000000000000        0x0 CMakeFiles/kiibohd.dir/Output/USB/arm/usb_mouse.c.obj
 .data          0x0000000000000000        0x0 CMakeFiles/kiibohd.dir/Output/USB/arm/usb_mouse.c.obj
 .bss           0x0000000000000000        0x0 CMakeFiles/kiibohd.dir/Output/USB/arm/usb_mouse.c.obj
 .text.usb_mouse_move
                0x0000000000000000       0xac CMakeFiles/kiibohd.dir/Output/USB/arm/usb_mouse.c.obj
 .text.usb_mouse_position
                0x0000000000000000       0xe8 CMakeFiles/kiibohd.dir/Output/USB/arm/usb_mouse.c.obj
 .text.usb_mouse_screen_size
                0x0000000000000000       0xc0 CMakeFiles/kiibohd.dir/Output/USB/arm/usb_mouse.c.obj
 .bss.usb_mouse_buttons_state
                0x0000000000000000        0x1 CMakeFiles/kiibohd.dir/Output/USB/arm/usb_mouse.c.obj
 .data.usb_mouse_offset_x
                0x0000000000000000        0x4 CMakeFiles/kiibohd.dir/Output/USB/arm/usb_mouse.c.obj
 .data.usb_mouse_offset_y
                0x0000000000000000        0x4 CMakeFiles/kiibohd.dir/Output/USB/arm/usb_mouse.c.obj
 .data.usb_mouse_position_x
                0x0000000000000000        0x2 CMakeFiles/kiibohd.dir/Output/USB/arm/usb_mouse.c.obj
 .data.usb_mouse_position_y
                0x0000000000000000        0x2 CMakeFiles/kiibohd.dir/Output/USB/arm/usb_mouse.c.obj
 .data.usb_mouse_resolution_x
                0x0000000000000000        0x2 CMakeFiles/kiibohd.dir/Output/USB/arm/usb_mouse.c.obj
 .data.usb_mouse_resolution_y
                0x0000000000000000        0x2 CMakeFiles/kiibohd.dir/Output/USB/arm/usb_mouse.c.obj
 .data.usb_mouse_scale_x
                0x0000000000000000        0x4 CMakeFiles/kiibohd.dir/Output/USB/arm/usb_mouse.c.obj
 .data.usb_mouse_scale_y
                0x0000000000000000        0x4 CMakeFiles/kiibohd.dir/Output/USB/arm/usb_mouse.c.obj
 .debug_macro   0x0000000000000000      0xa54 CMakeFiles/kiibohd.dir/Output/USB/arm/usb_mouse.c.obj
 .debug_macro   0x0000000000000000      0x288 CMakeFiles/kiibohd.dir/Output/USB/arm/usb_mouse.c.obj
 .debug_macro   0x0000000000000000       0x22 CMakeFiles/kiibohd.dir/Output/USB/arm/usb_mouse.c.obj
 .debug_macro   0x0000000000000000       0x4c CMakeFiles/kiibohd.dir/Output/USB/arm/usb_mouse.c.obj
 .debug_macro   0x0000000000000000       0x8d CMakeFiles/kiibohd.dir/Output/USB/arm/usb_mouse.c.obj
 .debug_macro   0x0000000000000000       0x35 CMakeFiles/kiibohd.dir/Output/USB/arm/usb_mouse.c.obj
 .debug_macro   0x0000000000000000       0x9c CMakeFiles/kiibohd.dir/Output/USB/arm/usb_mouse.c.obj
 .debug_macro   0x0000000000000000      0x174 CMakeFiles/kiibohd.dir/Output/USB/arm/usb_mouse.c.obj
 .debug_macro   0x0000000000000000       0x57 CMakeFiles/kiibohd.dir/Output/USB/arm/usb_mouse.c.obj
 .debug_macro   0x0000000000000000       0x52 CMakeFiles/kiibohd.dir/Output/USB/arm/usb_mouse.c.obj
 .debug_macro   0x0000000000000000       0x1f CMakeFiles/kiibohd.dir/Output/USB/arm/usb_mouse.c.obj
 .debug_macro   0x0000000000000000       0x43 CMakeFiles/kiibohd.dir/Output/USB/arm/usb_mouse.c.obj
 .debug_macro   0x0000000000000000       0x20 CMakeFiles/kiibohd.dir/Output/USB/arm/usb_mouse.c.obj
 .debug_macro   0x0000000000000000      0x18e CMakeFiles/kiibohd.dir/Output/USB/arm/usb_mouse.c.obj
 .debug_macro   0x0000000000000000      0x330 CMakeFiles/kiibohd.dir/Output/USB/arm/usb_mouse.c.obj
 .debug_macro   0x0000000000000000       0x10 CMakeFiles/kiibohd.dir/Output/USB/arm/usb_mouse.c.obj
 .debug_macro   0x0000000000000000       0x35 CMakeFiles/kiibohd.dir/Output/USB/arm/usb_mouse.c.obj
 .debug_macro   0x0000000000000000       0x22 CMakeFiles/kiibohd.dir/Output/USB/arm/usb_mouse.c.obj
 .debug_macro   0x0000000000000000       0x16 CMakeFiles/kiibohd.dir/Output/USB/arm/usb_mouse.c.obj
 .debug_macro   0x0000000000000000       0xef CMakeFiles/kiibohd.dir/Output/USB/arm/usb_mouse.c.obj
 .debug_macro   0x0000000000000000       0x6a CMakeFiles/kiibohd.dir/Output/USB/arm/usb_mouse.c.obj
 .debug_macro   0x0000000000000000      0x1df CMakeFiles/kiibohd.dir/Output/USB/arm/usb_mouse.c.obj
 .debug_macro   0x0000000000000000     0x5add CMakeFiles/kiibohd.dir/Output/USB/arm/usb_mouse.c.obj
 .debug_macro   0x0000000000000000       0x10 CMakeFiles/kiibohd.dir/Output/USB/arm/usb_mouse.c.obj
 .debug_macro   0x0000000000000000       0xbe CMakeFiles/kiibohd.dir/Output/USB/arm/usb_mouse.c.obj
 .debug_macro   0x0000000000000000       0x10 CMakeFiles/kiibohd.dir/Output/USB/arm/usb_mouse.c.obj
 .debug_macro   0x0000000000000000       0x9a CMakeFiles/kiibohd.dir/Output/USB/arm/usb_mouse.c.obj
 .debug_macro   0x0000000000000000      0x210 CMakeFiles/kiibohd.dir/Output/USB/arm/usb_mouse.c.obj
 .debug_macro   0x0000000000000000       0x10 CMakeFiles/kiibohd.dir/Output/USB/arm/usb_mouse.c.obj
 .debug_macro   0x0000000000000000      0x460 CMakeFiles/kiibohd.dir/Output/USB/arm/usb_mouse.c.obj
 .group         0x0000000000000000        0x8 CMakeFiles/kiibohd.dir/Output/USB/arm/usb_rawio.c.obj
 .group         0x0000000000000000        0x8 CMakeFiles/kiibohd.dir/Output/USB/arm/usb_rawio.c.obj
 .group         0x0000000000000000        0x8 CMakeFiles/kiibohd.dir/Output/USB/arm/usb_rawio.c.obj
 .group         0x0000000000000000        0x8 CMakeFiles/kiibohd.dir/Output/USB/arm/usb_rawio.c.obj
 .group         0x0000000000000000        0x8 CMakeFiles/kiibohd.dir/Output/USB/arm/usb_rawio.c.obj
 .group         0x0000000000000000        0x8 CMakeFiles/kiibohd.dir/Output/USB/arm/usb_rawio.c.obj
 .group         0x0000000000000000        0x8 CMakeFiles/kiibohd.dir/Output/USB/arm/usb_rawio.c.obj
 .group         0x0000000000000000        0x8 CMakeFiles/kiibohd.dir/Output/USB/arm/usb_rawio.c.obj
 .group         0x0000000000000000        0x8 CMakeFiles/kiibohd.dir/Output/USB/arm/usb_rawio.c.obj
 .group         0x0000000000000000        0x8 CMakeFiles/kiibohd.dir/Output/USB/arm/usb_rawio.c.obj
 .group         0x0000000000000000        0x8 CMakeFiles/kiibohd.dir/Output/USB/arm/usb_rawio.c.obj
 .group         0x0000000000000000        0x8 CMakeFiles/kiibohd.dir/Output/USB/arm/usb_rawio.c.obj
 .group         0x0000000000000000        0x8 CMakeFiles/kiibohd.dir/Output/USB/arm/usb_rawio.c.obj
 .group         0x0000000000000000        0x8 CMakeFiles/kiibohd.dir/Output/USB/arm/usb_rawio.c.obj
 .group         0x0000000000000000        0x8 CMakeFiles/kiibohd.dir/Output/USB/arm/usb_rawio.c.obj
 .group         0x0000000000000000        0x8 CMakeFiles/kiibohd.dir/Output/USB/arm/usb_rawio.c.obj
 .group         0x0000000000000000        0x8 CMakeFiles/kiibohd.dir/Output/USB/arm/usb_rawio.c.obj
 .group         0x0000000000000000        0x8 CMakeFiles/kiibohd.dir/Output/USB/arm/usb_rawio.c.obj
 .group         0x0000000000000000        0x8 CMakeFiles/kiibohd.dir/Output/USB/arm/usb_rawio.c.obj
 .group         0x0000000000000000        0x8 CMakeFiles/kiibohd.dir/Output/USB/arm/usb_rawio.c.obj
 .group         0x0000000000000000        0x8 CMakeFiles/kiibohd.dir/Output/USB/arm/usb_rawio.c.obj
 .group         0x0000000000000000        0x8 CMakeFiles/kiibohd.dir/Output/USB/arm/usb_rawio.c.obj
 .group         0x0000000000000000        0x8 CMakeFiles/kiibohd.dir/Output/USB/arm/usb_rawio.c.obj
 .group         0x0000000000000000        0x8 CMakeFiles/kiibohd.dir/Output/USB/arm/usb_rawio.c.obj
 .group         0x0000000000000000        0x8 CMakeFiles/kiibohd.dir/Output/USB/arm/usb_rawio.c.obj
 .group         0x0000000000000000        0x8 CMakeFiles/kiibohd.dir/Output/USB/arm/usb_rawio.c.obj
 .group         0x0000000000000000        0x8 CMakeFiles/kiibohd.dir/Output/USB/arm/usb_rawio.c.obj
 .group         0x0000000000000000        0x8 CMakeFiles/kiibohd.dir/Output/USB/arm/usb_rawio.c.obj
 .text          0x0000000000000000        0x0 CMakeFiles/kiibohd.dir/Output/USB/arm/usb_rawio.c.obj
 .data          0x0000000000000000        0x0 CMakeFiles/kiibohd.dir/Output/USB/arm/usb_rawio.c.obj
 .bss           0x0000000000000000        0x0 CMakeFiles/kiibohd.dir/Output/USB/arm/usb_rawio.c.obj
 .debug_macro   0x0000000000000000      0xa54 CMakeFiles/kiibohd.dir/Output/USB/arm/usb_rawio.c.obj
 .debug_macro   0x0000000000000000      0x288 CMakeFiles/kiibohd.dir/Output/USB/arm/usb_rawio.c.obj
 .debug_macro   0x0000000000000000       0x22 CMakeFiles/kiibohd.dir/Output/USB/arm/usb_rawio.c.obj
 .debug_macro   0x0000000000000000       0x4c CMakeFiles/kiibohd.dir/Output/USB/arm/usb_rawio.c.obj
 .debug_macro   0x0000000000000000       0x8d CMakeFiles/kiibohd.dir/Output/USB/arm/usb_rawio.c.obj
 .debug_macro   0x0000000000000000       0x35 CMakeFiles/kiibohd.dir/Output/USB/arm/usb_rawio.c.obj
 .debug_macro   0x0000000000000000       0x9c CMakeFiles/kiibohd.dir/Output/USB/arm/usb_rawio.c.obj
 .debug_macro   0x0000000000000000      0x174 CMakeFiles/kiibohd.dir/Output/USB/arm/usb_rawio.c.obj
 .debug_macro   0x0000000000000000       0x57 CMakeFiles/kiibohd.dir/Output/USB/arm/usb_rawio.c.obj
 .debug_macro   0x0000000000000000       0x52 CMakeFiles/kiibohd.dir/Output/USB/arm/usb_rawio.c.obj
 .debug_macro   0x0000000000000000       0x1f CMakeFiles/kiibohd.dir/Output/USB/arm/usb_rawio.c.obj
 .debug_macro   0x0000000000000000       0x43 CMakeFiles/kiibohd.dir/Output/USB/arm/usb_rawio.c.obj
 .debug_macro   0x0000000000000000       0x20 CMakeFiles/kiibohd.dir/Output/USB/arm/usb_rawio.c.obj
 .debug_macro   0x0000000000000000      0x18e CMakeFiles/kiibohd.dir/Output/USB/arm/usb_rawio.c.obj
 .debug_macro   0x0000000000000000      0x330 CMakeFiles/kiibohd.dir/Output/USB/arm/usb_rawio.c.obj
 .debug_macro   0x0000000000000000       0x10 CMakeFiles/kiibohd.dir/Output/USB/arm/usb_rawio.c.obj
 .debug_macro   0x0000000000000000       0x35 CMakeFiles/kiibohd.dir/Output/USB/arm/usb_rawio.c.obj
 .debug_macro   0x0000000000000000       0x22 CMakeFiles/kiibohd.dir/Output/USB/arm/usb_rawio.c.obj
 .debug_macro   0x0000000000000000       0x16 CMakeFiles/kiibohd.dir/Output/USB/arm/usb_rawio.c.obj
 .debug_macro   0x0000000000000000       0xef CMakeFiles/kiibohd.dir/Output/USB/arm/usb_rawio.c.obj
 .debug_macro   0x0000000000000000       0x6a CMakeFiles/kiibohd.dir/Output/USB/arm/usb_rawio.c.obj
 .debug_macro   0x0000000000000000      0x1df CMakeFiles/kiibohd.dir/Output/USB/arm/usb_rawio.c.obj
 .debug_macro   0x0000000000000000     0x5add CMakeFiles/kiibohd.dir/Output/USB/arm/usb_rawio.c.obj
 .debug_macro   0x0000000000000000       0x10 CMakeFiles/kiibohd.dir/Output/USB/arm/usb_rawio.c.obj
 .debug_macro   0x0000000000000000       0xbe CMakeFiles/kiibohd.dir/Output/USB/arm/usb_rawio.c.obj
 .debug_macro   0x0000000000000000       0x10 CMakeFiles/kiibohd.dir/Output/USB/arm/usb_rawio.c.obj
 .debug_macro   0x0000000000000000       0x9a CMakeFiles/kiibohd.dir/Output/USB/arm/usb_rawio.c.obj
 .debug_macro   0x0000000000000000      0x210 CMakeFiles/kiibohd.dir/Output/USB/arm/usb_rawio.c.obj
 .group         0x0000000000000000        0x8 CMakeFiles/kiibohd.dir/Output/USB/arm/usb_serial.c.obj
 .group         0x0000000000000000        0x8 CMakeFiles/kiibohd.dir/Output/USB/arm/usb_serial.c.obj
 .group         0x0000000000000000        0x8 CMakeFiles/kiibohd.dir/Output/USB/arm/usb_serial.c.obj
 .group         0x0000000000000000        0x8 CMakeFiles/kiibohd.dir/Output/USB/arm/usb_serial.c.obj
 .group         0x0000000000000000        0x8 CMakeFiles/kiibohd.dir/Output/USB/arm/usb_serial.c.obj
 .group         0x0000000000000000        0x8 CMakeFiles/kiibohd.dir/Output/USB/arm/usb_serial.c.obj
 .group         0x0000000000000000        0x8 CMakeFiles/kiibohd.dir/Output/USB/arm/usb_serial.c.obj
 .group         0x0000000000000000        0x8 CMakeFiles/kiibohd.dir/Output/USB/arm/usb_serial.c.obj
 .group         0x0000000000000000        0x8 CMakeFiles/kiibohd.dir/Output/USB/arm/usb_serial.c.obj
 .group         0x0000000000000000        0x8 CMakeFiles/kiibohd.dir/Output/USB/arm/usb_serial.c.obj
 .group         0x0000000000000000        0x8 CMakeFiles/kiibohd.dir/Output/USB/arm/usb_serial.c.obj
 .group         0x0000000000000000        0x8 CMakeFiles/kiibohd.dir/Output/USB/arm/usb_serial.c.obj
 .group         0x0000000000000000        0x8 CMakeFiles/kiibohd.dir/Output/USB/arm/usb_serial.c.obj
 .group         0x0000000000000000        0x8 CMakeFiles/kiibohd.dir/Output/USB/arm/usb_serial.c.obj
 .group         0x0000000000000000        0x8 CMakeFiles/kiibohd.dir/Output/USB/arm/usb_serial.c.obj
 .group         0x0000000000000000        0x8 CMakeFiles/kiibohd.dir/Output/USB/arm/usb_serial.c.obj
 .group         0x0000000000000000        0x8 CMakeFiles/kiibohd.dir/Output/USB/arm/usb_serial.c.obj
 .group         0x0000000000000000        0x8 CMakeFiles/kiibohd.dir/Output/USB/arm/usb_serial.c.obj
 .group         0x0000000000000000        0x8 CMakeFiles/kiibohd.dir/Output/USB/arm/usb_serial.c.obj
 .group         0x0000000000000000        0x8 CMakeFiles/kiibohd.dir/Output/USB/arm/usb_serial.c.obj
 .group         0x0000000000000000        0x8 CMakeFiles/kiibohd.dir/Output/USB/arm/usb_serial.c.obj
 .group         0x0000000000000000        0x8 CMakeFiles/kiibohd.dir/Output/USB/arm/usb_serial.c.obj
 .group         0x0000000000000000        0x8 CMakeFiles/kiibohd.dir/Output/USB/arm/usb_serial.c.obj
 .group         0x0000000000000000        0x8 CMakeFiles/kiibohd.dir/Output/USB/arm/usb_serial.c.obj
 .group         0x0000000000000000        0x8 CMakeFiles/kiibohd.dir/Output/USB/arm/usb_serial.c.obj
 .group         0x0000000000000000        0x8 CMakeFiles/kiibohd.dir/Output/USB/arm/usb_serial.c.obj
 .group         0x0000000000000000        0x8 CMakeFiles/kiibohd.dir/Output/USB/arm/usb_serial.c.obj
 .group         0x0000000000000000        0x8 CMakeFiles/kiibohd.dir/Output/USB/arm/usb_serial.c.obj
 .group         0x0000000000000000        0x8 CMakeFiles/kiibohd.dir/Output/USB/arm/usb_serial.c.obj
 .group         0x0000000000000000        0x8 CMakeFiles/kiibohd.dir/Output/USB/arm/usb_serial.c.obj
 .text          0x0000000000000000        0x0 CMakeFiles/kiibohd.dir/Output/USB/arm/usb_serial.c.obj
 .data          0x0000000000000000        0x0 CMakeFiles/kiibohd.dir/Output/USB/arm/usb_serial.c.obj
 .bss           0x0000000000000000        0x0 CMakeFiles/kiibohd.dir/Output/USB/arm/usb_serial.c.obj
 .text.usb_serial_peekchar
                0x0000000000000000       0x38 CMakeFiles/kiibohd.dir/Output/USB/arm/usb_serial.c.obj
 .text.usb_serial_read
                0x0000000000000000       0x88 CMakeFiles/kiibohd.dir/Output/USB/arm/usb_serial.c.obj
 .text.usb_serial_flush_input
                0x0000000000000000       0x30 CMakeFiles/kiibohd.dir/Output/USB/arm/usb_serial.c.obj
 .text.usb_serial_putchar
                0x0000000000000000       0x16 CMakeFiles/kiibohd.dir/Output/USB/arm/usb_serial.c.obj
 .text.usb_serial_flush_output
                0x0000000000000000       0x5c CMakeFiles/kiibohd.dir/Output/USB/arm/usb_serial.c.obj
 .debug_macro   0x0000000000000000      0xa54 CMakeFiles/kiibohd.dir/Output/USB/arm/usb_serial.c.obj
 .debug_macro   0x0000000000000000      0x288 CMakeFiles/kiibohd.dir/Output/USB/arm/usb_serial.c.obj
 .debug_macro   0x0000000000000000       0x22 CMakeFiles/kiibohd.dir/Output/USB/arm/usb_serial.c.obj
 .debug_macro   0x0000000000000000       0x4c CMakeFiles/kiibohd.dir/Output/USB/arm/usb_serial.c.obj
 .debug_macro   0x0000000000000000       0x8d CMakeFiles/kiibohd.dir/Output/USB/arm/usb_serial.c.obj
 .debug_macro   0x0000000000000000       0x35 CMakeFiles/kiibohd.dir/Output/USB/arm/usb_serial.c.obj
 .debug_macro   0x0000000000000000       0x9c CMakeFiles/kiibohd.dir/Output/USB/arm/usb_serial.c.obj
 .debug_macro   0x0000000000000000      0x174 CMakeFiles/kiibohd.dir/Output/USB/arm/usb_serial.c.obj
 .debug_macro   0x0000000000000000       0x57 CMakeFiles/kiibohd.dir/Output/USB/arm/usb_serial.c.obj
 .debug_macro   0x0000000000000000       0x52 CMakeFiles/kiibohd.dir/Output/USB/arm/usb_serial.c.obj
 .debug_macro   0x0000000000000000       0x1f CMakeFiles/kiibohd.dir/Output/USB/arm/usb_serial.c.obj
 .debug_macro   0x0000000000000000       0x43 CMakeFiles/kiibohd.dir/Output/USB/arm/usb_serial.c.obj
 .debug_macro   0x0000000000000000       0x20 CMakeFiles/kiibohd.dir/Output/USB/arm/usb_serial.c.obj
 .debug_macro   0x0000000000000000      0x18e CMakeFiles/kiibohd.dir/Output/USB/arm/usb_serial.c.obj
 .debug_macro   0x0000000000000000      0x330 CMakeFiles/kiibohd.dir/Output/USB/arm/usb_serial.c.obj
 .debug_macro   0x0000000000000000       0x10 CMakeFiles/kiibohd.dir/Output/USB/arm/usb_serial.c.obj
 .debug_macro   0x0000000000000000       0x35 CMakeFiles/kiibohd.dir/Output/USB/arm/usb_serial.c.obj
 .debug_macro   0x0000000000000000       0x22 CMakeFiles/kiibohd.dir/Output/USB/arm/usb_serial.c.obj
 .debug_macro   0x0000000000000000       0x16 CMakeFiles/kiibohd.dir/Output/USB/arm/usb_serial.c.obj
 .debug_macro   0x0000000000000000       0xef CMakeFiles/kiibohd.dir/Output/USB/arm/usb_serial.c.obj
 .debug_macro   0x0000000000000000       0x6a CMakeFiles/kiibohd.dir/Output/USB/arm/usb_serial.c.obj
 .debug_macro   0x0000000000000000      0x1df CMakeFiles/kiibohd.dir/Output/USB/arm/usb_serial.c.obj
 .debug_macro   0x0000000000000000     0x5add CMakeFiles/kiibohd.dir/Output/USB/arm/usb_serial.c.obj
 .debug_macro   0x0000000000000000       0x10 CMakeFiles/kiibohd.dir/Output/USB/arm/usb_serial.c.obj
 .debug_macro   0x0000000000000000       0xbe CMakeFiles/kiibohd.dir/Output/USB/arm/usb_serial.c.obj
 .debug_macro   0x0000000000000000       0x10 CMakeFiles/kiibohd.dir/Output/USB/arm/usb_serial.c.obj
 .debug_macro   0x0000000000000000      0x210 CMakeFiles/kiibohd.dir/Output/USB/arm/usb_serial.c.obj
 .debug_macro   0x0000000000000000       0x10 CMakeFiles/kiibohd.dir/Output/USB/arm/usb_serial.c.obj
 .debug_macro   0x0000000000000000      0x460 CMakeFiles/kiibohd.dir/Output/USB/arm/usb_serial.c.obj
 .debug_macro   0x0000000000000000       0x22 CMakeFiles/kiibohd.dir/Output/USB/arm/usb_serial.c.obj
 .group         0x0000000000000000        0x8 CMakeFiles/kiibohd.dir/Debug/cli/cli.c.obj
 .group         0x0000000000000000        0x8 CMakeFiles/kiibohd.dir/Debug/cli/cli.c.obj
 .group         0x0000000000000000        0x8 CMakeFiles/kiibohd.dir/Debug/cli/cli.c.obj
 .group         0x0000000000000000        0x8 CMakeFiles/kiibohd.dir/Debug/cli/cli.c.obj
 .group         0x0000000000000000        0x8 CMakeFiles/kiibohd.dir/Debug/cli/cli.c.obj
 .group         0x0000000000000000        0x8 CMakeFiles/kiibohd.dir/Debug/cli/cli.c.obj
 .group         0x0000000000000000        0x8 CMakeFiles/kiibohd.dir/Debug/cli/cli.c.obj
 .group         0x0000000000000000        0x8 CMakeFiles/kiibohd.dir/Debug/cli/cli.c.obj
 .group         0x0000000000000000        0x8 CMakeFiles/kiibohd.dir/Debug/cli/cli.c.obj
 .group         0x0000000000000000        0x8 CMakeFiles/kiibohd.dir/Debug/cli/cli.c.obj
 .group         0x0000000000000000        0x8 CMakeFiles/kiibohd.dir/Debug/cli/cli.c.obj
 .group         0x0000000000000000        0x8 CMakeFiles/kiibohd.dir/Debug/cli/cli.c.obj
 .group         0x0000000000000000        0x8 CMakeFiles/kiibohd.dir/Debug/cli/cli.c.obj
 .group         0x0000000000000000        0x8 CMakeFiles/kiibohd.dir/Debug/cli/cli.c.obj
 .group         0x0000000000000000        0x8 CMakeFiles/kiibohd.dir/Debug/cli/cli.c.obj
 .text          0x0000000000000000        0x0 CMakeFiles/kiibohd.dir/Debug/cli/cli.c.obj
 .data          0x0000000000000000        0x0 CMakeFiles/kiibohd.dir/Debug/cli/cli.c.obj
 .bss           0x0000000000000000        0x0 CMakeFiles/kiibohd.dir/Debug/cli/cli.c.obj
 .debug_macro   0x0000000000000000      0xa54 CMakeFiles/kiibohd.dir/Debug/cli/cli.c.obj
 .debug_macro   0x0000000000000000       0x22 CMakeFiles/kiibohd.dir/Debug/cli/cli.c.obj
 .debug_macro   0x0000000000000000       0x22 CMakeFiles/kiibohd.dir/Debug/cli/cli.c.obj
 .debug_macro   0x0000000000000000       0x87 CMakeFiles/kiibohd.dir/Debug/cli/cli.c.obj
 .debug_macro   0x0000000000000000       0x51 CMakeFiles/kiibohd.dir/Debug/cli/cli.c.obj
 .debug_macro   0x0000000000000000       0xef CMakeFiles/kiibohd.dir/Debug/cli/cli.c.obj
 .debug_macro   0x0000000000000000       0x6a CMakeFiles/kiibohd.dir/Debug/cli/cli.c.obj
 .debug_macro   0x0000000000000000      0x1df CMakeFiles/kiibohd.dir/Debug/cli/cli.c.obj
 .debug_macro   0x0000000000000000     0x5af5 CMakeFiles/kiibohd.dir/Debug/cli/cli.c.obj
 .debug_macro   0x0000000000000000       0xbe CMakeFiles/kiibohd.dir/Debug/cli/cli.c.obj
 .debug_macro   0x0000000000000000       0x10 CMakeFiles/kiibohd.dir/Debug/cli/cli.c.obj
 .debug_macro   0x0000000000000000      0x288 CMakeFiles/kiibohd.dir/Debug/cli/cli.c.obj
 .debug_macro   0x0000000000000000       0x10 CMakeFiles/kiibohd.dir/Debug/cli/cli.c.obj
 .debug_macro   0x0000000000000000       0x9a CMakeFiles/kiibohd.dir/Debug/cli/cli.c.obj
 .debug_macro   0x0000000000000000       0x3a CMakeFiles/kiibohd.dir/Debug/cli/cli.c.obj
 .group         0x0000000000000000        0x8 CMakeFiles/kiibohd.dir/Debug/latency/latency.c.obj
 .group         0x0000000000000000        0x8 CMakeFiles/kiibohd.dir/Debug/latency/latency.c.obj
 .group         0x0000000000000000        0x8 CMakeFiles/kiibohd.dir/Debug/latency/latency.c.obj
 .group         0x0000000000000000        0x8 CMakeFiles/kiibohd.dir/Debug/latency/latency.c.obj
 .group         0x0000000000000000        0x8 CMakeFiles/kiibohd.dir/Debug/latency/latency.c.obj
 .group         0x0000000000000000        0x8 CMakeFiles/kiibohd.dir/Debug/latency/latency.c.obj
 .group         0x0000000000000000        0x8 CMakeFiles/kiibohd.dir/Debug/latency/latency.c.obj
 .group         0x0000000000000000        0x8 CMakeFiles/kiibohd.dir/Debug/latency/latency.c.obj
 .group         0x0000000000000000        0x8 CMakeFiles/kiibohd.dir/Debug/latency/latency.c.obj
 .group         0x0000000000000000        0x8 CMakeFiles/kiibohd.dir/Debug/latency/latency.c.obj
 .group         0x0000000000000000        0x8 CMakeFiles/kiibohd.dir/Debug/latency/latency.c.obj
 .group         0x0000000000000000        0x8 CMakeFiles/kiibohd.dir/Debug/latency/latency.c.obj
 .group         0x0000000000000000        0x8 CMakeFiles/kiibohd.dir/Debug/latency/latency.c.obj
 .group         0x0000000000000000        0x8 CMakeFiles/kiibohd.dir/Debug/latency/latency.c.obj
 .group         0x0000000000000000        0x8 CMakeFiles/kiibohd.dir/Debug/latency/latency.c.obj
 .group         0x0000000000000000        0x8 CMakeFiles/kiibohd.dir/Debug/latency/latency.c.obj
 .text          0x0000000000000000        0x0 CMakeFiles/kiibohd.dir/Debug/latency/latency.c.obj
 .data          0x0000000000000000        0x0 CMakeFiles/kiibohd.dir/Debug/latency/latency.c.obj
 .bss           0x0000000000000000        0x0 CMakeFiles/kiibohd.dir/Debug/latency/latency.c.obj
 .debug_macro   0x0000000000000000      0xa54 CMakeFiles/kiibohd.dir/Debug/latency/latency.c.obj
 .debug_macro   0x0000000000000000       0x22 CMakeFiles/kiibohd.dir/Debug/latency/latency.c.obj
 .debug_macro   0x0000000000000000       0x87 CMakeFiles/kiibohd.dir/Debug/latency/latency.c.obj
 .debug_macro   0x0000000000000000       0x51 CMakeFiles/kiibohd.dir/Debug/latency/latency.c.obj
 .debug_macro   0x0000000000000000       0xef CMakeFiles/kiibohd.dir/Debug/latency/latency.c.obj
 .debug_macro   0x0000000000000000       0x6a CMakeFiles/kiibohd.dir/Debug/latency/latency.c.obj
 .debug_macro   0x0000000000000000      0x1df CMakeFiles/kiibohd.dir/Debug/latency/latency.c.obj
 .debug_macro   0x0000000000000000      0x288 CMakeFiles/kiibohd.dir/Debug/latency/latency.c.obj
 .debug_macro   0x0000000000000000       0x22 CMakeFiles/kiibohd.dir/Debug/latency/latency.c.obj
 .debug_macro   0x0000000000000000       0xbe CMakeFiles/kiibohd.dir/Debug/latency/latency.c.obj
 .debug_macro   0x0000000000000000       0x10 CMakeFiles/kiibohd.dir/Debug/latency/latency.c.obj
 .debug_macro   0x0000000000000000       0x9a CMakeFiles/kiibohd.dir/Debug/latency/latency.c.obj
 .debug_macro   0x0000000000000000     0x1217 CMakeFiles/kiibohd.dir/Debug/latency/latency.c.obj
 .debug_macro   0x0000000000000000       0x6c CMakeFiles/kiibohd.dir/Debug/latency/latency.c.obj
 .debug_macro   0x0000000000000000     0x5af5 CMakeFiles/kiibohd.dir/Debug/latency/latency.c.obj
 .debug_macro   0x0000000000000000       0x10 CMakeFiles/kiibohd.dir/Debug/latency/latency.c.obj
 .group         0x0000000000000000        0x8 CMakeFiles/kiibohd.dir/Debug/led/led.c.obj
 .group         0x0000000000000000        0x8 CMakeFiles/kiibohd.dir/Debug/led/led.c.obj
 .group         0x0000000000000000        0x8 CMakeFiles/kiibohd.dir/Debug/led/led.c.obj
 .group         0x0000000000000000        0x8 CMakeFiles/kiibohd.dir/Debug/led/led.c.obj
 .group         0x0000000000000000        0x8 CMakeFiles/kiibohd.dir/Debug/led/led.c.obj
 .group         0x0000000000000000        0x8 CMakeFiles/kiibohd.dir/Debug/led/led.c.obj
 .group         0x0000000000000000        0x8 CMakeFiles/kiibohd.dir/Debug/led/led.c.obj
 .group         0x0000000000000000        0x8 CMakeFiles/kiibohd.dir/Debug/led/led.c.obj
 .group         0x0000000000000000        0x8 CMakeFiles/kiibohd.dir/Debug/led/led.c.obj
 .group         0x0000000000000000        0x8 CMakeFiles/kiibohd.dir/Debug/led/led.c.obj
 .group         0x0000000000000000        0x8 CMakeFiles/kiibohd.dir/Debug/led/led.c.obj
 .text          0x0000000000000000        0x0 CMakeFiles/kiibohd.dir/Debug/led/led.c.obj
 .data          0x0000000000000000        0x0 CMakeFiles/kiibohd.dir/Debug/led/led.c.obj
 .bss           0x0000000000000000        0x0 CMakeFiles/kiibohd.dir/Debug/led/led.c.obj
 .debug_macro   0x0000000000000000      0xa54 CMakeFiles/kiibohd.dir/Debug/led/led.c.obj
 .debug_macro   0x0000000000000000       0x22 CMakeFiles/kiibohd.dir/Debug/led/led.c.obj
 .debug_macro   0x0000000000000000       0x1c CMakeFiles/kiibohd.dir/Debug/led/led.c.obj
 .debug_macro   0x0000000000000000       0x22 CMakeFiles/kiibohd.dir/Debug/led/led.c.obj
 .debug_macro   0x0000000000000000       0x87 CMakeFiles/kiibohd.dir/Debug/led/led.c.obj
 .debug_macro   0x0000000000000000       0x51 CMakeFiles/kiibohd.dir/Debug/led/led.c.obj
 .debug_macro   0x0000000000000000       0xef CMakeFiles/kiibohd.dir/Debug/led/led.c.obj
 .debug_macro   0x0000000000000000       0x6a CMakeFiles/kiibohd.dir/Debug/led/led.c.obj
 .debug_macro   0x0000000000000000      0x1df CMakeFiles/kiibohd.dir/Debug/led/led.c.obj
 .debug_macro   0x0000000000000000     0x5add CMakeFiles/kiibohd.dir/Debug/led/led.c.obj
 .debug_macro   0x0000000000000000       0x10 CMakeFiles/kiibohd.dir/Debug/led/led.c.obj
 .group         0x0000000000000000        0x8 CMakeFiles/kiibohd.dir/Debug/print/print.c.obj
 .group         0x0000000000000000        0x8 CMakeFiles/kiibohd.dir/Debug/print/print.c.obj
 .group         0x0000000000000000        0x8 CMakeFiles/kiibohd.dir/Debug/print/print.c.obj
 .group         0x0000000000000000        0x8 CMakeFiles/kiibohd.dir/Debug/print/print.c.obj
 .group         0x0000000000000000        0x8 CMakeFiles/kiibohd.dir/Debug/print/print.c.obj
 .group         0x0000000000000000        0x8 CMakeFiles/kiibohd.dir/Debug/print/print.c.obj
 .group         0x0000000000000000        0x8 CMakeFiles/kiibohd.dir/Debug/print/print.c.obj
 .group         0x0000000000000000        0x8 CMakeFiles/kiibohd.dir/Debug/print/print.c.obj
 .group         0x0000000000000000        0x8 CMakeFiles/kiibohd.dir/Debug/print/print.c.obj
 .group         0x0000000000000000        0x8 CMakeFiles/kiibohd.dir/Debug/print/print.c.obj
 .group         0x0000000000000000        0x8 CMakeFiles/kiibohd.dir/Debug/print/print.c.obj
 .group         0x0000000000000000        0x8 CMakeFiles/kiibohd.dir/Debug/print/print.c.obj
 .group         0x0000000000000000        0x8 CMakeFiles/kiibohd.dir/Debug/print/print.c.obj
 .text          0x0000000000000000        0x0 CMakeFiles/kiibohd.dir/Debug/print/print.c.obj
 .data          0x0000000000000000        0x0 CMakeFiles/kiibohd.dir/Debug/print/print.c.obj
 .bss           0x0000000000000000        0x0 CMakeFiles/kiibohd.dir/Debug/print/print.c.obj
 .text.printChar
                0x0000000000000000        0x4 CMakeFiles/kiibohd.dir/Debug/print/print.c.obj
 .debug_macro   0x0000000000000000      0xa54 CMakeFiles/kiibohd.dir/Debug/print/print.c.obj
 .debug_macro   0x0000000000000000       0x22 CMakeFiles/kiibohd.dir/Debug/print/print.c.obj
 .debug_macro   0x0000000000000000       0x22 CMakeFiles/kiibohd.dir/Debug/print/print.c.obj
 .debug_macro   0x0000000000000000       0x87 CMakeFiles/kiibohd.dir/Debug/print/print.c.obj
 .debug_macro   0x0000000000000000       0x51 CMakeFiles/kiibohd.dir/Debug/print/print.c.obj
 .debug_macro   0x0000000000000000       0xef CMakeFiles/kiibohd.dir/Debug/print/print.c.obj
 .debug_macro   0x0000000000000000       0x6a CMakeFiles/kiibohd.dir/Debug/print/print.c.obj
 .debug_macro   0x0000000000000000      0x1df CMakeFiles/kiibohd.dir/Debug/print/print.c.obj
 .debug_macro   0x0000000000000000      0x288 CMakeFiles/kiibohd.dir/Debug/print/print.c.obj
 .debug_macro   0x0000000000000000       0xbe CMakeFiles/kiibohd.dir/Debug/print/print.c.obj
 .debug_macro   0x0000000000000000       0x10 CMakeFiles/kiibohd.dir/Debug/print/print.c.obj
 .debug_macro   0x0000000000000000       0x9a CMakeFiles/kiibohd.dir/Debug/print/print.c.obj

Memory Configuration

Name             Origin             Length             Attributes
FLASH            0x0000000000002000 0x000000000003e000 xr
RAM              0x000000001fff8000 0x0000000000010000 xrw
*default*        0x0000000000000000 0xffffffffffffffff

Linker script and memory map

LOAD CMakeFiles/kiibohd.dir/main.c.obj
LOAD CMakeFiles/kiibohd.dir/Lib/kinetis.c.obj
LOAD CMakeFiles/kiibohd.dir/Lib/delay.c.obj
LOAD CMakeFiles/kiibohd.dir/Lib/entropy.c.obj
LOAD CMakeFiles/kiibohd.dir/Lib/periodic.c.obj
LOAD CMakeFiles/kiibohd.dir/Lib/time.c.obj
LOAD CMakeFiles/kiibohd.dir/Scan/Devices/ISSILed/i2c.c.obj
LOAD CMakeFiles/kiibohd.dir/Scan/Devices/ISSILed/led_scan.c.obj
LOAD CMakeFiles/kiibohd.dir/Scan/Devices/MatrixARMPeriodic/matrix_scan.c.obj
LOAD CMakeFiles/kiibohd.dir/Scan/Devices/STLcd/lcd_scan.c.obj
LOAD CMakeFiles/kiibohd.dir/Scan/Devices/UARTConnect/connect_scan.c.obj
LOAD CMakeFiles/kiibohd.dir/Scan/Infinity_Ergodox/scan_loop.c.obj
LOAD CMakeFiles/kiibohd.dir/Macro/PartialMap/macro.c.obj
LOAD CMakeFiles/kiibohd.dir/Macro/PartialMap/result.c.obj
LOAD CMakeFiles/kiibohd.dir/Macro/PartialMap/trigger.c.obj
LOAD CMakeFiles/kiibohd.dir/Macro/PixelMap/pixel.c.obj
LOAD CMakeFiles/kiibohd.dir/generatedPixelmap.c.obj
LOAD CMakeFiles/kiibohd.dir/Output/HID-IO/hidio_com.c.obj
LOAD CMakeFiles/kiibohd.dir/Output/Interface/output_gen.c.obj
LOAD CMakeFiles/kiibohd.dir/Output/USB/output_com.c.obj
LOAD CMakeFiles/kiibohd.dir/Output/USB/output_usb.c.obj
LOAD CMakeFiles/kiibohd.dir/Output/USB/arm/usb_desc.c.obj
LOAD CMakeFiles/kiibohd.dir/Output/USB/arm/usb_dev.c.obj
LOAD CMakeFiles/kiibohd.dir/Output/USB/arm/usb_joystick.c.obj
LOAD CMakeFiles/kiibohd.dir/Output/USB/arm/usb_keyboard.c.obj
LOAD CMakeFiles/kiibohd.dir/Output/USB/arm/usb_mem.c.obj
LOAD CMakeFiles/kiibohd.dir/Output/USB/arm/usb_mouse.c.obj
LOAD CMakeFiles/kiibohd.dir/Output/USB/arm/usb_rawio.c.obj
LOAD CMakeFiles/kiibohd.dir/Output/USB/arm/usb_serial.c.obj
LOAD CMakeFiles/kiibohd.dir/Debug/cli/cli.c.obj
LOAD CMakeFiles/kiibohd.dir/Debug/latency/latency.c.obj
LOAD CMakeFiles/kiibohd.dir/Debug/led/led.c.obj
LOAD CMakeFiles/kiibohd.dir/Debug/print/print.c.obj
                0x0000000000002000                _app_rom = ORIGIN (FLASH)
                0x0000000000040000                _app_rom_end = (ORIGIN (FLASH) + LENGTH (FLASH))

.text           0x0000000000002000    0x1035c
                0x0000000000000000                . = 0x0
 *(.vectors)
 .vectors       0x0000000000002000      0x1bc CMakeFiles/kiibohd.dir/Lib/kinetis.c.obj
                0x0000000000002000                gVectors
 *(.startup*)
 .startup       0x00000000000021bc      0x174 CMakeFiles/kiibohd.dir/Lib/kinetis.c.obj
                0x00000000000021bc                ResetHandler
                0x0000000000000400                . = 0x400
 *fill*         0x0000000000002330       0xd0 
 *(.flashconfig)
 *(.text*)
 .text.main_periodic
                0x0000000000002400       0x38 CMakeFiles/kiibohd.dir/main.c.obj
                0x0000000000002400                main_periodic
 .text.startup.main
                0x0000000000002438       0x3c CMakeFiles/kiibohd.dir/main.c.obj
                0x0000000000002438                main
 .text.systick_default_isr
                0x0000000000002474       0x3c CMakeFiles/kiibohd.dir/Lib/kinetis.c.obj
                0x0000000000002474                systick_isr
                0x0000000000002474                systick_default_isr
 .text.fault_isr
                0x00000000000024b0       0x40 CMakeFiles/kiibohd.dir/Lib/kinetis.c.obj
                0x00000000000024b0                fault_isr
 .text.unused_isr
                0x00000000000024f0        0x6 CMakeFiles/kiibohd.dir/Lib/kinetis.c.obj
                0x00000000000024f0                adc0_isr
                0x00000000000024f0                dma_ch6_isr
                0x00000000000024f0                uart0_lon_isr
                0x00000000000024f0                dma_ch8_isr
                0x00000000000024f0                portcd_isr
                0x00000000000024f0                can1_rx_warn_isr
                0x00000000000024f0                dma_error_isr
                0x00000000000024f0                portd_isr
                0x00000000000024f0                enet_error_isr
                0x00000000000024f0                tpm1_isr
                0x00000000000024f0                porte_isr
                0x00000000000024f0                portb_isr
                0x00000000000024f0                spi1_isr
                0x00000000000024f0                uart3_status_isr
                0x00000000000024f0                mcm_isr
                0x00000000000024f0                uart1_status_isr
                0x00000000000024f0                randnum_isr
                0x00000000000024f0                dma_ch11_isr
                0x00000000000024f0                i2c2_isr
                0x00000000000024f0                pit1_isr
                0x00000000000024f0                dma_ch4_isr
                0x00000000000024f0                software_isr
                0x00000000000024f0                dma_ch7_isr
                0x00000000000024f0                can1_bus_off_isr
                0x00000000000024f0                ftm2_isr
                0x00000000000024f0                uart5_status_isr
                0x00000000000024f0                lpuart0_status_isr
                0x00000000000024f0                dma_ch9_isr
                0x00000000000024f0                pit2_isr
                0x00000000000024f0                i2c3_isr
                0x00000000000024f0                can1_error_isr
                0x00000000000024f0                can0_wakeup_isr
                0x00000000000024f0                flash_cmd_isr
                0x00000000000024f0                uart2_status_isr
                0x00000000000024f0                svcall_isr
                0x00000000000024f0                dma_ch15_isr
                0x00000000000024f0                uart1_error_isr
                0x00000000000024f0                usbhs_phy_isr
                0x00000000000024f0                unused_isr
                0x00000000000024f0                spi0_isr
                0x00000000000024f0                dma_ch3_isr
                0x00000000000024f0                flash_error_isr
                0x00000000000024f0                uart5_error_isr
                0x00000000000024f0                rtc_seconds_isr
                0x00000000000024f0                pdb_isr
                0x00000000000024f0                dac1_isr
                0x00000000000024f0                dma_ch14_isr
                0x00000000000024f0                rtc_alarm_isr
                0x00000000000024f0                dma_ch2_isr
                0x00000000000024f0                ftm1_isr
                0x00000000000024f0                dma_ch13_isr
                0x00000000000024f0                uart2_error_isr
                0x00000000000024f0                usb_charge_isr
                0x00000000000024f0                cmt_isr
                0x00000000000024f0                usbhs_isr
                0x00000000000024f0                ftm3_isr
                0x00000000000024f0                tsi0_isr
                0x00000000000024f0                spi2_isr
                0x00000000000024f0                can0_bus_off_isr
                0x00000000000024f0                uart3_error_isr
                0x00000000000024f0                porta_isr
                0x00000000000024f0                low_voltage_isr
                0x00000000000024f0                can0_error_isr
                0x00000000000024f0                dma_ch12_isr
                0x00000000000024f0                can1_wakeup_isr
                0x00000000000024f0                pit3_isr
                0x00000000000024f0                enet_rx_isr
                0x00000000000024f0                portc_isr
                0x00000000000024f0                debugmonitor_isr
                0x00000000000024f0                cmp1_isr
                0x00000000000024f0                ftm0_isr
                0x00000000000024f0                tpm0_isr
                0x00000000000024f0                i2s0_rx_isr
                0x00000000000024f0                uart4_error_isr
                0x00000000000024f0                can0_message_isr
                0x00000000000024f0                can1_message_isr
                0x00000000000024f0                sdhc_isr
                0x00000000000024f0                dma_ch10_isr
                0x00000000000024f0                uart0_error_isr
                0x00000000000024f0                i2s0_isr
                0x00000000000024f0                enet_timer_isr
                0x00000000000024f0                i2s0_tx_isr
                0x00000000000024f0                adc1_isr
                0x00000000000024f0                cmp0_isr
                0x00000000000024f0                pit_isr
                0x00000000000024f0                dac0_isr
                0x00000000000024f0                can1_tx_warn_isr
                0x00000000000024f0                uart0_status_isr
                0x00000000000024f0                mcg_isr
                0x00000000000024f0                dma_ch1_isr
                0x00000000000024f0                dma_ch5_isr
                0x00000000000024f0                can0_rx_warn_isr
                0x00000000000024f0                can0_tx_warn_isr
                0x00000000000024f0                uart4_status_isr
                0x00000000000024f0                cmp2_isr
                0x00000000000024f0                pendablesrvreq_isr
                0x00000000000024f0                wakeup_isr
                0x00000000000024f0                cmp3_isr
                0x00000000000024f0                tpm2_isr
                0x00000000000024f0                dma_ch0_isr
                0x00000000000024f0                enet_tx_isr
 *fill*         0x00000000000024f6        0x2 
 .text.nmi_default_isr
                0x00000000000024f8        0xc CMakeFiles/kiibohd.dir/Lib/kinetis.c.obj
                0x00000000000024f8                nmi_isr
                0x00000000000024f8                nmi_default_isr
 .text.hard_fault_default_isr
                0x0000000000002504       0x34 CMakeFiles/kiibohd.dir/Lib/kinetis.c.obj
                0x0000000000002504                hard_fault_isr
                0x0000000000002504                hard_fault_default_isr
 .text.memmanage_fault_default_isr
                0x0000000000002538       0x40 CMakeFiles/kiibohd.dir/Lib/kinetis.c.obj
                0x0000000000002538                memmanage_fault_default_isr
                0x0000000000002538                memmanage_fault_isr
 .text.bus_fault_default_isr
                0x0000000000002578       0x40 CMakeFiles/kiibohd.dir/Lib/kinetis.c.obj
                0x0000000000002578                bus_fault_isr
                0x0000000000002578                bus_fault_default_isr
 .text.usage_fault_default_isr
                0x00000000000025b8       0x28 CMakeFiles/kiibohd.dir/Lib/kinetis.c.obj
                0x00000000000025b8                usage_fault_default_isr
                0x00000000000025b8                usage_fault_isr
 .text.watchdog_default_isr
                0x00000000000025e0       0x60 CMakeFiles/kiibohd.dir/Lib/kinetis.c.obj
                0x00000000000025e0                watchdog_isr
                0x00000000000025e0                watchdog_default_isr
 .text.memset   0x0000000000002640       0x10 CMakeFiles/kiibohd.dir/Lib/kinetis.c.obj
                0x0000000000002640                memset
 .text.memcpy   0x0000000000002650       0x18 CMakeFiles/kiibohd.dir/Lib/kinetis.c.obj
                0x0000000000002650                memcpy
 .text.us_now   0x0000000000002668       0x44 CMakeFiles/kiibohd.dir/Lib/delay.c.obj
                0x0000000000002668                us_now
 .text.yield    0x00000000000026ac        0x2 CMakeFiles/kiibohd.dir/Lib/delay.c.obj
                0x00000000000026ac                yield
 .text.delay_us
                0x00000000000026ae       0x1c CMakeFiles/kiibohd.dir/Lib/delay.c.obj
                0x00000000000026ae                delay_us
 *fill*         0x00000000000026ca        0x2 
 .text.delay_ms
                0x00000000000026cc       0x20 CMakeFiles/kiibohd.dir/Lib/delay.c.obj
                0x00000000000026cc                delay_ms
 .text.rand_initialize
                0x00000000000026ec       0x5c CMakeFiles/kiibohd.dir/Lib/entropy.c.obj
                0x00000000000026ec                rand_initialize
 .text.rand_value32
                0x0000000000002748       0x64 CMakeFiles/kiibohd.dir/Lib/entropy.c.obj
                0x0000000000002748                rand_value32
 .text.rand_available
                0x00000000000027ac        0xc CMakeFiles/kiibohd.dir/Lib/entropy.c.obj
                0x00000000000027ac                rand_available
 .text.lptmr_isr
                0x00000000000027b8      0x120 CMakeFiles/kiibohd.dir/Lib/entropy.c.obj
                0x00000000000027b8                lptmr_isr
 .text.Periodic_init
                0x00000000000028d8       0x40 CMakeFiles/kiibohd.dir/Lib/periodic.c.obj
                0x00000000000028d8                Periodic_init
 .text.Periodic_enable
                0x0000000000002918        0xc CMakeFiles/kiibohd.dir/Lib/periodic.c.obj
                0x0000000000002918                Periodic_enable
 .text.Periodic_disable
                0x0000000000002924        0xc CMakeFiles/kiibohd.dir/Lib/periodic.c.obj
                0x0000000000002924                Periodic_disable
 .text.Periodic_function
                0x0000000000002930        0xc CMakeFiles/kiibohd.dir/Lib/periodic.c.obj
                0x0000000000002930                Periodic_function
 .text.Periodic_cycles
                0x000000000000293c        0xc CMakeFiles/kiibohd.dir/Lib/periodic.c.obj
                0x000000000000293c                Periodic_cycles
 .text.pit0_isr
                0x0000000000002948       0x18 CMakeFiles/kiibohd.dir/Lib/periodic.c.obj
                0x0000000000002948                pit0_isr
 .text.Time_now
                0x0000000000002960       0x18 CMakeFiles/kiibohd.dir/Lib/time.c.obj
                0x0000000000002960                Time_now
 .text.Time_ms  0x0000000000002978        0xe CMakeFiles/kiibohd.dir/Lib/time.c.obj
                0x0000000000002978                Time_ms
 *fill*         0x0000000000002986        0x2 
 .text.Time_us  0x0000000000002988       0x30 CMakeFiles/kiibohd.dir/Lib/time.c.obj
                0x0000000000002988                Time_us
 .text.Time_ns  0x00000000000029b8       0x30 CMakeFiles/kiibohd.dir/Lib/time.c.obj
                0x00000000000029b8                Time_ns
 .text.Time_duration_rollover
                0x00000000000029e8       0x38 CMakeFiles/kiibohd.dir/Lib/time.c.obj
                0x00000000000029e8                Time_duration_rollover
 .text.Time_duration
                0x0000000000002a20       0x14 CMakeFiles/kiibohd.dir/Lib/time.c.obj
                0x0000000000002a20                Time_duration
 .text.Time_duration_ms
                0x0000000000002a34       0x1a CMakeFiles/kiibohd.dir/Lib/time.c.obj
                0x0000000000002a34                Time_duration_ms
 .text.Time_duration_us
                0x0000000000002a4e       0x22 CMakeFiles/kiibohd.dir/Lib/time.c.obj
                0x0000000000002a4e                Time_duration_us
 .text.Time_duration_ns
                0x0000000000002a70       0x22 CMakeFiles/kiibohd.dir/Lib/time.c.obj
                0x0000000000002a70                Time_duration_ns
 *fill*         0x0000000000002a92        0x2 
 .text.Time_duration_ticks
                0x0000000000002a94       0x34 CMakeFiles/kiibohd.dir/Lib/time.c.obj
                0x0000000000002a94                Time_duration_ticks
 .text.i2c_setup
                0x0000000000002ac8       0x54 CMakeFiles/kiibohd.dir/Scan/Devices/ISSILed/i2c.c.obj
                0x0000000000002ac8                i2c_setup
 .text.i2c_reset
                0x0000000000002b1c       0x10 CMakeFiles/kiibohd.dir/Scan/Devices/ISSILed/i2c.c.obj
                0x0000000000002b1c                i2c_reset
 .text.i2c_busy
                0x0000000000002b2c       0x18 CMakeFiles/kiibohd.dir/Scan/Devices/ISSILed/i2c.c.obj
                0x0000000000002b2c                i2c_busy
 .text.i2c_send_sequence
                0x0000000000002b44       0xa0 CMakeFiles/kiibohd.dir/Scan/Devices/ISSILed/i2c.c.obj
                0x0000000000002b44                i2c_send_sequence
 .text.i2c_isr  0x0000000000002be4      0x1e8 CMakeFiles/kiibohd.dir/Scan/Devices/ISSILed/i2c.c.obj
                0x0000000000002be4                i2c_isr
 .text.i2c0_isr
                0x0000000000002dcc        0x6 CMakeFiles/kiibohd.dir/Scan/Devices/ISSILed/i2c.c.obj
                0x0000000000002dcc                i2c0_isr
 .text.i2c1_isr
                0x0000000000002dd2        0x6 CMakeFiles/kiibohd.dir/Scan/Devices/ISSILed/i2c.c.obj
                0x0000000000002dd2                i2c1_isr
 .text.cliFunc_ledToggle
                0x0000000000002dd8       0x28 CMakeFiles/kiibohd.dir/Scan/Devices/ISSILed/led_scan.c.obj
                0x0000000000002dd8                cliFunc_ledToggle
 .text.cliFunc_ledCheck
                0x0000000000002e00        0xc CMakeFiles/kiibohd.dir/Scan/Devices/ISSILed/led_scan.c.obj
                0x0000000000002e00                cliFunc_ledCheck
 .text.cliFunc_ledSet
                0x0000000000002e0c       0x44 CMakeFiles/kiibohd.dir/Scan/Devices/ISSILed/led_scan.c.obj
                0x0000000000002e0c                cliFunc_ledSet
 .text.LED_linkedSend
                0x0000000000002e50       0x58 CMakeFiles/kiibohd.dir/Scan/Devices/ISSILed/led_scan.c.obj
                0x0000000000002e50                LED_linkedSend
 .text.cliFunc_ledFPS
                0x0000000000002ea8       0x78 CMakeFiles/kiibohd.dir/Scan/Devices/ISSILed/led_scan.c.obj
                0x0000000000002ea8                cliFunc_ledFPS
 .text.LED_setupPage
                0x0000000000002f20       0x46 CMakeFiles/kiibohd.dir/Scan/Devices/ISSILed/led_scan.c.obj
                0x0000000000002f20                LED_setupPage
 .text.LED_zeroPages
                0x0000000000002f66       0x7c CMakeFiles/kiibohd.dir/Scan/Devices/ISSILed/led_scan.c.obj
                0x0000000000002f66                LED_zeroPages
 .text.LED_zeroControlPages
                0x0000000000002fe2       0x1a CMakeFiles/kiibohd.dir/Scan/Devices/ISSILed/led_scan.c.obj
                0x0000000000002fe2                LED_zeroControlPages
 .text.LED_sendPage
                0x0000000000002ffc       0x32 CMakeFiles/kiibohd.dir/Scan/Devices/ISSILed/led_scan.c.obj
                0x0000000000002ffc                LED_sendPage
 .text.LED_writeReg
                0x000000000000302e       0x4c CMakeFiles/kiibohd.dir/Scan/Devices/ISSILed/led_scan.c.obj
                0x000000000000302e                LED_writeReg
 *fill*         0x000000000000307a        0x2 
 .text.LED_reset
                0x000000000000307c       0x68 CMakeFiles/kiibohd.dir/Scan/Devices/ISSILed/led_scan.c.obj
                0x000000000000307c                LED_reset
 .text.cliFunc_ledReset
                0x00000000000030e4       0x50 CMakeFiles/kiibohd.dir/Scan/Devices/ISSILed/led_scan.c.obj
                0x00000000000030e4                cliFunc_ledReset
 .text.LED_setup
                0x0000000000003134       0xbc CMakeFiles/kiibohd.dir/Scan/Devices/ISSILed/led_scan.c.obj
                0x0000000000003134                LED_setup
 .text.LED_scan
                0x00000000000031f0      0x184 CMakeFiles/kiibohd.dir/Scan/Devices/ISSILed/led_scan.c.obj
                0x00000000000031f0                LED_scan
 .text.LED_currentChange
                0x0000000000003374        0xc CMakeFiles/kiibohd.dir/Scan/Devices/ISSILed/led_scan.c.obj
                0x0000000000003374                LED_currentChange
 .text.LED_control
                0x0000000000003380       0x68 CMakeFiles/kiibohd.dir/Scan/Devices/ISSILed/led_scan.c.obj
                0x0000000000003380                LED_control
 .text.LED_control_capability
                0x00000000000033e8       0x58 CMakeFiles/kiibohd.dir/Scan/Devices/ISSILed/led_scan.c.obj
                0x00000000000033e8                LED_control_capability
 .text.cliFunc_matrixState
                0x0000000000003440       0x28 CMakeFiles/kiibohd.dir/Scan/Devices/MatrixARMPeriodic/matrix_scan.c.obj
                0x0000000000003440                cliFunc_matrixState
 .text.cliFunc_debounce
                0x0000000000003468       0x48 CMakeFiles/kiibohd.dir/Scan/Devices/MatrixARMPeriodic/matrix_scan.c.obj
                0x0000000000003468                cliFunc_debounce
 .text.cliFunc_matrixInfo
                0x00000000000034b0       0x50 CMakeFiles/kiibohd.dir/Scan/Devices/MatrixARMPeriodic/matrix_scan.c.obj
                0x00000000000034b0                cliFunc_matrixInfo
 .text.cliFunc_matrixDebug
                0x0000000000003500       0x7c CMakeFiles/kiibohd.dir/Scan/Devices/MatrixARMPeriodic/matrix_scan.c.obj
                0x0000000000003500                cliFunc_matrixDebug
 .text.cliFunc_strobeDelay
                0x000000000000357c       0x48 CMakeFiles/kiibohd.dir/Scan/Devices/MatrixARMPeriodic/matrix_scan.c.obj
                0x000000000000357c                cliFunc_strobeDelay
 .text.Matrix_pin
                0x00000000000035c4       0xc0 CMakeFiles/kiibohd.dir/Scan/Devices/MatrixARMPeriodic/matrix_scan.c.obj
                0x00000000000035c4                Matrix_pin
 .text.Matrix_setup
                0x0000000000003684       0xb8 CMakeFiles/kiibohd.dir/Scan/Devices/MatrixARMPeriodic/matrix_scan.c.obj
                0x0000000000003684                Matrix_setup
 .text.Matrix_keyPositionDebug
                0x000000000000373c       0x38 CMakeFiles/kiibohd.dir/Scan/Devices/MatrixARMPeriodic/matrix_scan.c.obj
                0x000000000000373c                Matrix_keyPositionDebug
 .text.Matrix_single_scan
                0x0000000000003774      0x38c CMakeFiles/kiibohd.dir/Scan/Devices/MatrixARMPeriodic/matrix_scan.c.obj
                0x0000000000003774                Matrix_single_scan
 .text.Matrix_start
                0x0000000000003b00        0x8 CMakeFiles/kiibohd.dir/Scan/Devices/MatrixARMPeriodic/matrix_scan.c.obj
                0x0000000000003b00                Matrix_start
 .text.Matrix_currentChange
                0x0000000000003b08        0x2 CMakeFiles/kiibohd.dir/Scan/Devices/MatrixARMPeriodic/matrix_scan.c.obj
                0x0000000000003b08                Matrix_currentChange
 *fill*         0x0000000000003b0a        0x2 
 .text.cliFunc_lcdColor
                0x0000000000003b0c       0x48 CMakeFiles/kiibohd.dir/Scan/Devices/STLcd/lcd_scan.c.obj
                0x0000000000003b0c                cliFunc_lcdColor
 .text.SPI_setup
                0x0000000000003b54       0x3c CMakeFiles/kiibohd.dir/Scan/Devices/STLcd/lcd_scan.c.obj
                0x0000000000003b54                SPI_setup
 .text.SPI_write
                0x0000000000003b90       0x40 CMakeFiles/kiibohd.dir/Scan/Devices/STLcd/lcd_scan.c.obj
                0x0000000000003b90                SPI_write
 .text.LCD_writeControlReg
                0x0000000000003bd0       0x50 CMakeFiles/kiibohd.dir/Scan/Devices/STLcd/lcd_scan.c.obj
                0x0000000000003bd0                LCD_writeControlReg
 .text.cliFunc_lcdDisp
                0x0000000000003c20       0x78 CMakeFiles/kiibohd.dir/Scan/Devices/STLcd/lcd_scan.c.obj
                0x0000000000003c20                cliFunc_lcdDisp
 .text.LCD_writeDataReg
                0x0000000000003c98       0x40 CMakeFiles/kiibohd.dir/Scan/Devices/STLcd/lcd_scan.c.obj
                0x0000000000003c98                LCD_writeDataReg
 .text.cliFunc_lcdCmd
                0x0000000000003cd8       0x84 CMakeFiles/kiibohd.dir/Scan/Devices/STLcd/lcd_scan.c.obj
                0x0000000000003cd8                cliFunc_lcdCmd
 .text.LCD_writeDisplayReg
                0x0000000000003d5c       0x30 CMakeFiles/kiibohd.dir/Scan/Devices/STLcd/lcd_scan.c.obj
                0x0000000000003d5c                LCD_writeDisplayReg
 .text.cliFunc_lcdTest
                0x0000000000003d8c       0x38 CMakeFiles/kiibohd.dir/Scan/Devices/STLcd/lcd_scan.c.obj
                0x0000000000003d8c                cliFunc_lcdTest
 .text.LCD_clearPage
                0x0000000000003dc4       0x4c CMakeFiles/kiibohd.dir/Scan/Devices/STLcd/lcd_scan.c.obj
                0x0000000000003dc4                LCD_clearPage
 .text.LCD_clear
                0x0000000000003e10       0x2c CMakeFiles/kiibohd.dir/Scan/Devices/STLcd/lcd_scan.c.obj
                0x0000000000003e10                LCD_clear
 .text.LCD_initialize
                0x0000000000003e3c       0x46 CMakeFiles/kiibohd.dir/Scan/Devices/STLcd/lcd_scan.c.obj
                0x0000000000003e3c                LCD_initialize
 .text.cliFunc_lcdInit
                0x0000000000003e82        0x4 CMakeFiles/kiibohd.dir/Scan/Devices/STLcd/lcd_scan.c.obj
                0x0000000000003e82                cliFunc_lcdInit
 *fill*         0x0000000000003e86        0x2 
 .text.LCD_setup
                0x0000000000003e88      0x110 CMakeFiles/kiibohd.dir/Scan/Devices/STLcd/lcd_scan.c.obj
                0x0000000000003e88                LCD_setup
 .text.LCD_scan
                0x0000000000003f98       0x84 CMakeFiles/kiibohd.dir/Scan/Devices/STLcd/lcd_scan.c.obj
                0x0000000000003f98                LCD_scan
 .text.LCD_currentChange
                0x000000000000401c        0x2 CMakeFiles/kiibohd.dir/Scan/Devices/STLcd/lcd_scan.c.obj
                0x000000000000401c                LCD_currentChange
 *fill*         0x000000000000401e        0x2 
 .text.LCD_layerStackExact_capability
                0x0000000000004020      0x144 CMakeFiles/kiibohd.dir/Scan/Devices/STLcd/lcd_scan.c.obj
                0x0000000000004020                LCD_layerStackExact_capability
 .text.LCD_layerStack_capability
                0x0000000000004164       0xb8 CMakeFiles/kiibohd.dir/Scan/Devices/STLcd/lcd_scan.c.obj
                0x0000000000004164                LCD_layerStack_capability
 .text.Connect_receive_Animation
                0x000000000000421c       0x10 CMakeFiles/kiibohd.dir/Scan/Devices/UARTConnect/connect_scan.c.obj
                0x000000000000421c                Connect_receive_Animation
 .text.cliFunc_connectDbg
                0x000000000000422c       0x28 CMakeFiles/kiibohd.dir/Scan/Devices/UARTConnect/connect_scan.c.obj
                0x000000000000422c                cliFunc_connectDbg
 .text.Connect_receive_CableCheck
                0x0000000000004254      0x134 CMakeFiles/kiibohd.dir/Scan/Devices/UARTConnect/connect_scan.c.obj
                0x0000000000004254                Connect_receive_CableCheck
 .text.cliFunc_connectLst
                0x0000000000004388       0x5c CMakeFiles/kiibohd.dir/Scan/Devices/UARTConnect/connect_scan.c.obj
                0x0000000000004388                cliFunc_connectLst
 .text.cliFunc_connectSts
                0x00000000000043e4      0x148 CMakeFiles/kiibohd.dir/Scan/Devices/UARTConnect/connect_scan.c.obj
                0x00000000000043e4                cliFunc_connectSts
 .text.cliFunc_connectMst
                0x000000000000452c       0x70 CMakeFiles/kiibohd.dir/Scan/Devices/UARTConnect/connect_scan.c.obj
                0x000000000000452c                cliFunc_connectMst
 .text.Connect_addBytes.part.1
                0x000000000000459c       0xc0 CMakeFiles/kiibohd.dir/Scan/Devices/UARTConnect/connect_scan.c.obj
 .text.Connect_receive_ScanCode
                0x000000000000465c      0x17c CMakeFiles/kiibohd.dir/Scan/Devices/UARTConnect/connect_scan.c.obj
                0x000000000000465c                Connect_receive_ScanCode
 .text.Connect_addBytes
                0x00000000000047d8       0x20 CMakeFiles/kiibohd.dir/Scan/Devices/UARTConnect/connect_scan.c.obj
                0x00000000000047d8                Connect_addBytes
 .text.Connect_receive_RemoteCapability
                0x00000000000047f8      0x114 CMakeFiles/kiibohd.dir/Scan/Devices/UARTConnect/connect_scan.c.obj
                0x00000000000047f8                Connect_receive_RemoteCapability
 .text.Connect_send_CableCheck
                0x000000000000490c       0x88 CMakeFiles/kiibohd.dir/Scan/Devices/UARTConnect/connect_scan.c.obj
                0x000000000000490c                Connect_send_CableCheck
 .text.Connect_send_IdRequest
                0x0000000000004994       0x40 CMakeFiles/kiibohd.dir/Scan/Devices/UARTConnect/connect_scan.c.obj
                0x0000000000004994                Connect_send_IdRequest
 .text.Connect_send_IdEnumeration
                0x00000000000049d4       0x40 CMakeFiles/kiibohd.dir/Scan/Devices/UARTConnect/connect_scan.c.obj
                0x00000000000049d4                Connect_send_IdEnumeration
 .text.Connect_receive_IdRequest
                0x0000000000004a14       0x38 CMakeFiles/kiibohd.dir/Scan/Devices/UARTConnect/connect_scan.c.obj
                0x0000000000004a14                Connect_receive_IdRequest
 .text.Connect_send_IdReport
                0x0000000000004a4c       0x40 CMakeFiles/kiibohd.dir/Scan/Devices/UARTConnect/connect_scan.c.obj
                0x0000000000004a4c                Connect_send_IdReport
 .text.Connect_receive_IdEnumeration
                0x0000000000004a8c       0x4c CMakeFiles/kiibohd.dir/Scan/Devices/UARTConnect/connect_scan.c.obj
                0x0000000000004a8c                Connect_receive_IdEnumeration
 .text.Connect_receive_IdReport
                0x0000000000004ad8       0x60 CMakeFiles/kiibohd.dir/Scan/Devices/UARTConnect/connect_scan.c.obj
                0x0000000000004ad8                Connect_receive_IdReport
 .text.Connect_send_ScanCode
                0x0000000000004b38       0x58 CMakeFiles/kiibohd.dir/Scan/Devices/UARTConnect/connect_scan.c.obj
                0x0000000000004b38                Connect_send_ScanCode
 .text.cliFunc_connectCmd
                0x0000000000004b90       0x68 CMakeFiles/kiibohd.dir/Scan/Devices/UARTConnect/connect_scan.c.obj
                0x0000000000004b90                cliFunc_connectCmd
 .text.Connect_send_RemoteCapability
                0x0000000000004bf8       0xb8 CMakeFiles/kiibohd.dir/Scan/Devices/UARTConnect/connect_scan.c.obj
                0x0000000000004bf8                Connect_send_RemoteCapability
 .text.Connect_send_Idle
                0x0000000000004cb0       0x64 CMakeFiles/kiibohd.dir/Scan/Devices/UARTConnect/connect_scan.c.obj
                0x0000000000004cb0                Connect_send_Idle
 .text.cliFunc_connectIdl
                0x0000000000004d14       0x38 CMakeFiles/kiibohd.dir/Scan/Devices/UARTConnect/connect_scan.c.obj
                0x0000000000004d14                cliFunc_connectIdl
 .text.Connect_reset
                0x0000000000004d4c       0x48 CMakeFiles/kiibohd.dir/Scan/Devices/UARTConnect/connect_scan.c.obj
                0x0000000000004d4c                Connect_reset
 .text.cliFunc_connectRst
                0x0000000000004d94       0x28 CMakeFiles/kiibohd.dir/Scan/Devices/UARTConnect/connect_scan.c.obj
                0x0000000000004d94                cliFunc_connectRst
 .text.Connect_setup
                0x0000000000004dbc      0x1d4 CMakeFiles/kiibohd.dir/Scan/Devices/UARTConnect/connect_scan.c.obj
                0x0000000000004dbc                Connect_setup
 .text.Connect_rx_process
                0x0000000000004f90      0x1b8 CMakeFiles/kiibohd.dir/Scan/Devices/UARTConnect/connect_scan.c.obj
                0x0000000000004f90                Connect_rx_process
 .text.Connect_scan
                0x0000000000005148      0x1e0 CMakeFiles/kiibohd.dir/Scan/Devices/UARTConnect/connect_scan.c.obj
                0x0000000000005148                Connect_scan
 .text.Connect_currentChange
                0x0000000000005328        0x2 CMakeFiles/kiibohd.dir/Scan/Devices/UARTConnect/connect_scan.c.obj
                0x0000000000005328                Connect_currentChange
 *fill*         0x000000000000532a        0x2 
 .text.Scan_setup
                0x000000000000532c       0x28 CMakeFiles/kiibohd.dir/Scan/Infinity_Ergodox/scan_loop.c.obj
                0x000000000000532c                Scan_setup
 .text.Scan_poll
                0x0000000000005354       0x12 CMakeFiles/kiibohd.dir/Scan/Infinity_Ergodox/scan_loop.c.obj
                0x0000000000005354                Scan_poll
 .text.Scan_periodic
                0x0000000000005366        0xe CMakeFiles/kiibohd.dir/Scan/Infinity_Ergodox/scan_loop.c.obj
                0x0000000000005366                Scan_periodic
 .text.Scan_finishedWithMacro
                0x0000000000005374        0x2 CMakeFiles/kiibohd.dir/Scan/Infinity_Ergodox/scan_loop.c.obj
                0x0000000000005374                Scan_finishedWithMacro
 .text.Scan_finishedWithOutput
                0x0000000000005376        0x2 CMakeFiles/kiibohd.dir/Scan/Infinity_Ergodox/scan_loop.c.obj
                0x0000000000005376                Scan_finishedWithOutput
 .text.Scan_currentChange
                0x0000000000005378       0x1e CMakeFiles/kiibohd.dir/Scan/Infinity_Ergodox/scan_loop.c.obj
                0x0000000000005378                Scan_currentChange
 *fill*         0x0000000000005396        0x2 
 .text.cliFunc_posList
                0x0000000000005398        0xc CMakeFiles/kiibohd.dir/Macro/PartialMap/macro.c.obj
                0x0000000000005398                cliFunc_posList
 .text.cliFunc_capList
                0x00000000000053a4       0x64 CMakeFiles/kiibohd.dir/Macro/PartialMap/macro.c.obj
                0x00000000000053a4                cliFunc_capList
 .text.cliFunc_layerDebug
                0x0000000000005408       0x30 CMakeFiles/kiibohd.dir/Macro/PartialMap/macro.c.obj
                0x0000000000005408                cliFunc_layerDebug
 .text.cliFunc_macroProc
                0x0000000000005438       0x30 CMakeFiles/kiibohd.dir/Macro/PartialMap/macro.c.obj
                0x0000000000005438                cliFunc_macroProc
 .text.cliFunc_macroList
                0x0000000000005468      0x16c CMakeFiles/kiibohd.dir/Macro/PartialMap/macro.c.obj
                0x0000000000005468                cliFunc_macroList
 .text.cliFunc_macroDebug
                0x00000000000055d4       0x74 CMakeFiles/kiibohd.dir/Macro/PartialMap/macro.c.obj
                0x00000000000055d4                cliFunc_macroDebug
 .text.cliFunc_capSelect
                0x0000000000005648      0x110 CMakeFiles/kiibohd.dir/Macro/PartialMap/macro.c.obj
                0x0000000000005648                cliFunc_capSelect
 .text.cliFunc_layerState
                0x0000000000005758       0x68 CMakeFiles/kiibohd.dir/Macro/PartialMap/macro.c.obj
                0x0000000000005758                cliFunc_layerState
 .text.cliFunc_macroStep
                0x00000000000057c0       0x28 CMakeFiles/kiibohd.dir/Macro/PartialMap/macro.c.obj
                0x00000000000057c0                cliFunc_macroStep
 .text.cliFunc_layerList
                0x00000000000057e8       0xe0 CMakeFiles/kiibohd.dir/Macro/PartialMap/macro.c.obj
                0x00000000000057e8                cliFunc_layerList
 .text.cliFunc_voteDebug
                0x00000000000058c8       0x44 CMakeFiles/kiibohd.dir/Macro/PartialMap/macro.c.obj
                0x00000000000058c8                cliFunc_voteDebug
 .text.Macro_layerState.part.1
                0x000000000000590c       0xd4 CMakeFiles/kiibohd.dir/Macro/PartialMap/macro.c.obj
 .text.Macro_layerState_capability
                0x00000000000059e0       0x28 CMakeFiles/kiibohd.dir/Macro/PartialMap/macro.c.obj
                0x00000000000059e0                Macro_layerState_capability
 .text.Macro_layerLatch_capability
                0x0000000000005a08       0x28 CMakeFiles/kiibohd.dir/Macro/PartialMap/macro.c.obj
                0x0000000000005a08                Macro_layerLatch_capability
 .text.Macro_layerLock_capability
                0x0000000000005a30       0x28 CMakeFiles/kiibohd.dir/Macro/PartialMap/macro.c.obj
                0x0000000000005a30                Macro_layerLock_capability
 .text.Macro_layerShift_capability
                0x0000000000005a58       0x3c CMakeFiles/kiibohd.dir/Macro/PartialMap/macro.c.obj
                0x0000000000005a58                Macro_layerShift_capability
 .text.Macro_layerRotate_capability
                0x0000000000005a94       0x64 CMakeFiles/kiibohd.dir/Macro/PartialMap/macro.c.obj
                0x0000000000005a94                Macro_layerRotate_capability
 .text.Macro_showScheduleType
                0x0000000000005af8       0x74 CMakeFiles/kiibohd.dir/Macro/PartialMap/macro.c.obj
                0x0000000000005af8                Macro_showScheduleType
 .text.Macro_showTriggerType
                0x0000000000005b6c       0x48 CMakeFiles/kiibohd.dir/Macro/PartialMap/macro.c.obj
                0x0000000000005b6c                Macro_showTriggerType
 .text.Macro_showTriggerEvent
                0x0000000000005bb4       0x3c CMakeFiles/kiibohd.dir/Macro/PartialMap/macro.c.obj
                0x0000000000005bb4                Macro_showTriggerEvent
 .text.Macro_layerLookup
                0x0000000000005bf0      0x11c CMakeFiles/kiibohd.dir/Macro/PartialMap/macro.c.obj
                0x0000000000005bf0                Macro_layerLookup
 .text.Macro_pressReleaseAdd
                0x0000000000005d0c       0xbc CMakeFiles/kiibohd.dir/Macro/PartialMap/macro.c.obj
                0x0000000000005d0c                Macro_pressReleaseAdd
 .text.Macro_keyState
                0x0000000000005dc8       0x60 CMakeFiles/kiibohd.dir/Macro/PartialMap/macro.c.obj
                0x0000000000005dc8                Macro_keyState
 .text.cliFunc_keyHold
                0x0000000000005e28       0x30 CMakeFiles/kiibohd.dir/Macro/PartialMap/macro.c.obj
                0x0000000000005e28                cliFunc_keyHold
 .text.cliFunc_keyPress
                0x0000000000005e58       0x30 CMakeFiles/kiibohd.dir/Macro/PartialMap/macro.c.obj
                0x0000000000005e58                cliFunc_keyPress
 .text.cliFunc_keyRelease
                0x0000000000005e88       0x30 CMakeFiles/kiibohd.dir/Macro/PartialMap/macro.c.obj
                0x0000000000005e88                cliFunc_keyRelease
 .text.Macro_appendResultMacroToPendingList
                0x0000000000005eb8       0x98 CMakeFiles/kiibohd.dir/Macro/PartialMap/macro.c.obj
                0x0000000000005eb8                Macro_appendResultMacroToPendingList
 .text.Macro_poll
                0x0000000000005f50        0x4 CMakeFiles/kiibohd.dir/Macro/PartialMap/macro.c.obj
                0x0000000000005f50                Macro_poll
 .text.Macro_periodic
                0x0000000000005f54      0x164 CMakeFiles/kiibohd.dir/Macro/PartialMap/macro.c.obj
                0x0000000000005f54                Macro_periodic
 .text.Macro_setup
                0x00000000000060b8       0x6c CMakeFiles/kiibohd.dir/Macro/PartialMap/macro.c.obj
                0x00000000000060b8                Macro_setup
 .text.macroDebugShowTrigger
                0x0000000000006124      0x114 CMakeFiles/kiibohd.dir/Macro/PartialMap/macro.c.obj
                0x0000000000006124                macroDebugShowTrigger
 .text.macroDebugShowResult
                0x0000000000006238      0x170 CMakeFiles/kiibohd.dir/Macro/PartialMap/macro.c.obj
                0x0000000000006238                macroDebugShowResult
 .text.cliFunc_macroShow
                0x00000000000063a8       0x40 CMakeFiles/kiibohd.dir/Macro/PartialMap/macro.c.obj
                0x00000000000063a8                cliFunc_macroShow
 .text.Macro_evalResultMacro
                0x00000000000063e8      0x100 CMakeFiles/kiibohd.dir/Macro/PartialMap/result.c.obj
                0x00000000000063e8                Macro_evalResultMacro
 .text.Result_setup
                0x00000000000064e8       0x30 CMakeFiles/kiibohd.dir/Macro/PartialMap/result.c.obj
                0x00000000000064e8                Result_setup
 .text.Result_process_delayed
                0x0000000000006518       0x48 CMakeFiles/kiibohd.dir/Macro/PartialMap/result.c.obj
                0x0000000000006518                Result_process_delayed
 .text.Result_process
                0x0000000000006560       0x50 CMakeFiles/kiibohd.dir/Macro/PartialMap/result.c.obj
                0x0000000000006560                Result_process
 .text.Trigger_showTriggerMacroVote
                0x00000000000065b0       0x6c CMakeFiles/kiibohd.dir/Macro/PartialMap/trigger.c.obj
                0x00000000000065b0                Trigger_showTriggerMacroVote
 .text.Macro_isLongResultMacro
                0x000000000000661c       0x2c CMakeFiles/kiibohd.dir/Macro/PartialMap/trigger.c.obj
                0x000000000000661c                Macro_isLongResultMacro
 .text.Trigger_isLongTriggerMacro
                0x0000000000006648        0xe CMakeFiles/kiibohd.dir/Macro/PartialMap/trigger.c.obj
                0x0000000000006648                Trigger_isLongTriggerMacro
 *fill*         0x0000000000006656        0x2 
 .text.Trigger_evalShortTriggerMacroVote
                0x0000000000006658       0x70 CMakeFiles/kiibohd.dir/Macro/PartialMap/trigger.c.obj
                0x0000000000006658                Trigger_evalShortTriggerMacroVote
 .text.Trigger_evalLongTriggerMacroVote
                0x00000000000066c8       0x80 CMakeFiles/kiibohd.dir/Macro/PartialMap/trigger.c.obj
                0x00000000000066c8                Trigger_evalLongTriggerMacroVote
 .text.Trigger_evalTriggerMacro
                0x0000000000006748      0x19c CMakeFiles/kiibohd.dir/Macro/PartialMap/trigger.c.obj
                0x0000000000006748                Trigger_evalTriggerMacro
 .text.Trigger_updateTriggerMacroPendingList
                0x00000000000068e4       0xb0 CMakeFiles/kiibohd.dir/Macro/PartialMap/trigger.c.obj
                0x00000000000068e4                Trigger_updateTriggerMacroPendingList
 .text.Trigger_setup
                0x0000000000006994       0x1c CMakeFiles/kiibohd.dir/Macro/PartialMap/trigger.c.obj
                0x0000000000006994                Trigger_setup
 .text.Trigger_process
                0x00000000000069b0       0x74 CMakeFiles/kiibohd.dir/Macro/PartialMap/trigger.c.obj
                0x00000000000069b0                Trigger_process
 .text.cliFunc_aniAdd
                0x0000000000006a24        0xc CMakeFiles/kiibohd.dir/Macro/PixelMap/pixel.c.obj
                0x0000000000006a24                cliFunc_aniAdd
 .text.cliFunc_aniDel
                0x0000000000006a30       0x1c CMakeFiles/kiibohd.dir/Macro/PixelMap/pixel.c.obj
                0x0000000000006a30                cliFunc_aniDel
 .text.cliFunc_aniStack
                0x0000000000006a4c       0xc8 CMakeFiles/kiibohd.dir/Macro/PixelMap/pixel.c.obj
                0x0000000000006a4c                cliFunc_aniStack
 .text.cliFunc_pixelList
                0x0000000000006b14      0x140 CMakeFiles/kiibohd.dir/Macro/PixelMap/pixel.c.obj
                0x0000000000006b14                cliFunc_pixelList
 .text.Pixel_AnimationIndex_capability
                0x0000000000006c54       0x38 CMakeFiles/kiibohd.dir/Macro/PixelMap/pixel.c.obj
                0x0000000000006c54                Pixel_AnimationIndex_capability
 .text.Pixel_Pixel_capability
                0x0000000000006c8c       0x14 CMakeFiles/kiibohd.dir/Macro/PixelMap/pixel.c.obj
                0x0000000000006c8c                Pixel_Pixel_capability
 .text.Pixel_AnimationControl_capability
                0x0000000000006ca0       0x5c CMakeFiles/kiibohd.dir/Macro/PixelMap/pixel.c.obj
                0x0000000000006ca0                Pixel_AnimationControl_capability
 .text.Pixel_showPixelElement
                0x0000000000006cfc       0x5c CMakeFiles/kiibohd.dir/Macro/PixelMap/pixel.c.obj
                0x0000000000006cfc                Pixel_showPixelElement
 .text.Pixel_clearAnimations
                0x0000000000006d58       0x24 CMakeFiles/kiibohd.dir/Macro/PixelMap/pixel.c.obj
                0x0000000000006d58                Pixel_clearAnimations
 .text.Pixel_lookupAnimation
                0x0000000000006d7c       0x28 CMakeFiles/kiibohd.dir/Macro/PixelMap/pixel.c.obj
                0x0000000000006d7c                Pixel_lookupAnimation
 .text.Pixel_addAnimation
                0x0000000000006da4       0x98 CMakeFiles/kiibohd.dir/Macro/PixelMap/pixel.c.obj
                0x0000000000006da4                Pixel_addAnimation
 .text.Pixel_Animation_capability
                0x0000000000006e3c       0x58 CMakeFiles/kiibohd.dir/Macro/PixelMap/pixel.c.obj
                0x0000000000006e3c                Pixel_Animation_capability
 .text.Pixel_bufferMap
                0x0000000000006e94       0x5c CMakeFiles/kiibohd.dir/Macro/PixelMap/pixel.c.obj
                0x0000000000006e94                Pixel_bufferMap
 .text.Pixel_pixelEvaluation
                0x0000000000006ef0      0x320 CMakeFiles/kiibohd.dir/Macro/PixelMap/pixel.c.obj
                0x0000000000006ef0                Pixel_pixelEvaluation
 .text.Pixel_pixelTweenNextPos
                0x0000000000007210       0x2c CMakeFiles/kiibohd.dir/Macro/PixelMap/pixel.c.obj
                0x0000000000007210                Pixel_pixelTweenNextPos
 .text.Pixel_channelSet
                0x000000000000723c       0x60 CMakeFiles/kiibohd.dir/Macro/PixelMap/pixel.c.obj
                0x000000000000723c                Pixel_channelSet
 .text.Pixel_channelToggle
                0x000000000000729c       0x6c CMakeFiles/kiibohd.dir/Macro/PixelMap/pixel.c.obj
                0x000000000000729c                Pixel_channelToggle
 .text.cliFunc_chanTest
                0x0000000000007308       0xfc CMakeFiles/kiibohd.dir/Macro/PixelMap/pixel.c.obj
                0x0000000000007308                cliFunc_chanTest
 .text.Pixel_pixelSet
                0x0000000000007404       0x24 CMakeFiles/kiibohd.dir/Macro/PixelMap/pixel.c.obj
                0x0000000000007404                Pixel_pixelSet
 .text.Pixel_clearPixels
                0x0000000000007428       0x1c CMakeFiles/kiibohd.dir/Macro/PixelMap/pixel.c.obj
                0x0000000000007428                Pixel_clearPixels
 .text.Pixel_pixelToggle
                0x0000000000007444       0x20 CMakeFiles/kiibohd.dir/Macro/PixelMap/pixel.c.obj
                0x0000000000007444                Pixel_pixelToggle
 .text.cliFunc_pixelTest
                0x0000000000007464      0x120 CMakeFiles/kiibohd.dir/Macro/PixelMap/pixel.c.obj
                0x0000000000007464                cliFunc_pixelTest
 .text.cliFunc_pixelSCTest
                0x0000000000007584       0xfc CMakeFiles/kiibohd.dir/Macro/PixelMap/pixel.c.obj
                0x0000000000007584                cliFunc_pixelSCTest
 .text.cliFunc_pixelXYTest
                0x0000000000007680      0x20c CMakeFiles/kiibohd.dir/Macro/PixelMap/pixel.c.obj
                0x0000000000007680                cliFunc_pixelXYTest
 .text.Pixel_determineLastTriggerScanCode
                0x000000000000788c       0x24 CMakeFiles/kiibohd.dir/Macro/PixelMap/pixel.c.obj
                0x000000000000788c                Pixel_determineLastTriggerScanCode
 .text.Pixel_fillPixelLookup
                0x00000000000078b0      0x254 CMakeFiles/kiibohd.dir/Macro/PixelMap/pixel.c.obj
                0x00000000000078b0                Pixel_fillPixelLookup
 .text.Pixel_pixelTweenStandard
                0x0000000000007b04       0x5a CMakeFiles/kiibohd.dir/Macro/PixelMap/pixel.c.obj
                0x0000000000007b04                Pixel_pixelTweenStandard
 .text.Pixel_pixelTweenInterpolation
                0x0000000000007b5e      0x1f2 CMakeFiles/kiibohd.dir/Macro/PixelMap/pixel.c.obj
                0x0000000000007b5e                Pixel_pixelTweenInterpolation
 .text.Pixel_frameTweenStandard
                0x0000000000007d50       0x20 CMakeFiles/kiibohd.dir/Macro/PixelMap/pixel.c.obj
                0x0000000000007d50                Pixel_frameTweenStandard
 .text.Pixel_animationProcess
                0x0000000000007d70       0x74 CMakeFiles/kiibohd.dir/Macro/PixelMap/pixel.c.obj
                0x0000000000007d70                Pixel_animationProcess
 .text.Pixel_stackProcess
                0x0000000000007de4       0x44 CMakeFiles/kiibohd.dir/Macro/PixelMap/pixel.c.obj
                0x0000000000007de4                Pixel_stackProcess
 .text.Pixel_updateUSBLEDs
                0x0000000000007e28       0x10 CMakeFiles/kiibohd.dir/Macro/PixelMap/pixel.c.obj
                0x0000000000007e28                Pixel_updateUSBLEDs
 .text.Pixel_setAnimationControl
                0x0000000000007e38        0xc CMakeFiles/kiibohd.dir/Macro/PixelMap/pixel.c.obj
                0x0000000000007e38                Pixel_setAnimationControl
 .text.Pixel_process
                0x0000000000007e44      0x1fc CMakeFiles/kiibohd.dir/Macro/PixelMap/pixel.c.obj
                0x0000000000007e44                Pixel_process
 .text.Pixel_setup
                0x0000000000008040       0x48 CMakeFiles/kiibohd.dir/Macro/PixelMap/pixel.c.obj
                0x0000000000008040                Pixel_setup
 .text.Pixel_dispBuffer
                0x0000000000008088       0xb8 CMakeFiles/kiibohd.dir/Macro/PixelMap/pixel.c.obj
                0x0000000000008088                Pixel_dispBuffer
 .text.cliFunc_rectDisp
                0x0000000000008140       0x14 CMakeFiles/kiibohd.dir/Macro/PixelMap/pixel.c.obj
                0x0000000000008140                cliFunc_rectDisp
 .text.HIDIO_supported_0_call
                0x0000000000008154        0x4 CMakeFiles/kiibohd.dir/Output/HID-IO/hidio_com.c.obj
                0x0000000000008154                HIDIO_supported_0_call
 .text.HIDIO_supported_0_reply
                0x0000000000008158        0x4 CMakeFiles/kiibohd.dir/Output/HID-IO/hidio_com.c.obj
                0x0000000000008158                HIDIO_supported_0_reply
 .text.HIDIO_test_2_reply
                0x000000000000815c       0x34 CMakeFiles/kiibohd.dir/Output/HID-IO/hidio_com.c.obj
                0x000000000000815c                HIDIO_test_2_reply
 .text.HIDIO_info_1_reply
                0x0000000000008190        0x4 CMakeFiles/kiibohd.dir/Output/HID-IO/hidio_com.c.obj
                0x0000000000008190                HIDIO_info_1_reply
 .text.HIDIO_info_1_call
                0x0000000000008194        0x4 CMakeFiles/kiibohd.dir/Output/HID-IO/hidio_com.c.obj
                0x0000000000008194                HIDIO_info_1_call
 .text.HIDIO_buffer_munch
                0x0000000000008198       0x38 CMakeFiles/kiibohd.dir/Output/HID-IO/hidio_com.c.obj
                0x0000000000008198                HIDIO_buffer_munch
 .text.HIDIO_buffer_push_byte
                0x00000000000081d0       0x1a CMakeFiles/kiibohd.dir/Output/HID-IO/hidio_com.c.obj
                0x00000000000081d0                HIDIO_buffer_push_byte
 .text.HIDIO_modify_buffer
                0x00000000000081ea       0x2a CMakeFiles/kiibohd.dir/Output/HID-IO/hidio_com.c.obj
                0x00000000000081ea                HIDIO_modify_buffer
 .text.HIDIO_buffer_pop_bytes
                0x0000000000008214       0x4c CMakeFiles/kiibohd.dir/Output/HID-IO/hidio_com.c.obj
                0x0000000000008214                HIDIO_buffer_pop_bytes
 .text.HIDIO_buffer_free_bytes
                0x0000000000008260       0x14 CMakeFiles/kiibohd.dir/Output/HID-IO/hidio_com.c.obj
                0x0000000000008260                HIDIO_buffer_free_bytes
 .text.HIDIO_buffer_position
                0x0000000000008274       0x12 CMakeFiles/kiibohd.dir/Output/HID-IO/hidio_com.c.obj
                0x0000000000008274                HIDIO_buffer_position
 .text.HIDIO_buffer_id
                0x0000000000008286        0xe CMakeFiles/kiibohd.dir/Output/HID-IO/hidio_com.c.obj
                0x0000000000008286                HIDIO_buffer_id
 .text.HIDIO_payload_start
                0x0000000000008294        0xc CMakeFiles/kiibohd.dir/Output/HID-IO/hidio_com.c.obj
                0x0000000000008294                HIDIO_payload_start
 .text.HIDIO_buffer_generate_packet
                0x00000000000082a0      0x1d8 CMakeFiles/kiibohd.dir/Output/HID-IO/hidio_com.c.obj
                0x00000000000082a0                HIDIO_buffer_generate_packet
 .text.HIDIO_test_2_call
                0x0000000000008478       0xa8 CMakeFiles/kiibohd.dir/Output/HID-IO/hidio_com.c.obj
                0x0000000000008478                HIDIO_test_2_call
 .text.HIDIO_nopayload_ack
                0x0000000000008520       0x20 CMakeFiles/kiibohd.dir/Output/HID-IO/hidio_com.c.obj
                0x0000000000008520                HIDIO_nopayload_ack
 .text.HIDIO_register_id
                0x0000000000008540       0x48 CMakeFiles/kiibohd.dir/Output/HID-IO/hidio_com.c.obj
                0x0000000000008540                HIDIO_register_id
 .text.HIDIO_call_id
                0x0000000000008588       0x90 CMakeFiles/kiibohd.dir/Output/HID-IO/hidio_com.c.obj
                0x0000000000008588                HIDIO_call_id
 .text.HIDIO_reply_id
                0x0000000000008618       0x90 CMakeFiles/kiibohd.dir/Output/HID-IO/hidio_com.c.obj
                0x0000000000008618                HIDIO_reply_id
 .text.HIDIO_setup
                0x00000000000086a8       0xd8 CMakeFiles/kiibohd.dir/Output/HID-IO/hidio_com.c.obj
                0x00000000000086a8                HIDIO_setup
 .text.HIDIO_process_incoming_packet
                0x0000000000008780      0x228 CMakeFiles/kiibohd.dir/Output/HID-IO/hidio_com.c.obj
                0x0000000000008780                HIDIO_process_incoming_packet
 .text.HIDIO_process
                0x00000000000089a8       0x9c CMakeFiles/kiibohd.dir/Output/HID-IO/hidio_com.c.obj
                0x00000000000089a8                HIDIO_process
 .text.cliFunc_outputDebug
                0x0000000000008a44       0x2c CMakeFiles/kiibohd.dir/Output/Interface/output_gen.c.obj
                0x0000000000008a44                cliFunc_outputDebug
 .text.Output_flashMode_capability
                0x0000000000008a70       0x18 CMakeFiles/kiibohd.dir/Output/Interface/output_gen.c.obj
                0x0000000000008a70                Output_flashMode_capability
 .text.OutputGen_setup
                0x0000000000008a88       0x38 CMakeFiles/kiibohd.dir/Output/Interface/output_gen.c.obj
                0x0000000000008a88                OutputGen_setup
 .text.Output_current_available
                0x0000000000008ac0       0x18 CMakeFiles/kiibohd.dir/Output/Interface/output_gen.c.obj
                0x0000000000008ac0                Output_current_available
 .text.Output_update_usb_current
                0x0000000000008ad8       0x20 CMakeFiles/kiibohd.dir/Output/Interface/output_gen.c.obj
                0x0000000000008ad8                Output_update_usb_current
 .text.Output_update_external_current
                0x0000000000008af8       0x40 CMakeFiles/kiibohd.dir/Output/Interface/output_gen.c.obj
                0x0000000000008af8                Output_update_external_current
 .text.cliFunc_current
                0x0000000000008b38       0x30 CMakeFiles/kiibohd.dir/Output/Interface/output_gen.c.obj
                0x0000000000008b38                cliFunc_current
 .text.Output_setup
                0x0000000000008b68        0xe CMakeFiles/kiibohd.dir/Output/USB/output_com.c.obj
                0x0000000000008b68                Output_setup
 .text.Output_poll
                0x0000000000008b76        0x4 CMakeFiles/kiibohd.dir/Output/USB/output_com.c.obj
                0x0000000000008b76                Output_poll
 .text.Output_periodic
                0x0000000000008b7a        0x4 CMakeFiles/kiibohd.dir/Output/USB/output_com.c.obj
                0x0000000000008b7a                Output_periodic
 .text.Output_firmwareReload
                0x0000000000008b7e        0x4 CMakeFiles/kiibohd.dir/Output/USB/output_com.c.obj
                0x0000000000008b7e                Output_firmwareReload
 .text.Output_softReset
                0x0000000000008b82        0x4 CMakeFiles/kiibohd.dir/Output/USB/output_com.c.obj
                0x0000000000008b82                Output_softReset
 .text.Output_availablechar
                0x0000000000008b86        0x4 CMakeFiles/kiibohd.dir/Output/USB/output_com.c.obj
                0x0000000000008b86                Output_availablechar
 .text.Output_getchar
                0x0000000000008b8a        0x4 CMakeFiles/kiibohd.dir/Output/USB/output_com.c.obj
                0x0000000000008b8a                Output_getchar
 .text.Output_putstr
                0x0000000000008b8e        0x4 CMakeFiles/kiibohd.dir/Output/USB/output_com.c.obj
                0x0000000000008b8e                Output_putstr
 .text.Output_rawio_availablechar
                0x0000000000008b92        0x4 CMakeFiles/kiibohd.dir/Output/USB/output_com.c.obj
                0x0000000000008b92                Output_rawio_availablechar
 .text.Output_rawio_getbuffer
                0x0000000000008b96        0x4 CMakeFiles/kiibohd.dir/Output/USB/output_com.c.obj
                0x0000000000008b96                Output_rawio_getbuffer
 .text.Output_rawio_sendbuffer
                0x0000000000008b9a        0x4 CMakeFiles/kiibohd.dir/Output/USB/output_com.c.obj
                0x0000000000008b9a                Output_rawio_sendbuffer
 *fill*         0x0000000000008b9e        0x2 
 .text.cliFunc_idle
                0x0000000000008ba0       0x54 CMakeFiles/kiibohd.dir/Output/USB/output_usb.c.obj
                0x0000000000008ba0                cliFunc_idle
 .text.cliFunc_readLEDs
                0x0000000000008bf4       0x28 CMakeFiles/kiibohd.dir/Output/USB/output_usb.c.obj
                0x0000000000008bf4                cliFunc_readLEDs
 .text.cliFunc_usbInitTime
                0x0000000000008c1c       0x50 CMakeFiles/kiibohd.dir/Output/USB/output_usb.c.obj
                0x0000000000008c1c                cliFunc_usbInitTime
 .text.cliFunc_kbdProtocol
                0x0000000000008c6c       0x5c CMakeFiles/kiibohd.dir/Output/USB/output_usb.c.obj
                0x0000000000008c6c                cliFunc_kbdProtocol
 .text.Output_consCtrlSend_capability
                0x0000000000008cc8       0x44 CMakeFiles/kiibohd.dir/Output/USB/output_usb.c.obj
                0x0000000000008cc8                Output_consCtrlSend_capability
 .text.Output_noneSend_capability
                0x0000000000008d0c       0x14 CMakeFiles/kiibohd.dir/Output/USB/output_usb.c.obj
                0x0000000000008d0c                Output_noneSend_capability
 .text.Output_sysCtrlSend_capability
                0x0000000000008d20       0x44 CMakeFiles/kiibohd.dir/Output/USB/output_usb.c.obj
                0x0000000000008d20                Output_sysCtrlSend_capability
 .text.Output_usbMouse_capability
                0x0000000000008d64       0x84 CMakeFiles/kiibohd.dir/Output/USB/output_usb.c.obj
                0x0000000000008d64                Output_usbMouse_capability
 .text.USB_flushBuffers
                0x0000000000008de8       0x34 CMakeFiles/kiibohd.dir/Output/USB/output_usb.c.obj
                0x0000000000008de8                USB_flushBuffers
 .text.Output_kbdProtocolBoot_capability
                0x0000000000008e1c       0x40 CMakeFiles/kiibohd.dir/Output/USB/output_usb.c.obj
                0x0000000000008e1c                Output_kbdProtocolBoot_capability
 .text.Output_kbdProtocolNKRO_capability
                0x0000000000008e5c       0x40 CMakeFiles/kiibohd.dir/Output/USB/output_usb.c.obj
                0x0000000000008e5c                Output_kbdProtocolNKRO_capability
 .text.Output_toggleKbdProtocol_capability
                0x0000000000008e9c       0x44 CMakeFiles/kiibohd.dir/Output/USB/output_usb.c.obj
                0x0000000000008e9c                Output_toggleKbdProtocol_capability
 .text.Output_usbCodeSend_capability
                0x0000000000008ee0      0x224 CMakeFiles/kiibohd.dir/Output/USB/output_usb.c.obj
                0x0000000000008ee0                Output_usbCodeSend_capability
 .text.USB_setup
                0x0000000000009104       0x5c CMakeFiles/kiibohd.dir/Output/USB/output_usb.c.obj
                0x0000000000009104                USB_setup
 .text.USB_poll
                0x0000000000009160       0x24 CMakeFiles/kiibohd.dir/Output/USB/output_usb.c.obj
                0x0000000000009160                USB_poll
 .text.USB_periodic
                0x0000000000009184       0xac CMakeFiles/kiibohd.dir/Output/USB/output_usb.c.obj
                0x0000000000009184                USB_periodic
 .text.USB_firmwareReload
                0x0000000000009230        0x4 CMakeFiles/kiibohd.dir/Output/USB/output_usb.c.obj
                0x0000000000009230                USB_firmwareReload
 .text.USB_softReset
                0x0000000000009234       0x10 CMakeFiles/kiibohd.dir/Output/USB/output_usb.c.obj
                0x0000000000009234                USB_softReset
 .text.USB_availablechar
                0x0000000000009244        0x4 CMakeFiles/kiibohd.dir/Output/USB/output_usb.c.obj
                0x0000000000009244                USB_availablechar
 .text.USB_getchar
                0x0000000000009248        0x4 CMakeFiles/kiibohd.dir/Output/USB/output_usb.c.obj
                0x0000000000009248                USB_getchar
 .text.USB_putstr
                0x000000000000924c       0x10 CMakeFiles/kiibohd.dir/Output/USB/output_usb.c.obj
                0x000000000000924c                USB_putstr
 .text.USB_rawio_availablechar
                0x000000000000925c        0x4 CMakeFiles/kiibohd.dir/Output/USB/output_usb.c.obj
                0x000000000000925c                USB_rawio_availablechar
 .text.USB_rawio_getbuffer
                0x0000000000009260        0x6 CMakeFiles/kiibohd.dir/Output/USB/output_usb.c.obj
                0x0000000000009260                USB_rawio_getbuffer
 .text.USB_rawio_sendbuffer
                0x0000000000009266        0x6 CMakeFiles/kiibohd.dir/Output/USB/output_usb.c.obj
                0x0000000000009266                USB_rawio_sendbuffer
 .text.usb_set_config_descriptor_size
                0x000000000000926c       0x10 CMakeFiles/kiibohd.dir/Output/USB/arm/usb_desc.c.obj
                0x000000000000926c                usb_set_config_descriptor_size
 .text.endpoint0_transmit
                0x000000000000927c       0x40 CMakeFiles/kiibohd.dir/Output/USB/arm/usb_dev.c.obj
 .text.usb_device_check
                0x00000000000092bc       0x30 CMakeFiles/kiibohd.dir/Output/USB/arm/usb_dev.c.obj
                0x00000000000092bc                usb_device_check
 .text.usb_rx   0x00000000000092ec       0x38 CMakeFiles/kiibohd.dir/Output/USB/arm/usb_dev.c.obj
                0x00000000000092ec                usb_rx
 .text.usb_tx_packet_count
                0x0000000000009324       0x24 CMakeFiles/kiibohd.dir/Output/USB/arm/usb_dev.c.obj
                0x0000000000009324                usb_tx_packet_count
 .text.usb_rx_memory
                0x0000000000009348       0x78 CMakeFiles/kiibohd.dir/Output/USB/arm/usb_dev.c.obj
                0x0000000000009348                usb_rx_memory
 .text.usb_resume
                0x00000000000093c0       0x44 CMakeFiles/kiibohd.dir/Output/USB/arm/usb_dev.c.obj
                0x00000000000093c0                usb_resume
 .text.usb_tx   0x0000000000009404       0xa4 CMakeFiles/kiibohd.dir/Output/USB/arm/usb_dev.c.obj
                0x0000000000009404                usb_tx
 .text.usb_device_reload
                0x00000000000094a8       0x34 CMakeFiles/kiibohd.dir/Output/USB/arm/usb_dev.c.obj
                0x00000000000094a8                usb_device_reload
 .text.usb_isr  0x00000000000094dc      0x890 CMakeFiles/kiibohd.dir/Output/USB/arm/usb_dev.c.obj
                0x00000000000094dc                usb_isr
 .text.usb_init
                0x0000000000009d6c      0x120 CMakeFiles/kiibohd.dir/Output/USB/arm/usb_dev.c.obj
                0x0000000000009d6c                usb_init
 .text.usb_keyboard_send
                0x0000000000009e8c      0x2f4 CMakeFiles/kiibohd.dir/Output/USB/arm/usb_keyboard.c.obj
                0x0000000000009e8c                usb_keyboard_send
 .text.usb_keyboard_idle_update
                0x000000000000a180       0x4c CMakeFiles/kiibohd.dir/Output/USB/arm/usb_keyboard.c.obj
                0x000000000000a180                usb_keyboard_idle_update
 .text.usb_keyboard_clear
                0x000000000000a1cc       0x22 CMakeFiles/kiibohd.dir/Output/USB/arm/usb_keyboard.c.obj
                0x000000000000a1cc                usb_keyboard_clear
 *fill*         0x000000000000a1ee        0x2 
 .text.usb_malloc
                0x000000000000a1f0       0x3c CMakeFiles/kiibohd.dir/Output/USB/arm/usb_mem.c.obj
                0x000000000000a1f0                usb_malloc
 .text.usb_free
                0x000000000000a22c       0x44 CMakeFiles/kiibohd.dir/Output/USB/arm/usb_mem.c.obj
                0x000000000000a22c                usb_free
 .text.usb_mouse_send
                0x000000000000a270       0xb8 CMakeFiles/kiibohd.dir/Output/USB/arm/usb_mouse.c.obj
                0x000000000000a270                usb_mouse_send
 .text.usb_rawio_available
                0x000000000000a328       0x18 CMakeFiles/kiibohd.dir/Output/USB/arm/usb_rawio.c.obj
                0x000000000000a328                usb_rawio_available
 .text.usb_rawio_rx
                0x000000000000a340       0x6c CMakeFiles/kiibohd.dir/Output/USB/arm/usb_rawio.c.obj
                0x000000000000a340                usb_rawio_rx
 .text.usb_rawio_tx
                0x000000000000a3ac       0x7c CMakeFiles/kiibohd.dir/Output/USB/arm/usb_rawio.c.obj
                0x000000000000a3ac                usb_rawio_tx
 .text.usb_serial_getchar
                0x000000000000a428       0x4c CMakeFiles/kiibohd.dir/Output/USB/arm/usb_serial.c.obj
                0x000000000000a428                usb_serial_getchar
 .text.usb_serial_available
                0x000000000000a474       0x1c CMakeFiles/kiibohd.dir/Output/USB/arm/usb_serial.c.obj
                0x000000000000a474                usb_serial_available
 .text.usb_serial_write
                0x000000000000a490       0xdc CMakeFiles/kiibohd.dir/Output/USB/arm/usb_serial.c.obj
                0x000000000000a490                usb_serial_write
 .text.usb_serial_flush_callback
                0x000000000000a56c       0x48 CMakeFiles/kiibohd.dir/Output/USB/arm/usb_serial.c.obj
                0x000000000000a56c                usb_serial_flush_callback
 .text.cliFunc_clear
                0x000000000000a5b4        0xc CMakeFiles/kiibohd.dir/Debug/cli/cli.c.obj
                0x000000000000a5b4                cliFunc_clear
 .text.cliFunc_colorTest
                0x000000000000a5c0       0x1c CMakeFiles/kiibohd.dir/Debug/cli/cli.c.obj
                0x000000000000a5c0                cliFunc_colorTest
 .text.cliFunc_reload
                0x000000000000a5dc       0x24 CMakeFiles/kiibohd.dir/Debug/cli/cli.c.obj
                0x000000000000a5dc                cliFunc_reload
 .text.cliFunc_reset
                0x000000000000a600        0xc CMakeFiles/kiibohd.dir/Debug/cli/cli.c.obj
                0x000000000000a600                cliFunc_reset
 .text.cliFunc_help
                0x000000000000a60c       0xc0 CMakeFiles/kiibohd.dir/Debug/cli/cli.c.obj
                0x000000000000a60c                cliFunc_help
 .text.cliFunc_led
                0x000000000000a6cc       0x14 CMakeFiles/kiibohd.dir/Debug/cli/cli.c.obj
                0x000000000000a6cc                cliFunc_led
 .text.cliFunc_restart
                0x000000000000a6e0        0x4 CMakeFiles/kiibohd.dir/Debug/cli/cli.c.obj
                0x000000000000a6e0                cliFunc_restart
 .text.cliFunc_tick
                0x000000000000a6e4       0x5c CMakeFiles/kiibohd.dir/Debug/cli/cli.c.obj
                0x000000000000a6e4                cliFunc_tick
 .text.cliFunc_cliDebug
                0x000000000000a740       0x38 CMakeFiles/kiibohd.dir/Debug/cli/cli.c.obj
                0x000000000000a740                cliFunc_cliDebug
 .text.cliFunc_rand
                0x000000000000a778       0x38 CMakeFiles/kiibohd.dir/Debug/cli/cli.c.obj
                0x000000000000a778                cliFunc_rand
 .text.ChipVersion_cpuid_partno
                0x000000000000a7b0       0x28 CMakeFiles/kiibohd.dir/Debug/cli/cli.c.obj
                0x000000000000a7b0                ChipVersion_cpuid_partno
 .text.ChipVersion_cpuid_implementor
                0x000000000000a7d8       0x20 CMakeFiles/kiibohd.dir/Debug/cli/cli.c.obj
                0x000000000000a7d8                ChipVersion_cpuid_implementor
 .text.ChipVersion_lookup
                0x000000000000a7f8       0xa4 CMakeFiles/kiibohd.dir/Debug/cli/cli.c.obj
                0x000000000000a7f8                ChipVersion_lookup
 .text.cliFunc_version
                0x000000000000a89c      0x338 CMakeFiles/kiibohd.dir/Debug/cli/cli.c.obj
                0x000000000000a89c                cliFunc_version
 .text.prompt   0x000000000000abd4       0x1c CMakeFiles/kiibohd.dir/Debug/cli/cli.c.obj
                0x000000000000abd4                prompt
 .text.CLI_argumentIsolation
                0x000000000000abf0       0x2c CMakeFiles/kiibohd.dir/Debug/cli/cli.c.obj
                0x000000000000abf0                CLI_argumentIsolation
 .text.cliFunc_periodic
                0x000000000000ac1c       0x3c CMakeFiles/kiibohd.dir/Debug/cli/cli.c.obj
                0x000000000000ac1c                cliFunc_periodic
 .text.CLI_commandLookup
                0x000000000000ac58       0xcc CMakeFiles/kiibohd.dir/Debug/cli/cli.c.obj
                0x000000000000ac58                CLI_commandLookup
 .text.CLI_registerDictionary
                0x000000000000ad24       0x38 CMakeFiles/kiibohd.dir/Debug/cli/cli.c.obj
                0x000000000000ad24                CLI_registerDictionary
 .text.CLI_init
                0x000000000000ad5c       0x58 CMakeFiles/kiibohd.dir/Debug/cli/cli.c.obj
                0x000000000000ad5c                CLI_init
 .text.CLI_tabCompletion
                0x000000000000adb4       0xb8 CMakeFiles/kiibohd.dir/Debug/cli/cli.c.obj
                0x000000000000adb4                CLI_tabCompletion
 .text.CLI_wrap
                0x000000000000ae6c       0x28 CMakeFiles/kiibohd.dir/Debug/cli/cli.c.obj
                0x000000000000ae6c                CLI_wrap
 .text.CLI_saveHistory
                0x000000000000ae94       0x50 CMakeFiles/kiibohd.dir/Debug/cli/cli.c.obj
                0x000000000000ae94                CLI_saveHistory
 .text.CLI_retreiveHistory
                0x000000000000aee4       0x44 CMakeFiles/kiibohd.dir/Debug/cli/cli.c.obj
                0x000000000000aee4                CLI_retreiveHistory
 .text.CLI_process
                0x000000000000af28      0x208 CMakeFiles/kiibohd.dir/Debug/cli/cli.c.obj
                0x000000000000af28                CLI_process
 .text.printLatency
                0x000000000000b130       0x80 CMakeFiles/kiibohd.dir/Debug/cli/cli.c.obj
                0x000000000000b130                printLatency
 .text.cliFunc_latency
                0x000000000000b1b0       0x6c CMakeFiles/kiibohd.dir/Debug/cli/cli.c.obj
                0x000000000000b1b0                cliFunc_latency
 .text.Latency_init
                0x000000000000b21c       0x20 CMakeFiles/kiibohd.dir/Debug/latency/latency.c.obj
                0x000000000000b21c                Latency_init
 .text.Latency_resources
                0x000000000000b23c        0xc CMakeFiles/kiibohd.dir/Debug/latency/latency.c.obj
                0x000000000000b23c                Latency_resources
 .text.Latency_add_resource
                0x000000000000b248       0x3c CMakeFiles/kiibohd.dir/Debug/latency/latency.c.obj
                0x000000000000b248                Latency_add_resource
 .text.Latency_query
                0x000000000000b284       0x54 CMakeFiles/kiibohd.dir/Debug/latency/latency.c.obj
                0x000000000000b284                Latency_query
 .text.Latency_query_name
                0x000000000000b2d8       0x10 CMakeFiles/kiibohd.dir/Debug/latency/latency.c.obj
                0x000000000000b2d8                Latency_query_name
 .text.Latency_start_time
                0x000000000000b2e8       0x24 CMakeFiles/kiibohd.dir/Debug/latency/latency.c.obj
                0x000000000000b2e8                Latency_start_time
 .text.Latency_end_time
                0x000000000000b30c       0x8c CMakeFiles/kiibohd.dir/Debug/latency/latency.c.obj
                0x000000000000b30c                Latency_end_time
 .text.init_errorLED
                0x000000000000b398       0x1c CMakeFiles/kiibohd.dir/Debug/led/led.c.obj
                0x000000000000b398                init_errorLED
 .text.errorLED
                0x000000000000b3b4       0x1c CMakeFiles/kiibohd.dir/Debug/led/led.c.obj
                0x000000000000b3b4                errorLED
 .text.printstrs
                0x000000000000b3d0       0x30 CMakeFiles/kiibohd.dir/Debug/print/print.c.obj
                0x000000000000b3d0                printstrs
 .text._print   0x000000000000b400        0x4 CMakeFiles/kiibohd.dir/Debug/print/print.c.obj
                0x000000000000b400                _print
 .text.lenStr   0x000000000000b404       0x12 CMakeFiles/kiibohd.dir/Debug/print/print.c.obj
                0x000000000000b404                lenStr
 .text.revsStr  0x000000000000b416       0x26 CMakeFiles/kiibohd.dir/Debug/print/print.c.obj
                0x000000000000b416                revsStr
 .text.int8ToStr
                0x000000000000b43c       0x28 CMakeFiles/kiibohd.dir/Debug/print/print.c.obj
                0x000000000000b43c                int8ToStr
 .text.printInt8
                0x000000000000b464       0x14 CMakeFiles/kiibohd.dir/Debug/print/print.c.obj
                0x000000000000b464                printInt8
 .text.int16ToStr
                0x000000000000b478       0x28 CMakeFiles/kiibohd.dir/Debug/print/print.c.obj
                0x000000000000b478                int16ToStr
 .text.printInt16
                0x000000000000b4a0       0x14 CMakeFiles/kiibohd.dir/Debug/print/print.c.obj
                0x000000000000b4a0                printInt16
 .text.int32ToStr
                0x000000000000b4b4       0x2a CMakeFiles/kiibohd.dir/Debug/print/print.c.obj
                0x000000000000b4b4                int32ToStr
 .text.printInt32
                0x000000000000b4de       0x14 CMakeFiles/kiibohd.dir/Debug/print/print.c.obj
                0x000000000000b4de                printInt32
 .text.hexToStr_op
                0x000000000000b4f2       0x5e CMakeFiles/kiibohd.dir/Debug/print/print.c.obj
                0x000000000000b4f2                hexToStr_op
 .text.printHex_op
                0x000000000000b550       0x16 CMakeFiles/kiibohd.dir/Debug/print/print.c.obj
                0x000000000000b550                printHex_op
 .text.hex32ToStr_op
                0x000000000000b566       0x5a CMakeFiles/kiibohd.dir/Debug/print/print.c.obj
                0x000000000000b566                hex32ToStr_op
 .text.printHex32_op
                0x000000000000b5c0       0x16 CMakeFiles/kiibohd.dir/Debug/print/print.c.obj
                0x000000000000b5c0                printHex32_op
 .text.hex32ToStr16
                0x000000000000b5d6       0x28 CMakeFiles/kiibohd.dir/Debug/print/print.c.obj
                0x000000000000b5d6                hex32ToStr16
 .text.eqStr    0x000000000000b5fe       0x28 CMakeFiles/kiibohd.dir/Debug/print/print.c.obj
                0x000000000000b5fe                eqStr
 .text.numToInt
                0x000000000000b626       0x82 CMakeFiles/kiibohd.dir/Debug/print/print.c.obj
                0x000000000000b626                numToInt
 *(.rodata*)
 .rodata.bus_fault_default_isr.str1.1
                0x000000000000b6a8       0x22 CMakeFiles/kiibohd.dir/Lib/kinetis.c.obj
 .rodata.fault_isr.str1.1
                0x000000000000b6ca       0x22 CMakeFiles/kiibohd.dir/Lib/kinetis.c.obj
                                          0x9 (size before relaxing)
 .rodata.hard_fault_default_isr.str1.1
                0x000000000000b6ca       0x17 CMakeFiles/kiibohd.dir/Lib/kinetis.c.obj
                                         0x1a (size before relaxing)
 .rodata.memmanage_fault_default_isr.str1.1
                0x000000000000b6e1       0x2d CMakeFiles/kiibohd.dir/Lib/kinetis.c.obj
 .rodata.nmi_default_isr.str1.1
                0x000000000000b70e        0x7 CMakeFiles/kiibohd.dir/Lib/kinetis.c.obj
 .rodata.sys_reset_to_loader_magic
                0x000000000000b715       0x16 CMakeFiles/kiibohd.dir/Lib/kinetis.c.obj
                0x000000000000b715                sys_reset_to_loader_magic
 .rodata.usage_fault_default_isr.str1.1
                0x000000000000b72b       0x18 CMakeFiles/kiibohd.dir/Lib/kinetis.c.obj
 .rodata.watchdog_default_isr.str1.1
                0x000000000000b743       0x2a CMakeFiles/kiibohd.dir/Lib/kinetis.c.obj
                                         0x2c (size before relaxing)
 .rodata.str1.1
                0x000000000000b76d        0xa CMakeFiles/kiibohd.dir/Lib/time.c.obj
 .rodata.i2c_isr.str1.1
                0x000000000000b777       0x53 CMakeFiles/kiibohd.dir/Scan/Devices/ISSILed/i2c.c.obj
                                         0x56 (size before relaxing)
 .rodata.i2c_send_sequence.str1.1
                0x000000000000b7ca       0x28 CMakeFiles/kiibohd.dir/Scan/Devices/ISSILed/i2c.c.obj
 .rodata.LED_control_capability.str1.1
                0x000000000000b7f2       0x24 CMakeFiles/kiibohd.dir/Scan/Devices/ISSILed/led_scan.c.obj
 .rodata.LED_ledEnableMask
                0x000000000000b816       0x28 CMakeFiles/kiibohd.dir/Scan/Devices/ISSILed/led_scan.c.obj
                0x000000000000b816                LED_ledEnableMask
 .rodata.LED_scan.str1.1
                0x000000000000b83e       0x46 CMakeFiles/kiibohd.dir/Scan/Devices/ISSILed/led_scan.c.obj
 .rodata.LED_setup.str1.1
                0x000000000000b884        0x8 CMakeFiles/kiibohd.dir/Scan/Devices/ISSILed/led_scan.c.obj
 .rodata.cliFunc_ledFPS.str1.1
                0x000000000000b88c       0x49 CMakeFiles/kiibohd.dir/Scan/Devices/ISSILed/led_scan.c.obj
 .rodata.cliFunc_ledSet.str1.1
                0x000000000000b8d5       0x25 CMakeFiles/kiibohd.dir/Scan/Devices/ISSILed/led_scan.c.obj
 .rodata.cliFunc_ledToggle.str1.1
                0x000000000000b8fa       0x1e CMakeFiles/kiibohd.dir/Scan/Devices/ISSILed/led_scan.c.obj
                                         0x21 (size before relaxing)
 .rodata.ledCLIDict
                0x000000000000b918       0x48 CMakeFiles/kiibohd.dir/Scan/Devices/ISSILed/led_scan.c.obj
                0x000000000000b918                ledCLIDict
 .rodata.ledCLIDictName
                0x000000000000b960       0x19 CMakeFiles/kiibohd.dir/Scan/Devices/ISSILed/led_scan.c.obj
                0x000000000000b960                ledCLIDictName
 .rodata.ledCheckCLIDict_DescEntry
                0x000000000000b979       0x36 CMakeFiles/kiibohd.dir/Scan/Devices/ISSILed/led_scan.c.obj
                0x000000000000b979                ledCheckCLIDict_DescEntry
 .rodata.ledFPSCLIDict_DescEntry
                0x000000000000b9af       0x30 CMakeFiles/kiibohd.dir/Scan/Devices/ISSILed/led_scan.c.obj
                0x000000000000b9af                ledFPSCLIDict_DescEntry
 .rodata.ledResetCLIDict_DescEntry
                0x000000000000b9df       0x12 CMakeFiles/kiibohd.dir/Scan/Devices/ISSILed/led_scan.c.obj
                0x000000000000b9df                ledResetCLIDict_DescEntry
 .rodata.ledSetCLIDict_DescEntry
                0x000000000000b9f1       0x1d CMakeFiles/kiibohd.dir/Scan/Devices/ISSILed/led_scan.c.obj
                0x000000000000b9f1                ledSetCLIDict_DescEntry
 .rodata.ledToggleCLIDict_DescEntry
                0x000000000000ba0e       0x1f CMakeFiles/kiibohd.dir/Scan/Devices/ISSILed/led_scan.c.obj
                0x000000000000ba0e                ledToggleCLIDict_DescEntry
 .rodata.str1.1
                0x000000000000ba2d       0x2a CMakeFiles/kiibohd.dir/Scan/Devices/ISSILed/led_scan.c.obj
 .rodata.Matrix_keyPositionDebug.str1.1
                0x000000000000ba57       0x3e CMakeFiles/kiibohd.dir/Scan/Devices/MatrixARMPeriodic/matrix_scan.c.obj
 .rodata.Matrix_setup.str1.1
                0x000000000000ba95        0xe CMakeFiles/kiibohd.dir/Scan/Devices/MatrixARMPeriodic/matrix_scan.c.obj
 .rodata.Matrix_single_scan.str1.1
                0x000000000000baa3       0x99 CMakeFiles/kiibohd.dir/Scan/Devices/MatrixARMPeriodic/matrix_scan.c.obj
                                         0xa2 (size before relaxing)
 .rodata.cliFunc_debounce.str1.1
                0x000000000000bb3c       0x23 CMakeFiles/kiibohd.dir/Scan/Devices/MatrixARMPeriodic/matrix_scan.c.obj
                                         0x29 (size before relaxing)
 .rodata.cliFunc_matrixDebug.str1.1
                0x000000000000bb5f       0x26 CMakeFiles/kiibohd.dir/Scan/Devices/MatrixARMPeriodic/matrix_scan.c.obj
 .rodata.cliFunc_matrixInfo.str1.1
                0x000000000000bb85       0x57 CMakeFiles/kiibohd.dir/Scan/Devices/MatrixARMPeriodic/matrix_scan.c.obj
 .rodata.cliFunc_strobeDelay.str1.1
                0x000000000000bbdc       0x21 CMakeFiles/kiibohd.dir/Scan/Devices/MatrixARMPeriodic/matrix_scan.c.obj
                                         0x24 (size before relaxing)
 .rodata.debounceCLIDict_DescEntry
                0x000000000000bbfd       0x39 CMakeFiles/kiibohd.dir/Scan/Devices/MatrixARMPeriodic/matrix_scan.c.obj
                0x000000000000bbfd                debounceCLIDict_DescEntry
 *fill*         0x000000000000bc36        0x2 
 .rodata.matrixCLIDict
                0x000000000000bc38       0x48 CMakeFiles/kiibohd.dir/Scan/Devices/MatrixARMPeriodic/matrix_scan.c.obj
                0x000000000000bc38                matrixCLIDict
 .rodata.matrixCLIDictName
                0x000000000000bc80       0x17 CMakeFiles/kiibohd.dir/Scan/Devices/MatrixARMPeriodic/matrix_scan.c.obj
                0x000000000000bc80                matrixCLIDictName
 .rodata.matrixDebugCLIDict_DescEntry
                0x000000000000bc97       0x86 CMakeFiles/kiibohd.dir/Scan/Devices/MatrixARMPeriodic/matrix_scan.c.obj
                0x000000000000bc97                matrixDebugCLIDict_DescEntry
 .rodata.matrixInfoCLIDict_DescEntry
                0x000000000000bd1d       0x28 CMakeFiles/kiibohd.dir/Scan/Devices/MatrixARMPeriodic/matrix_scan.c.obj
                0x000000000000bd1d                matrixInfoCLIDict_DescEntry
 .rodata.matrixStateCLIDict_DescEntry
                0x000000000000bd45       0x9a CMakeFiles/kiibohd.dir/Scan/Devices/MatrixARMPeriodic/matrix_scan.c.obj
                0x000000000000bd45                matrixStateCLIDict_DescEntry
 .rodata.str1.1
                0x000000000000bddf       0x38 CMakeFiles/kiibohd.dir/Scan/Devices/MatrixARMPeriodic/matrix_scan.c.obj
 .rodata.strobeDelayCLIDict_DescEntry
                0x000000000000be17       0x3c CMakeFiles/kiibohd.dir/Scan/Devices/MatrixARMPeriodic/matrix_scan.c.obj
                0x000000000000be17                strobeDelayCLIDict_DescEntry
 *fill*         0x000000000000be53        0x1 
 .rodata        0x000000000000be54      0x53c CMakeFiles/kiibohd.dir/Scan/Devices/STLcd/lcd_scan.c.obj
 .rodata.LCD_layerStackExact_capability.str1.1
                0x000000000000c390       0x40 CMakeFiles/kiibohd.dir/Scan/Devices/STLcd/lcd_scan.c.obj
 .rodata.LCD_layerStack_capability.str1.1
                0x000000000000c3d0       0x1c CMakeFiles/kiibohd.dir/Scan/Devices/STLcd/lcd_scan.c.obj
 .rodata.LCD_setup.str1.1
                0x000000000000c3ec        0x6 CMakeFiles/kiibohd.dir/Scan/Devices/STLcd/lcd_scan.c.obj
 .rodata.STLcdDefaultImage
                0x000000000000c3f2      0x200 CMakeFiles/kiibohd.dir/Scan/Devices/STLcd/lcd_scan.c.obj
                0x000000000000c3f2                STLcdDefaultImage
 .rodata.cliFunc_lcdCmd.str1.1
                0x000000000000c5f2       0x5b CMakeFiles/kiibohd.dir/Scan/Devices/STLcd/lcd_scan.c.obj
                                         0x5e (size before relaxing)
 *fill*         0x000000000000c64d        0x3 
 .rodata.lcdCLIDict
                0x000000000000c650       0x48 CMakeFiles/kiibohd.dir/Scan/Devices/STLcd/lcd_scan.c.obj
                0x000000000000c650                lcdCLIDict
 .rodata.lcdCLIDictName
                0x000000000000c698       0x17 CMakeFiles/kiibohd.dir/Scan/Devices/STLcd/lcd_scan.c.obj
                0x000000000000c698                lcdCLIDictName
 .rodata.lcdCmdCLIDict_DescEntry
                0x000000000000c6af       0x44 CMakeFiles/kiibohd.dir/Scan/Devices/STLcd/lcd_scan.c.obj
                0x000000000000c6af                lcdCmdCLIDict_DescEntry
 .rodata.lcdColorCLIDict_DescEntry
                0x000000000000c6f3       0x45 CMakeFiles/kiibohd.dir/Scan/Devices/STLcd/lcd_scan.c.obj
                0x000000000000c6f3                lcdColorCLIDict_DescEntry
 .rodata.lcdDispCLIDict_DescEntry
                0x000000000000c738       0x4e CMakeFiles/kiibohd.dir/Scan/Devices/STLcd/lcd_scan.c.obj
                0x000000000000c738                lcdDispCLIDict_DescEntry
 .rodata.lcdInitCLIDict_DescEntry
                0x000000000000c786       0x1f CMakeFiles/kiibohd.dir/Scan/Devices/STLcd/lcd_scan.c.obj
                0x000000000000c786                lcdInitCLIDict_DescEntry
 .rodata.lcdTestCLIDict_DescEntry
                0x000000000000c7a5       0x1a CMakeFiles/kiibohd.dir/Scan/Devices/STLcd/lcd_scan.c.obj
                0x000000000000c7a5                lcdTestCLIDict_DescEntry
 .rodata.str1.1
                0x000000000000c7bf       0x28 CMakeFiles/kiibohd.dir/Scan/Devices/STLcd/lcd_scan.c.obj
 *fill*         0x000000000000c7e7        0x1 
 .rodata        0x000000000000c7e8       0x2f CMakeFiles/kiibohd.dir/Scan/Devices/UARTConnect/connect_scan.c.obj
 .rodata.Connect_addBytes.part.1.str1.1
                0x000000000000c817       0x45 CMakeFiles/kiibohd.dir/Scan/Devices/UARTConnect/connect_scan.c.obj
 .rodata.Connect_addBytes.str1.1
                0x000000000000c85c       0x78 CMakeFiles/kiibohd.dir/Scan/Devices/UARTConnect/connect_scan.c.obj
 .rodata.Connect_receive_Animation.str1.1
                0x000000000000c8d4       0x1f CMakeFiles/kiibohd.dir/Scan/Devices/UARTConnect/connect_scan.c.obj
 .rodata.Connect_receive_CableCheck.str1.1
                0x000000000000c8f3       0x81 CMakeFiles/kiibohd.dir/Scan/Devices/UARTConnect/connect_scan.c.obj
                                         0x83 (size before relaxing)
 .rodata.Connect_receive_IdEnumeration.str1.1
                0x000000000000c974       0x5d CMakeFiles/kiibohd.dir/Scan/Devices/UARTConnect/connect_scan.c.obj
 .rodata.Connect_receive_IdReport.str1.1
                0x000000000000c9d1       0x3e CMakeFiles/kiibohd.dir/Scan/Devices/UARTConnect/connect_scan.c.obj
 .rodata.Connect_receive_IdRequest.str1.1
                0x000000000000ca0f       0x55 CMakeFiles/kiibohd.dir/Scan/Devices/UARTConnect/connect_scan.c.obj
 .rodata.Connect_receive_ScanCode.str1.1
                0x000000000000ca64       0x90 CMakeFiles/kiibohd.dir/Scan/Devices/UARTConnect/connect_scan.c.obj
 .rodata.Connect_rx_process.str1.1
                0x000000000000caf4       0x4a CMakeFiles/kiibohd.dir/Scan/Devices/UARTConnect/connect_scan.c.obj
 .rodata.Connect_scan.str1.1
                0x000000000000cb3e       0x18 CMakeFiles/kiibohd.dir/Scan/Devices/UARTConnect/connect_scan.c.obj
 .rodata.Connect_setup.str1.1
                0x000000000000cb56        0xc CMakeFiles/kiibohd.dir/Scan/Devices/UARTConnect/connect_scan.c.obj
 .rodata.cliFunc_connectDbg.str1.1
                0x000000000000cb62       0x2c CMakeFiles/kiibohd.dir/Scan/Devices/UARTConnect/connect_scan.c.obj
                                         0x2f (size before relaxing)
 .rodata.cliFunc_connectIdl.str1.1
                0x000000000000cb8e       0x28 CMakeFiles/kiibohd.dir/Scan/Devices/UARTConnect/connect_scan.c.obj
 .rodata.cliFunc_connectLst.str1.1
                0x000000000000cbb6       0x2f CMakeFiles/kiibohd.dir/Scan/Devices/UARTConnect/connect_scan.c.obj
                                         0x33 (size before relaxing)
 .rodata.cliFunc_connectMst.str1.1
                0x000000000000cbe5       0x57 CMakeFiles/kiibohd.dir/Scan/Devices/UARTConnect/connect_scan.c.obj
 .rodata.cliFunc_connectRst.str1.1
                0x000000000000cc3c       0x31 CMakeFiles/kiibohd.dir/Scan/Devices/UARTConnect/connect_scan.c.obj
 .rodata.cliFunc_connectSts.str1.1
                0x000000000000cc6d       0xa4 CMakeFiles/kiibohd.dir/Scan/Devices/UARTConnect/connect_scan.c.obj
                                         0xa6 (size before relaxing)
 .rodata.connectCmdCLIDict_DescEntry
                0x000000000000cd11       0x6c CMakeFiles/kiibohd.dir/Scan/Devices/UARTConnect/connect_scan.c.obj
                0x000000000000cd11                connectCmdCLIDict_DescEntry
 .rodata.connectDbgCLIDict_DescEntry
                0x000000000000cd7d       0x1f CMakeFiles/kiibohd.dir/Scan/Devices/UARTConnect/connect_scan.c.obj
                0x000000000000cd7d                connectDbgCLIDict_DescEntry
 .rodata.connectIdlCLIDict_DescEntry
                0x000000000000cd9c       0x61 CMakeFiles/kiibohd.dir/Scan/Devices/UARTConnect/connect_scan.c.obj
                0x000000000000cd9c                connectIdlCLIDict_DescEntry
 .rodata.connectLstCLIDict_DescEntry
                0x000000000000cdfd       0x32 CMakeFiles/kiibohd.dir/Scan/Devices/UARTConnect/connect_scan.c.obj
                0x000000000000cdfd                connectLstCLIDict_DescEntry
 .rodata.connectMstCLIDict_DescEntry
                0x000000000000ce2f       0x3e CMakeFiles/kiibohd.dir/Scan/Devices/UARTConnect/connect_scan.c.obj
                0x000000000000ce2f                connectMstCLIDict_DescEntry
 .rodata.connectRstCLIDict_DescEntry
                0x000000000000ce6d       0x3b CMakeFiles/kiibohd.dir/Scan/Devices/UARTConnect/connect_scan.c.obj
                0x000000000000ce6d                connectRstCLIDict_DescEntry
 .rodata.connectStsCLIDict_DescEntry
                0x000000000000cea8       0x14 CMakeFiles/kiibohd.dir/Scan/Devices/UARTConnect/connect_scan.c.obj
                0x000000000000cea8                connectStsCLIDict_DescEntry
 .rodata.str1.1
                0x000000000000cebc       0xb6 CMakeFiles/kiibohd.dir/Scan/Devices/UARTConnect/connect_scan.c.obj
 *fill*         0x000000000000cf72        0x2 
 .rodata.uartConnectCLIDict
                0x000000000000cf74       0x60 CMakeFiles/kiibohd.dir/Scan/Devices/UARTConnect/connect_scan.c.obj
                0x000000000000cf74                uartConnectCLIDict
 .rodata.uartConnectCLIDictName
                0x000000000000cfd4       0x1c CMakeFiles/kiibohd.dir/Scan/Devices/UARTConnect/connect_scan.c.obj
                0x000000000000cfd4                uartConnectCLIDictName
 .rodata.CapabilitiesList
                0x000000000000cff0       0xa8 CMakeFiles/kiibohd.dir/Macro/PartialMap/macro.c.obj
                0x000000000000cff0                CapabilitiesList
 .rodata.InterconnectOffsetList
                0x000000000000d098        0x3 CMakeFiles/kiibohd.dir/Macro/PartialMap/macro.c.obj
                0x000000000000d098                InterconnectOffsetList
 *fill*         0x000000000000d09b        0x1 
 .rodata.LayerIndex
                0x000000000000d09c       0x18 CMakeFiles/kiibohd.dir/Macro/PartialMap/macro.c.obj
                0x000000000000d09c                LayerIndex
 .rodata.Macro_keyState.str1.1
                0x000000000000d0b4       0x3c CMakeFiles/kiibohd.dir/Macro/PartialMap/macro.c.obj
 .rodata.Macro_layerLatch_capability.str1.1
                0x000000000000d0f0       0x1d CMakeFiles/kiibohd.dir/Macro/PartialMap/macro.c.obj
 .rodata.Macro_layerLock_capability.str1.1
                0x000000000000d10d       0x1c CMakeFiles/kiibohd.dir/Macro/PartialMap/macro.c.obj
 .rodata.Macro_layerLookup.str1.1
                0x000000000000d129       0x3a CMakeFiles/kiibohd.dir/Macro/PartialMap/macro.c.obj
 .rodata.Macro_layerRotate_capability.str1.1
                0x000000000000d163       0x1c CMakeFiles/kiibohd.dir/Macro/PartialMap/macro.c.obj
 .rodata.Macro_layerShift_capability.str1.1
                0x000000000000d17f       0x1d CMakeFiles/kiibohd.dir/Macro/PartialMap/macro.c.obj
 .rodata.Macro_layerState.part.1.str1.1
                0x000000000000d19c       0x1d CMakeFiles/kiibohd.dir/Macro/PartialMap/macro.c.obj
                                         0x1f (size before relaxing)
 .rodata.Macro_layerState_capability.str1.1
                0x000000000000d1b9       0x28 CMakeFiles/kiibohd.dir/Macro/PartialMap/macro.c.obj
 .rodata.Macro_periodic.str1.1
                0x000000000000d1e1       0xaa CMakeFiles/kiibohd.dir/Macro/PartialMap/macro.c.obj
 .rodata.Macro_pressReleaseAdd.str1.1
                0x000000000000d28b       0x8c CMakeFiles/kiibohd.dir/Macro/PartialMap/macro.c.obj
 .rodata.Macro_setup.str1.1
                0x000000000000d317        0xb CMakeFiles/kiibohd.dir/Macro/PartialMap/macro.c.obj
 .rodata.Macro_showSchedule.str1.1
                0x000000000000d322        0x2 CMakeFiles/kiibohd.dir/Macro/PartialMap/macro.c.obj
 .rodata.Macro_showScheduleType.str1.1
                0x000000000000d324       0x25 CMakeFiles/kiibohd.dir/Macro/PartialMap/macro.c.obj
                                         0x5c (size before relaxing)
 .rodata.Macro_showTriggerType.str1.1
                0x000000000000d349       0x18 CMakeFiles/kiibohd.dir/Macro/PartialMap/macro.c.obj
 *fill*         0x000000000000d361        0x3 
 .rodata.ResultMacroList
                0x000000000000d364      0x18c CMakeFiles/kiibohd.dir/Macro/PartialMap/macro.c.obj
                0x000000000000d364                ResultMacroList
 .rodata.TriggerMacroList
                0x000000000000d4f0      0x338 CMakeFiles/kiibohd.dir/Macro/PartialMap/macro.c.obj
                0x000000000000d4f0                TriggerMacroList
 .rodata.capListCLIDict_DescEntry
                0x000000000000d828       0x3c CMakeFiles/kiibohd.dir/Macro/PartialMap/macro.c.obj
                0x000000000000d828                capListCLIDict_DescEntry
 .rodata.capSelectCLIDict_DescEntry
                0x000000000000d864       0x76 CMakeFiles/kiibohd.dir/Macro/PartialMap/macro.c.obj
                0x000000000000d864                capSelectCLIDict_DescEntry
 .rodata.cliFunc_capList.str1.1
                0x000000000000d8da       0x29 CMakeFiles/kiibohd.dir/Macro/PartialMap/macro.c.obj
                                         0x2d (size before relaxing)
 .rodata.cliFunc_capSelect.str1.1
                0x000000000000d903       0xaa CMakeFiles/kiibohd.dir/Macro/PartialMap/macro.c.obj
                                         0xb0 (size before relaxing)
 .rodata.cliFunc_layerDebug.str1.1
                0x000000000000d9ad       0x25 CMakeFiles/kiibohd.dir/Macro/PartialMap/macro.c.obj
 .rodata.cliFunc_layerList.str1.1
                0x000000000000d9d2      0x948 CMakeFiles/kiibohd.dir/Macro/PartialMap/macro.c.obj
                                        0x94d (size before relaxing)
 .rodata.cliFunc_layerState.str1.1
                0x000000000000e31a       0x29 CMakeFiles/kiibohd.dir/Macro/PartialMap/macro.c.obj
 .rodata.cliFunc_macroDebug.str1.1
                0x000000000000e343       0x25 CMakeFiles/kiibohd.dir/Macro/PartialMap/macro.c.obj
 .rodata.cliFunc_macroList.str1.1
                0x000000000000e368      0x117 CMakeFiles/kiibohd.dir/Macro/PartialMap/macro.c.obj
                                        0x119 (size before relaxing)
 .rodata.cliFunc_macroProc.str1.1
                0x000000000000e47f       0x2a CMakeFiles/kiibohd.dir/Macro/PartialMap/macro.c.obj
 .rodata.cliFunc_posList.str1.1
                0x000000000000e4a9        0x3 CMakeFiles/kiibohd.dir/Macro/PartialMap/macro.c.obj
 .rodata.cliFunc_voteDebug.str1.1
                0x000000000000e4a9       0x24 CMakeFiles/kiibohd.dir/Macro/PartialMap/macro.c.obj
 *fill*         0x000000000000e4cd        0x3 
 .rodata.default_tl_0x00
                0x000000000000e4d0        0x4 CMakeFiles/kiibohd.dir/Macro/PartialMap/macro.c.obj
                0x000000000000e4d0                default_tl_0x00
 .rodata.default_tl_0x01
                0x000000000000e4d4        0x4 CMakeFiles/kiibohd.dir/Macro/PartialMap/macro.c.obj
                0x000000000000e4d4                default_tl_0x01
 .rodata.default_tl_0x02
                0x000000000000e4d8        0x4 CMakeFiles/kiibohd.dir/Macro/PartialMap/macro.c.obj
                0x000000000000e4d8                default_tl_0x02
 .rodata.default_tl_0x03
                0x000000000000e4dc        0x8 CMakeFiles/kiibohd.dir/Macro/PartialMap/macro.c.obj
                0x000000000000e4dc                default_tl_0x03
 .rodata.default_tl_0x04
                0x000000000000e4e4        0x8 CMakeFiles/kiibohd.dir/Macro/PartialMap/macro.c.obj
                0x000000000000e4e4                default_tl_0x04
 .rodata.default_tl_0x05
                0x000000000000e4ec        0x8 CMakeFiles/kiibohd.dir/Macro/PartialMap/macro.c.obj
                0x000000000000e4ec                default_tl_0x05
 .rodata.default_tl_0x06
                0x000000000000e4f4        0x8 CMakeFiles/kiibohd.dir/Macro/PartialMap/macro.c.obj
                0x000000000000e4f4                default_tl_0x06
 .rodata.default_tl_0x07
                0x000000000000e4fc        0x8 CMakeFiles/kiibohd.dir/Macro/PartialMap/macro.c.obj
                0x000000000000e4fc                default_tl_0x07
 .rodata.default_tl_0x08
                0x000000000000e504        0x8 CMakeFiles/kiibohd.dir/Macro/PartialMap/macro.c.obj
                0x000000000000e504                default_tl_0x08
 .rodata.default_tl_0x09
                0x000000000000e50c        0x8 CMakeFiles/kiibohd.dir/Macro/PartialMap/macro.c.obj
                0x000000000000e50c                default_tl_0x09
 .rodata.default_tl_0x0A
                0x000000000000e514        0x4 CMakeFiles/kiibohd.dir/Macro/PartialMap/macro.c.obj
                0x000000000000e514                default_tl_0x0A
 .rodata.default_tl_0x0B
                0x000000000000e518        0x4 CMakeFiles/kiibohd.dir/Macro/PartialMap/macro.c.obj
                0x000000000000e518                default_tl_0x0B
 .rodata.default_tl_0x0C
                0x000000000000e51c        0x8 CMakeFiles/kiibohd.dir/Macro/PartialMap/macro.c.obj
                0x000000000000e51c                default_tl_0x0C
 .rodata.default_tl_0x0D
                0x000000000000e524        0x8 CMakeFiles/kiibohd.dir/Macro/PartialMap/macro.c.obj
                0x000000000000e524                default_tl_0x0D
 .rodata.default_tl_0x0E
                0x000000000000e52c        0x8 CMakeFiles/kiibohd.dir/Macro/PartialMap/macro.c.obj
                0x000000000000e52c                default_tl_0x0E
 .rodata.default_tl_0x0F
                0x000000000000e534        0x8 CMakeFiles/kiibohd.dir/Macro/PartialMap/macro.c.obj
                0x000000000000e534                default_tl_0x0F
 .rodata.default_tl_0x10
                0x000000000000e53c        0x8 CMakeFiles/kiibohd.dir/Macro/PartialMap/macro.c.obj
                0x000000000000e53c                default_tl_0x10
 .rodata.default_tl_0x11
                0x000000000000e544        0x8 CMakeFiles/kiibohd.dir/Macro/PartialMap/macro.c.obj
                0x000000000000e544                default_tl_0x11
 .rodata.default_tl_0x12
                0x000000000000e54c        0x8 CMakeFiles/kiibohd.dir/Macro/PartialMap/macro.c.obj
                0x000000000000e54c                default_tl_0x12
 .rodata.default_tl_0x13
                0x000000000000e554        0x4 CMakeFiles/kiibohd.dir/Macro/PartialMap/macro.c.obj
                0x000000000000e554                default_tl_0x13
 .rodata.default_tl_0x14
                0x000000000000e558        0x4 CMakeFiles/kiibohd.dir/Macro/PartialMap/macro.c.obj
                0x000000000000e558                default_tl_0x14
 .rodata.default_tl_0x15
                0x000000000000e55c        0x4 CMakeFiles/kiibohd.dir/Macro/PartialMap/macro.c.obj
                0x000000000000e55c                default_tl_0x15
 .rodata.default_tl_0x16
                0x000000000000e560        0x8 CMakeFiles/kiibohd.dir/Macro/PartialMap/macro.c.obj
                0x000000000000e560                default_tl_0x16
 .rodata.default_tl_0x17
                0x000000000000e568        0x8 CMakeFiles/kiibohd.dir/Macro/PartialMap/macro.c.obj
                0x000000000000e568                default_tl_0x17
 .rodata.default_tl_0x18
                0x000000000000e570        0x8 CMakeFiles/kiibohd.dir/Macro/PartialMap/macro.c.obj
                0x000000000000e570                default_tl_0x18
 .rodata.default_tl_0x19
                0x000000000000e578        0x8 CMakeFiles/kiibohd.dir/Macro/PartialMap/macro.c.obj
                0x000000000000e578                default_tl_0x19
 .rodata.default_tl_0x1A
                0x000000000000e580        0x8 CMakeFiles/kiibohd.dir/Macro/PartialMap/macro.c.obj
                0x000000000000e580                default_tl_0x1A
 .rodata.default_tl_0x1B
                0x000000000000e588        0x8 CMakeFiles/kiibohd.dir/Macro/PartialMap/macro.c.obj
                0x000000000000e588                default_tl_0x1B
 .rodata.default_tl_0x1C
                0x000000000000e590        0x8 CMakeFiles/kiibohd.dir/Macro/PartialMap/macro.c.obj
                0x000000000000e590                default_tl_0x1C
 .rodata.default_tl_0x1D
                0x000000000000e598        0x8 CMakeFiles/kiibohd.dir/Macro/PartialMap/macro.c.obj
                0x000000000000e598                default_tl_0x1D
 .rodata.default_tl_0x1E
                0x000000000000e5a0        0x8 CMakeFiles/kiibohd.dir/Macro/PartialMap/macro.c.obj
                0x000000000000e5a0                default_tl_0x1E
 .rodata.default_tl_0x1F
                0x000000000000e5a8        0x8 CMakeFiles/kiibohd.dir/Macro/PartialMap/macro.c.obj
                0x000000000000e5a8                default_tl_0x1F
 .rodata.default_tl_0x20
                0x000000000000e5b0        0x8 CMakeFiles/kiibohd.dir/Macro/PartialMap/macro.c.obj
                0x000000000000e5b0                default_tl_0x20
 .rodata.default_tl_0x21
                0x000000000000e5b8        0x8 CMakeFiles/kiibohd.dir/Macro/PartialMap/macro.c.obj
                0x000000000000e5b8                default_tl_0x21
 .rodata.default_tl_0x22
                0x000000000000e5c0        0x8 CMakeFiles/kiibohd.dir/Macro/PartialMap/macro.c.obj
                0x000000000000e5c0                default_tl_0x22
 .rodata.default_tl_0x23
                0x000000000000e5c8        0x8 CMakeFiles/kiibohd.dir/Macro/PartialMap/macro.c.obj
                0x000000000000e5c8                default_tl_0x23
 .rodata.default_tl_0x24
                0x000000000000e5d0        0x8 CMakeFiles/kiibohd.dir/Macro/PartialMap/macro.c.obj
                0x000000000000e5d0                default_tl_0x24
 .rodata.default_tl_0x25
                0x000000000000e5d8        0x8 CMakeFiles/kiibohd.dir/Macro/PartialMap/macro.c.obj
                0x000000000000e5d8                default_tl_0x25
 .rodata.default_tl_0x26
                0x000000000000e5e0        0x8 CMakeFiles/kiibohd.dir/Macro/PartialMap/macro.c.obj
                0x000000000000e5e0                default_tl_0x26
 .rodata.default_tl_0x27
                0x000000000000e5e8        0x8 CMakeFiles/kiibohd.dir/Macro/PartialMap/macro.c.obj
                0x000000000000e5e8                default_tl_0x27
 .rodata.default_tl_0x28
                0x000000000000e5f0        0x8 CMakeFiles/kiibohd.dir/Macro/PartialMap/macro.c.obj
                0x000000000000e5f0                default_tl_0x28
 .rodata.default_tl_0x29
                0x000000000000e5f8        0x8 CMakeFiles/kiibohd.dir/Macro/PartialMap/macro.c.obj
                0x000000000000e5f8                default_tl_0x29
 .rodata.default_tl_0x2A
                0x000000000000e600        0x8 CMakeFiles/kiibohd.dir/Macro/PartialMap/macro.c.obj
                0x000000000000e600                default_tl_0x2A
 .rodata.default_tl_0x2B
                0x000000000000e608        0x8 CMakeFiles/kiibohd.dir/Macro/PartialMap/macro.c.obj
                0x000000000000e608                default_tl_0x2B
 .rodata.default_tl_0x2C
                0x000000000000e610        0x8 CMakeFiles/kiibohd.dir/Macro/PartialMap/macro.c.obj
                0x000000000000e610                default_tl_0x2C
 .rodata.default_tl_0x2D
                0x000000000000e618        0x8 CMakeFiles/kiibohd.dir/Macro/PartialMap/macro.c.obj
                0x000000000000e618                default_tl_0x2D
 .rodata.default_tl_0x2E
                0x000000000000e620        0x4 CMakeFiles/kiibohd.dir/Macro/PartialMap/macro.c.obj
                0x000000000000e620                default_tl_0x2E
 .rodata.default_tl_0x2F
                0x000000000000e624        0x4 CMakeFiles/kiibohd.dir/Macro/PartialMap/macro.c.obj
                0x000000000000e624                default_tl_0x2F
 .rodata.default_tl_0x30
                0x000000000000e628        0x8 CMakeFiles/kiibohd.dir/Macro/PartialMap/macro.c.obj
                0x000000000000e628                default_tl_0x30
 .rodata.default_tl_0x31
                0x000000000000e630        0x8 CMakeFiles/kiibohd.dir/Macro/PartialMap/macro.c.obj
                0x000000000000e630                default_tl_0x31
 .rodata.default_tl_0x32
                0x000000000000e638        0x8 CMakeFiles/kiibohd.dir/Macro/PartialMap/macro.c.obj
                0x000000000000e638                default_tl_0x32
 .rodata.default_tl_0x33
                0x000000000000e640        0x8 CMakeFiles/kiibohd.dir/Macro/PartialMap/macro.c.obj
                0x000000000000e640                default_tl_0x33
 .rodata.default_tl_0x34
                0x000000000000e648        0x8 CMakeFiles/kiibohd.dir/Macro/PartialMap/macro.c.obj
                0x000000000000e648                default_tl_0x34
 .rodata.default_tl_0x35
                0x000000000000e650        0x8 CMakeFiles/kiibohd.dir/Macro/PartialMap/macro.c.obj
                0x000000000000e650                default_tl_0x35
 .rodata.default_tl_0x36
                0x000000000000e658        0x8 CMakeFiles/kiibohd.dir/Macro/PartialMap/macro.c.obj
                0x000000000000e658                default_tl_0x36
 .rodata.default_tl_0x37
                0x000000000000e660        0x4 CMakeFiles/kiibohd.dir/Macro/PartialMap/macro.c.obj
                0x000000000000e660                default_tl_0x37
 .rodata.default_tl_0x38
                0x000000000000e664        0x4 CMakeFiles/kiibohd.dir/Macro/PartialMap/macro.c.obj
                0x000000000000e664                default_tl_0x38
 .rodata.default_tl_0x39
                0x000000000000e668        0x8 CMakeFiles/kiibohd.dir/Macro/PartialMap/macro.c.obj
                0x000000000000e668                default_tl_0x39
 .rodata.default_tl_0x3A
                0x000000000000e670        0x8 CMakeFiles/kiibohd.dir/Macro/PartialMap/macro.c.obj
                0x000000000000e670                default_tl_0x3A
 .rodata.default_tl_0x3B
                0x000000000000e678        0x8 CMakeFiles/kiibohd.dir/Macro/PartialMap/macro.c.obj
                0x000000000000e678                default_tl_0x3B
 .rodata.default_tl_0x3C
                0x000000000000e680        0x8 CMakeFiles/kiibohd.dir/Macro/PartialMap/macro.c.obj
                0x000000000000e680                default_tl_0x3C
 .rodata.default_tl_0x3D
                0x000000000000e688        0x8 CMakeFiles/kiibohd.dir/Macro/PartialMap/macro.c.obj
                0x000000000000e688                default_tl_0x3D
 .rodata.default_tl_0x3E
                0x000000000000e690        0x8 CMakeFiles/kiibohd.dir/Macro/PartialMap/macro.c.obj
                0x000000000000e690                default_tl_0x3E
 .rodata.default_tl_0x3F
                0x000000000000e698        0x8 CMakeFiles/kiibohd.dir/Macro/PartialMap/macro.c.obj
                0x000000000000e698                default_tl_0x3F
 .rodata.default_tl_0x40
                0x000000000000e6a0        0x4 CMakeFiles/kiibohd.dir/Macro/PartialMap/macro.c.obj
                0x000000000000e6a0                default_tl_0x40
 .rodata.default_tl_0x41
                0x000000000000e6a4        0x4 CMakeFiles/kiibohd.dir/Macro/PartialMap/macro.c.obj
                0x000000000000e6a4                default_tl_0x41
 .rodata.default_tl_0x42
                0x000000000000e6a8        0x4 CMakeFiles/kiibohd.dir/Macro/PartialMap/macro.c.obj
                0x000000000000e6a8                default_tl_0x42
 .rodata.default_tl_0x43
                0x000000000000e6ac        0x8 CMakeFiles/kiibohd.dir/Macro/PartialMap/macro.c.obj
                0x000000000000e6ac                default_tl_0x43
 .rodata.default_tl_0x44
                0x000000000000e6b4        0x8 CMakeFiles/kiibohd.dir/Macro/PartialMap/macro.c.obj
                0x000000000000e6b4                default_tl_0x44
 .rodata.default_tl_0x45
                0x000000000000e6bc        0x8 CMakeFiles/kiibohd.dir/Macro/PartialMap/macro.c.obj
                0x000000000000e6bc                default_tl_0x45
 .rodata.default_tl_0x46
                0x000000000000e6c4        0x8 CMakeFiles/kiibohd.dir/Macro/PartialMap/macro.c.obj
                0x000000000000e6c4                default_tl_0x46
 .rodata.default_tl_0x47
                0x000000000000e6cc        0x8 CMakeFiles/kiibohd.dir/Macro/PartialMap/macro.c.obj
                0x000000000000e6cc                default_tl_0x47
 .rodata.default_tl_0x48
                0x000000000000e6d4        0x8 CMakeFiles/kiibohd.dir/Macro/PartialMap/macro.c.obj
                0x000000000000e6d4                default_tl_0x48
 .rodata.default_tl_0x49
                0x000000000000e6dc        0x8 CMakeFiles/kiibohd.dir/Macro/PartialMap/macro.c.obj
                0x000000000000e6dc                default_tl_0x49
 .rodata.default_tl_0x4A
                0x000000000000e6e4        0x8 CMakeFiles/kiibohd.dir/Macro/PartialMap/macro.c.obj
                0x000000000000e6e4                default_tl_0x4A
 .rodata.default_tl_0x4B
                0x000000000000e6ec        0x8 CMakeFiles/kiibohd.dir/Macro/PartialMap/macro.c.obj
                0x000000000000e6ec                default_tl_0x4B
 .rodata.default_tl_0x4C
                0x000000000000e6f4        0x8 CMakeFiles/kiibohd.dir/Macro/PartialMap/macro.c.obj
                0x000000000000e6f4                default_tl_0x4C
 .rodata.default_tl_0x4D
                0x000000000000e6fc        0x8 CMakeFiles/kiibohd.dir/Macro/PartialMap/macro.c.obj
                0x000000000000e6fc                default_tl_0x4D
 .rodata.default_tl_0x4E
                0x000000000000e704        0x8 CMakeFiles/kiibohd.dir/Macro/PartialMap/macro.c.obj
                0x000000000000e704                default_tl_0x4E
 .rodata.default_tl_0x4F
                0x000000000000e70c        0x8 CMakeFiles/kiibohd.dir/Macro/PartialMap/macro.c.obj
                0x000000000000e70c                default_tl_0x4F
 .rodata.default_tl_0x50
                0x000000000000e714        0x8 CMakeFiles/kiibohd.dir/Macro/PartialMap/macro.c.obj
                0x000000000000e714                default_tl_0x50
 .rodata.default_tl_0x51
                0x000000000000e71c        0x8 CMakeFiles/kiibohd.dir/Macro/PartialMap/macro.c.obj
                0x000000000000e71c                default_tl_0x51
 .rodata.default_tl_0x52
                0x000000000000e724        0x8 CMakeFiles/kiibohd.dir/Macro/PartialMap/macro.c.obj
                0x000000000000e724                default_tl_0x52
 .rodata.default_tl_0x53
                0x000000000000e72c        0x8 CMakeFiles/kiibohd.dir/Macro/PartialMap/macro.c.obj
                0x000000000000e72c                default_tl_0x53
 .rodata.default_tl_0x54
                0x000000000000e734        0x8 CMakeFiles/kiibohd.dir/Macro/PartialMap/macro.c.obj
                0x000000000000e734                default_tl_0x54
 .rodata.default_tl_0x55
                0x000000000000e73c        0x8 CMakeFiles/kiibohd.dir/Macro/PartialMap/macro.c.obj
                0x000000000000e73c                default_tl_0x55
 .rodata.default_tl_0x56
                0x000000000000e744        0x8 CMakeFiles/kiibohd.dir/Macro/PartialMap/macro.c.obj
                0x000000000000e744                default_tl_0x56
 .rodata.default_tl_0x57
                0x000000000000e74c        0x8 CMakeFiles/kiibohd.dir/Macro/PartialMap/macro.c.obj
                0x000000000000e74c                default_tl_0x57
 .rodata.default_tl_0x58
                0x000000000000e754        0x8 CMakeFiles/kiibohd.dir/Macro/PartialMap/macro.c.obj
                0x000000000000e754                default_tl_0x58
 .rodata.default_tl_0x59
                0x000000000000e75c        0x8 CMakeFiles/kiibohd.dir/Macro/PartialMap/macro.c.obj
                0x000000000000e75c                default_tl_0x59
 .rodata.default_tl_0x5A
                0x000000000000e764        0x8 CMakeFiles/kiibohd.dir/Macro/PartialMap/macro.c.obj
                0x000000000000e764                default_tl_0x5A
 .rodata.keyHoldCLIDict_DescEntry
                0x000000000000e76c       0x6d CMakeFiles/kiibohd.dir/Macro/PartialMap/macro.c.obj
                0x000000000000e76c                keyHoldCLIDict_DescEntry
 .rodata.keyPressCLIDict_DescEntry
                0x000000000000e7d9       0x6e CMakeFiles/kiibohd.dir/Macro/PartialMap/macro.c.obj
                0x000000000000e7d9                keyPressCLIDict_DescEntry
 .rodata.keyReleaseCLIDict_DescEntry
                0x000000000000e847       0x6b CMakeFiles/kiibohd.dir/Macro/PartialMap/macro.c.obj
                0x000000000000e847                keyReleaseCLIDict_DescEntry
 *fill*         0x000000000000e8b2        0x2 
 .rodata.layer1_tl_0x00
                0x000000000000e8b4        0x8 CMakeFiles/kiibohd.dir/Macro/PartialMap/macro.c.obj
                0x000000000000e8b4                layer1_tl_0x00
 .rodata.layer1_tl_0x01
                0x000000000000e8bc        0x8 CMakeFiles/kiibohd.dir/Macro/PartialMap/macro.c.obj
                0x000000000000e8bc                layer1_tl_0x01
 .rodata.layer1_tl_0x02
                0x000000000000e8c4        0x8 CMakeFiles/kiibohd.dir/Macro/PartialMap/macro.c.obj
                0x000000000000e8c4                layer1_tl_0x02
 .rodata.layer1_tl_0x03
                0x000000000000e8cc        0x8 CMakeFiles/kiibohd.dir/Macro/PartialMap/macro.c.obj
                0x000000000000e8cc                layer1_tl_0x03
 .rodata.layer1_tl_0x04
                0x000000000000e8d4        0x8 CMakeFiles/kiibohd.dir/Macro/PartialMap/macro.c.obj
                0x000000000000e8d4                layer1_tl_0x04
 .rodata.layer1_tl_0x05
                0x000000000000e8dc        0x8 CMakeFiles/kiibohd.dir/Macro/PartialMap/macro.c.obj
                0x000000000000e8dc                layer1_tl_0x05
 .rodata.layer1_tl_0x06
                0x000000000000e8e4        0x8 CMakeFiles/kiibohd.dir/Macro/PartialMap/macro.c.obj
                0x000000000000e8e4                layer1_tl_0x06
 .rodata.layer1_tl_0x07
                0x000000000000e8ec        0x4 CMakeFiles/kiibohd.dir/Macro/PartialMap/macro.c.obj
                0x000000000000e8ec                layer1_tl_0x07
 .rodata.layer1_tl_0x08
                0x000000000000e8f0        0x4 CMakeFiles/kiibohd.dir/Macro/PartialMap/macro.c.obj
                0x000000000000e8f0                layer1_tl_0x08
 .rodata.layer1_tl_0x09
                0x000000000000e8f4        0x8 CMakeFiles/kiibohd.dir/Macro/PartialMap/macro.c.obj
                0x000000000000e8f4                layer1_tl_0x09
 .rodata.layer1_tl_0x0A
                0x000000000000e8fc        0x4 CMakeFiles/kiibohd.dir/Macro/PartialMap/macro.c.obj
                0x000000000000e8fc                layer1_tl_0x0A
 .rodata.layer1_tl_0x0B
                0x000000000000e900        0x4 CMakeFiles/kiibohd.dir/Macro/PartialMap/macro.c.obj
                0x000000000000e900                layer1_tl_0x0B
 .rodata.layer1_tl_0x0C
                0x000000000000e904        0x4 CMakeFiles/kiibohd.dir/Macro/PartialMap/macro.c.obj
                0x000000000000e904                layer1_tl_0x0C
 .rodata.layer1_tl_0x0D
                0x000000000000e908        0x4 CMakeFiles/kiibohd.dir/Macro/PartialMap/macro.c.obj
                0x000000000000e908                layer1_tl_0x0D
 .rodata.layer1_tl_0x0E
                0x000000000000e90c        0x4 CMakeFiles/kiibohd.dir/Macro/PartialMap/macro.c.obj
                0x000000000000e90c                layer1_tl_0x0E
 .rodata.layer1_tl_0x0F
                0x000000000000e910        0x4 CMakeFiles/kiibohd.dir/Macro/PartialMap/macro.c.obj
                0x000000000000e910                layer1_tl_0x0F
 .rodata.layer1_tl_0x10
                0x000000000000e914        0x4 CMakeFiles/kiibohd.dir/Macro/PartialMap/macro.c.obj
                0x000000000000e914                layer1_tl_0x10
 .rodata.layer1_tl_0x11
                0x000000000000e918        0x4 CMakeFiles/kiibohd.dir/Macro/PartialMap/macro.c.obj
                0x000000000000e918                layer1_tl_0x11
 .rodata.layer1_tl_0x12
                0x000000000000e91c        0x4 CMakeFiles/kiibohd.dir/Macro/PartialMap/macro.c.obj
                0x000000000000e91c                layer1_tl_0x12
 .rodata.layer1_tl_0x13
                0x000000000000e920        0x4 CMakeFiles/kiibohd.dir/Macro/PartialMap/macro.c.obj
                0x000000000000e920                layer1_tl_0x13
 .rodata.layer1_tl_0x14
                0x000000000000e924        0x4 CMakeFiles/kiibohd.dir/Macro/PartialMap/macro.c.obj
                0x000000000000e924                layer1_tl_0x14
 .rodata.layer1_tl_0x15
                0x000000000000e928        0x4 CMakeFiles/kiibohd.dir/Macro/PartialMap/macro.c.obj
                0x000000000000e928                layer1_tl_0x15
 .rodata.layer1_tl_0x16
                0x000000000000e92c        0x4 CMakeFiles/kiibohd.dir/Macro/PartialMap/macro.c.obj
                0x000000000000e92c                layer1_tl_0x16
 .rodata.layer1_tl_0x17
                0x000000000000e930        0x4 CMakeFiles/kiibohd.dir/Macro/PartialMap/macro.c.obj
                0x000000000000e930                layer1_tl_0x17
 .rodata.layer1_tl_0x18
                0x000000000000e934        0x4 CMakeFiles/kiibohd.dir/Macro/PartialMap/macro.c.obj
                0x000000000000e934                layer1_tl_0x18
 .rodata.layer1_tl_0x19
                0x000000000000e938        0x8 CMakeFiles/kiibohd.dir/Macro/PartialMap/macro.c.obj
                0x000000000000e938                layer1_tl_0x19
 .rodata.layer1_tl_0x1A
                0x000000000000e940        0x8 CMakeFiles/kiibohd.dir/Macro/PartialMap/macro.c.obj
                0x000000000000e940                layer1_tl_0x1A
 .rodata.layer1_tl_0x1B
                0x000000000000e948        0x8 CMakeFiles/kiibohd.dir/Macro/PartialMap/macro.c.obj
                0x000000000000e948                layer1_tl_0x1B
 .rodata.layer1_tl_0x1C
                0x000000000000e950        0x4 CMakeFiles/kiibohd.dir/Macro/PartialMap/macro.c.obj
                0x000000000000e950                layer1_tl_0x1C
 .rodata.layer1_tl_0x1D
                0x000000000000e954        0x4 CMakeFiles/kiibohd.dir/Macro/PartialMap/macro.c.obj
                0x000000000000e954                layer1_tl_0x1D
 .rodata.layer1_tl_0x1E
                0x000000000000e958        0x4 CMakeFiles/kiibohd.dir/Macro/PartialMap/macro.c.obj
                0x000000000000e958                layer1_tl_0x1E
 .rodata.layer1_tl_0x1F
                0x000000000000e95c        0x4 CMakeFiles/kiibohd.dir/Macro/PartialMap/macro.c.obj
                0x000000000000e95c                layer1_tl_0x1F
 .rodata.layer1_tl_0x20
                0x000000000000e960        0x4 CMakeFiles/kiibohd.dir/Macro/PartialMap/macro.c.obj
                0x000000000000e960                layer1_tl_0x20
 .rodata.layer1_tl_0x21
                0x000000000000e964        0x4 CMakeFiles/kiibohd.dir/Macro/PartialMap/macro.c.obj
                0x000000000000e964                layer1_tl_0x21
 .rodata.layer1_tl_0x22
                0x000000000000e968        0x4 CMakeFiles/kiibohd.dir/Macro/PartialMap/macro.c.obj
                0x000000000000e968                layer1_tl_0x22
 .rodata.layer1_tl_0x23
                0x000000000000e96c        0x4 CMakeFiles/kiibohd.dir/Macro/PartialMap/macro.c.obj
                0x000000000000e96c                layer1_tl_0x23
 .rodata.layer1_tl_0x24
                0x000000000000e970        0x4 CMakeFiles/kiibohd.dir/Macro/PartialMap/macro.c.obj
                0x000000000000e970                layer1_tl_0x24
 .rodata.layer1_tl_0x25
                0x000000000000e974        0x4 CMakeFiles/kiibohd.dir/Macro/PartialMap/macro.c.obj
                0x000000000000e974                layer1_tl_0x25
 .rodata.layer1_tl_0x26
                0x000000000000e978        0x8 CMakeFiles/kiibohd.dir/Macro/PartialMap/macro.c.obj
                0x000000000000e978                layer1_tl_0x26
 .rodata.layer1_tl_0x27
                0x000000000000e980        0x8 CMakeFiles/kiibohd.dir/Macro/PartialMap/macro.c.obj
                0x000000000000e980                layer1_tl_0x27
 .rodata.layer1_tl_0x28
                0x000000000000e988        0x8 CMakeFiles/kiibohd.dir/Macro/PartialMap/macro.c.obj
                0x000000000000e988                layer1_tl_0x28
 .rodata.layer1_tl_0x29
                0x000000000000e990        0x4 CMakeFiles/kiibohd.dir/Macro/PartialMap/macro.c.obj
                0x000000000000e990                layer1_tl_0x29
 .rodata.layer1_tl_0x2A
                0x000000000000e994        0x4 CMakeFiles/kiibohd.dir/Macro/PartialMap/macro.c.obj
                0x000000000000e994                layer1_tl_0x2A
 .rodata.layer1_tl_0x2B
                0x000000000000e998        0x4 CMakeFiles/kiibohd.dir/Macro/PartialMap/macro.c.obj
                0x000000000000e998                layer1_tl_0x2B
 .rodata.layer1_tl_0x2C
                0x000000000000e99c        0x4 CMakeFiles/kiibohd.dir/Macro/PartialMap/macro.c.obj
                0x000000000000e99c                layer1_tl_0x2C
 .rodata.layer1_tl_0x2D
                0x000000000000e9a0        0x8 CMakeFiles/kiibohd.dir/Macro/PartialMap/macro.c.obj
                0x000000000000e9a0                layer1_tl_0x2D
 .rodata.layer1_tl_0x2E
                0x000000000000e9a8        0x8 CMakeFiles/kiibohd.dir/Macro/PartialMap/macro.c.obj
                0x000000000000e9a8                layer1_tl_0x2E
 .rodata.layer1_tl_0x2F
                0x000000000000e9b0        0x8 CMakeFiles/kiibohd.dir/Macro/PartialMap/macro.c.obj
                0x000000000000e9b0                layer1_tl_0x2F
 .rodata.layer1_tl_0x30
                0x000000000000e9b8        0x8 CMakeFiles/kiibohd.dir/Macro/PartialMap/macro.c.obj
                0x000000000000e9b8                layer1_tl_0x30
 .rodata.layer1_tl_0x31
                0x000000000000e9c0        0x8 CMakeFiles/kiibohd.dir/Macro/PartialMap/macro.c.obj
                0x000000000000e9c0                layer1_tl_0x31
 .rodata.layer1_tl_0x32
                0x000000000000e9c8        0x8 CMakeFiles/kiibohd.dir/Macro/PartialMap/macro.c.obj
                0x000000000000e9c8                layer1_tl_0x32
 .rodata.layer1_tl_0x33
                0x000000000000e9d0        0x8 CMakeFiles/kiibohd.dir/Macro/PartialMap/macro.c.obj
                0x000000000000e9d0                layer1_tl_0x33
 .rodata.layer1_tl_0x34
                0x000000000000e9d8        0x4 CMakeFiles/kiibohd.dir/Macro/PartialMap/macro.c.obj
                0x000000000000e9d8                layer1_tl_0x34
 .rodata.layer1_tl_0x35
                0x000000000000e9dc        0x4 CMakeFiles/kiibohd.dir/Macro/PartialMap/macro.c.obj
                0x000000000000e9dc                layer1_tl_0x35
 .rodata.layer1_tl_0x36
                0x000000000000e9e0        0x4 CMakeFiles/kiibohd.dir/Macro/PartialMap/macro.c.obj
                0x000000000000e9e0                layer1_tl_0x36
 .rodata.layer1_tl_0x37
                0x000000000000e9e4        0x4 CMakeFiles/kiibohd.dir/Macro/PartialMap/macro.c.obj
                0x000000000000e9e4                layer1_tl_0x37
 .rodata.layer1_tl_0x38
                0x000000000000e9e8        0x4 CMakeFiles/kiibohd.dir/Macro/PartialMap/macro.c.obj
                0x000000000000e9e8                layer1_tl_0x38
 .rodata.layer1_tl_0x39
                0x000000000000e9ec        0x4 CMakeFiles/kiibohd.dir/Macro/PartialMap/macro.c.obj
                0x000000000000e9ec                layer1_tl_0x39
 .rodata.layer1_tl_0x3A
                0x000000000000e9f0        0x4 CMakeFiles/kiibohd.dir/Macro/PartialMap/macro.c.obj
                0x000000000000e9f0                layer1_tl_0x3A
 .rodata.layer1_tl_0x3B
                0x000000000000e9f4        0x4 CMakeFiles/kiibohd.dir/Macro/PartialMap/macro.c.obj
                0x000000000000e9f4                layer1_tl_0x3B
 .rodata.layer1_tl_0x3C
                0x000000000000e9f8        0x4 CMakeFiles/kiibohd.dir/Macro/PartialMap/macro.c.obj
                0x000000000000e9f8                layer1_tl_0x3C
 .rodata.layer1_tl_0x3D
                0x000000000000e9fc        0x4 CMakeFiles/kiibohd.dir/Macro/PartialMap/macro.c.obj
                0x000000000000e9fc                layer1_tl_0x3D
 .rodata.layer1_tl_0x3E
                0x000000000000ea00        0x4 CMakeFiles/kiibohd.dir/Macro/PartialMap/macro.c.obj
                0x000000000000ea00                layer1_tl_0x3E
 .rodata.layer1_tl_0x3F
                0x000000000000ea04        0x4 CMakeFiles/kiibohd.dir/Macro/PartialMap/macro.c.obj
                0x000000000000ea04                layer1_tl_0x3F
 .rodata.layer1_tl_0x40
                0x000000000000ea08        0x8 CMakeFiles/kiibohd.dir/Macro/PartialMap/macro.c.obj
                0x000000000000ea08                layer1_tl_0x40
 .rodata.layer1_tl_0x41
                0x000000000000ea10        0x8 CMakeFiles/kiibohd.dir/Macro/PartialMap/macro.c.obj
                0x000000000000ea10                layer1_tl_0x41
 .rodata.layer1_tl_0x42
                0x000000000000ea18        0x8 CMakeFiles/kiibohd.dir/Macro/PartialMap/macro.c.obj
                0x000000000000ea18                layer1_tl_0x42
 .rodata.layer1_tl_0x43
                0x000000000000ea20        0x8 CMakeFiles/kiibohd.dir/Macro/PartialMap/macro.c.obj
                0x000000000000ea20                layer1_tl_0x43
 .rodata.layer1_tl_0x44
                0x000000000000ea28        0x4 CMakeFiles/kiibohd.dir/Macro/PartialMap/macro.c.obj
                0x000000000000ea28                layer1_tl_0x44
 .rodata.layer1_tl_0x45
                0x000000000000ea2c        0x4 CMakeFiles/kiibohd.dir/Macro/PartialMap/macro.c.obj
                0x000000000000ea2c                layer1_tl_0x45
 .rodata.layer1_tl_0x46
                0x000000000000ea30        0x8 CMakeFiles/kiibohd.dir/Macro/PartialMap/macro.c.obj
                0x000000000000ea30                layer1_tl_0x46
 .rodata.layer1_tl_0x47
                0x000000000000ea38        0x4 CMakeFiles/kiibohd.dir/Macro/PartialMap/macro.c.obj
                0x000000000000ea38                layer1_tl_0x47
 .rodata.layer1_tl_0x48
                0x000000000000ea3c        0x8 CMakeFiles/kiibohd.dir/Macro/PartialMap/macro.c.obj
                0x000000000000ea3c                layer1_tl_0x48
 .rodata.layerDebugCLIDict_DescEntry
                0x000000000000ea44       0x35 CMakeFiles/kiibohd.dir/Macro/PartialMap/macro.c.obj
                0x000000000000ea44                layerDebugCLIDict_DescEntry
 .rodata.layerListCLIDict_DescEntry
                0x000000000000ea79       0x17 CMakeFiles/kiibohd.dir/Macro/PartialMap/macro.c.obj
                0x000000000000ea79                layerListCLIDict_DescEntry
 .rodata.layerStateCLIDict_DescEntry
                0x000000000000ea90       0x87 CMakeFiles/kiibohd.dir/Macro/PartialMap/macro.c.obj
                0x000000000000ea90                layerStateCLIDict_DescEntry
 *fill*         0x000000000000eb17        0x1 
 .rodata.macroCLIDict
                0x000000000000eb18       0xc0 CMakeFiles/kiibohd.dir/Macro/PartialMap/macro.c.obj
                0x000000000000eb18                macroCLIDict
 .rodata.macroCLIDictName
                0x000000000000ebd8       0x16 CMakeFiles/kiibohd.dir/Macro/PartialMap/macro.c.obj
                0x000000000000ebd8                macroCLIDictName
 .rodata.macroDebugCLIDict_DescEntry
                0x000000000000ebee       0x51 CMakeFiles/kiibohd.dir/Macro/PartialMap/macro.c.obj
                0x000000000000ebee                macroDebugCLIDict_DescEntry
 .rodata.macroDebugShowResult.str1.1
                0x000000000000ec3f       0x4c CMakeFiles/kiibohd.dir/Macro/PartialMap/macro.c.obj
                                         0x52 (size before relaxing)
 .rodata.macroDebugShowTrigger.str1.1
                0x000000000000ec8b       0x70 CMakeFiles/kiibohd.dir/Macro/PartialMap/macro.c.obj
                                         0x80 (size before relaxing)
 .rodata.macroListCLIDict_DescEntry
                0x000000000000ecfb       0x2c CMakeFiles/kiibohd.dir/Macro/PartialMap/macro.c.obj
                0x000000000000ecfb                macroListCLIDict_DescEntry
 .rodata.macroProcCLIDict_DescEntry
                0x000000000000ed27       0x1f CMakeFiles/kiibohd.dir/Macro/PartialMap/macro.c.obj
                0x000000000000ed27                macroProcCLIDict_DescEntry
 .rodata.macroShowCLIDict_DescEntry
                0x000000000000ed46       0x84 CMakeFiles/kiibohd.dir/Macro/PartialMap/macro.c.obj
                0x000000000000ed46                macroShowCLIDict_DescEntry
 .rodata.macroStepCLIDict_DescEntry
                0x000000000000edca       0x2c CMakeFiles/kiibohd.dir/Macro/PartialMap/macro.c.obj
                0x000000000000edca                macroStepCLIDict_DescEntry
 .rodata.posListCLIDict_DescEntry
                0x000000000000edf6       0x29 CMakeFiles/kiibohd.dir/Macro/PartialMap/macro.c.obj
                0x000000000000edf6                posListCLIDict_DescEntry
 .rodata.rm0_guide
                0x000000000000ee1f        0x5 CMakeFiles/kiibohd.dir/Macro/PartialMap/macro.c.obj
                0x000000000000ee1f                rm0_guide
 .rodata.rm10_guide
                0x000000000000ee24        0x4 CMakeFiles/kiibohd.dir/Macro/PartialMap/macro.c.obj
                0x000000000000ee24                rm10_guide
 .rodata.rm11_guide
                0x000000000000ee28        0x4 CMakeFiles/kiibohd.dir/Macro/PartialMap/macro.c.obj
                0x000000000000ee28                rm11_guide
 .rodata.rm12_guide
                0x000000000000ee2c        0x4 CMakeFiles/kiibohd.dir/Macro/PartialMap/macro.c.obj
                0x000000000000ee2c                rm12_guide
 .rodata.rm13_guide
                0x000000000000ee30        0x4 CMakeFiles/kiibohd.dir/Macro/PartialMap/macro.c.obj
                0x000000000000ee30                rm13_guide
 .rodata.rm14_guide
                0x000000000000ee34        0x4 CMakeFiles/kiibohd.dir/Macro/PartialMap/macro.c.obj
                0x000000000000ee34                rm14_guide
 .rodata.rm15_guide
                0x000000000000ee38        0x4 CMakeFiles/kiibohd.dir/Macro/PartialMap/macro.c.obj
                0x000000000000ee38                rm15_guide
 .rodata.rm16_guide
                0x000000000000ee3c        0x4 CMakeFiles/kiibohd.dir/Macro/PartialMap/macro.c.obj
                0x000000000000ee3c                rm16_guide
 .rodata.rm17_guide
                0x000000000000ee40        0x4 CMakeFiles/kiibohd.dir/Macro/PartialMap/macro.c.obj
                0x000000000000ee40                rm17_guide
 .rodata.rm18_guide
                0x000000000000ee44        0x4 CMakeFiles/kiibohd.dir/Macro/PartialMap/macro.c.obj
                0x000000000000ee44                rm18_guide
 .rodata.rm19_guide
                0x000000000000ee48        0x4 CMakeFiles/kiibohd.dir/Macro/PartialMap/macro.c.obj
                0x000000000000ee48                rm19_guide
 .rodata.rm1_guide
                0x000000000000ee4c        0x5 CMakeFiles/kiibohd.dir/Macro/PartialMap/macro.c.obj
                0x000000000000ee4c                rm1_guide
 .rodata.rm20_guide
                0x000000000000ee51        0x4 CMakeFiles/kiibohd.dir/Macro/PartialMap/macro.c.obj
                0x000000000000ee51                rm20_guide
 .rodata.rm21_guide
                0x000000000000ee55        0x4 CMakeFiles/kiibohd.dir/Macro/PartialMap/macro.c.obj
                0x000000000000ee55                rm21_guide
 .rodata.rm22_guide
                0x000000000000ee59        0x4 CMakeFiles/kiibohd.dir/Macro/PartialMap/macro.c.obj
                0x000000000000ee59                rm22_guide
 .rodata.rm23_guide
                0x000000000000ee5d        0x4 CMakeFiles/kiibohd.dir/Macro/PartialMap/macro.c.obj
                0x000000000000ee5d                rm23_guide
 .rodata.rm24_guide
                0x000000000000ee61        0x4 CMakeFiles/kiibohd.dir/Macro/PartialMap/macro.c.obj
                0x000000000000ee61                rm24_guide
 .rodata.rm25_guide
                0x000000000000ee65        0x4 CMakeFiles/kiibohd.dir/Macro/PartialMap/macro.c.obj
                0x000000000000ee65                rm25_guide
 .rodata.rm26_guide
                0x000000000000ee69        0x4 CMakeFiles/kiibohd.dir/Macro/PartialMap/macro.c.obj
                0x000000000000ee69                rm26_guide
 .rodata.rm27_guide
                0x000000000000ee6d        0x4 CMakeFiles/kiibohd.dir/Macro/PartialMap/macro.c.obj
                0x000000000000ee6d                rm27_guide
 .rodata.rm28_guide
                0x000000000000ee71        0x4 CMakeFiles/kiibohd.dir/Macro/PartialMap/macro.c.obj
                0x000000000000ee71                rm28_guide
 .rodata.rm29_guide
                0x000000000000ee75        0x4 CMakeFiles/kiibohd.dir/Macro/PartialMap/macro.c.obj
                0x000000000000ee75                rm29_guide
 .rodata.rm2_guide
                0x000000000000ee79        0x5 CMakeFiles/kiibohd.dir/Macro/PartialMap/macro.c.obj
                0x000000000000ee79                rm2_guide
 .rodata.rm30_guide
                0x000000000000ee7e        0x4 CMakeFiles/kiibohd.dir/Macro/PartialMap/macro.c.obj
                0x000000000000ee7e                rm30_guide
 .rodata.rm31_guide
                0x000000000000ee82        0x4 CMakeFiles/kiibohd.dir/Macro/PartialMap/macro.c.obj
                0x000000000000ee82                rm31_guide
 .rodata.rm32_guide
                0x000000000000ee86        0x4 CMakeFiles/kiibohd.dir/Macro/PartialMap/macro.c.obj
                0x000000000000ee86                rm32_guide
 .rodata.rm33_guide
                0x000000000000ee8a        0x4 CMakeFiles/kiibohd.dir/Macro/PartialMap/macro.c.obj
                0x000000000000ee8a                rm33_guide
 .rodata.rm34_guide
                0x000000000000ee8e        0x4 CMakeFiles/kiibohd.dir/Macro/PartialMap/macro.c.obj
                0x000000000000ee8e                rm34_guide
 .rodata.rm35_guide
                0x000000000000ee92        0x4 CMakeFiles/kiibohd.dir/Macro/PartialMap/macro.c.obj
                0x000000000000ee92                rm35_guide
 .rodata.rm36_guide
                0x000000000000ee96        0x4 CMakeFiles/kiibohd.dir/Macro/PartialMap/macro.c.obj
                0x000000000000ee96                rm36_guide
 .rodata.rm37_guide
                0x000000000000ee9a        0x4 CMakeFiles/kiibohd.dir/Macro/PartialMap/macro.c.obj
                0x000000000000ee9a                rm37_guide
 .rodata.rm38_guide
                0x000000000000ee9e        0x4 CMakeFiles/kiibohd.dir/Macro/PartialMap/macro.c.obj
                0x000000000000ee9e                rm38_guide
 .rodata.rm39_guide
                0x000000000000eea2        0x4 CMakeFiles/kiibohd.dir/Macro/PartialMap/macro.c.obj
                0x000000000000eea2                rm39_guide
 .rodata.rm3_guide
                0x000000000000eea6        0x5 CMakeFiles/kiibohd.dir/Macro/PartialMap/macro.c.obj
                0x000000000000eea6                rm3_guide
 .rodata.rm40_guide
                0x000000000000eeab        0x4 CMakeFiles/kiibohd.dir/Macro/PartialMap/macro.c.obj
                0x000000000000eeab                rm40_guide
 .rodata.rm41_guide
                0x000000000000eeaf        0x4 CMakeFiles/kiibohd.dir/Macro/PartialMap/macro.c.obj
                0x000000000000eeaf                rm41_guide
 .rodata.rm42_guide
                0x000000000000eeb3        0x4 CMakeFiles/kiibohd.dir/Macro/PartialMap/macro.c.obj
                0x000000000000eeb3                rm42_guide
 .rodata.rm43_guide
                0x000000000000eeb7        0x4 CMakeFiles/kiibohd.dir/Macro/PartialMap/macro.c.obj
                0x000000000000eeb7                rm43_guide
 .rodata.rm44_guide
                0x000000000000eebb        0x4 CMakeFiles/kiibohd.dir/Macro/PartialMap/macro.c.obj
                0x000000000000eebb                rm44_guide
 .rodata.rm45_guide
                0x000000000000eebf        0x4 CMakeFiles/kiibohd.dir/Macro/PartialMap/macro.c.obj
                0x000000000000eebf                rm45_guide
 .rodata.rm46_guide
                0x000000000000eec3        0x4 CMakeFiles/kiibohd.dir/Macro/PartialMap/macro.c.obj
                0x000000000000eec3                rm46_guide
 .rodata.rm47_guide
                0x000000000000eec7        0x4 CMakeFiles/kiibohd.dir/Macro/PartialMap/macro.c.obj
                0x000000000000eec7                rm47_guide
 .rodata.rm48_guide
                0x000000000000eecb        0x4 CMakeFiles/kiibohd.dir/Macro/PartialMap/macro.c.obj
                0x000000000000eecb                rm48_guide
 .rodata.rm49_guide
                0x000000000000eecf        0x4 CMakeFiles/kiibohd.dir/Macro/PartialMap/macro.c.obj
                0x000000000000eecf                rm49_guide
 .rodata.rm4_guide
                0x000000000000eed3        0x5 CMakeFiles/kiibohd.dir/Macro/PartialMap/macro.c.obj
                0x000000000000eed3                rm4_guide
 .rodata.rm50_guide
                0x000000000000eed8        0x4 CMakeFiles/kiibohd.dir/Macro/PartialMap/macro.c.obj
                0x000000000000eed8                rm50_guide
 .rodata.rm51_guide
                0x000000000000eedc        0x4 CMakeFiles/kiibohd.dir/Macro/PartialMap/macro.c.obj
                0x000000000000eedc                rm51_guide
 .rodata.rm52_guide
                0x000000000000eee0        0x4 CMakeFiles/kiibohd.dir/Macro/PartialMap/macro.c.obj
                0x000000000000eee0                rm52_guide
 .rodata.rm53_guide
                0x000000000000eee4        0x4 CMakeFiles/kiibohd.dir/Macro/PartialMap/macro.c.obj
                0x000000000000eee4                rm53_guide
 .rodata.rm54_guide
                0x000000000000eee8        0x4 CMakeFiles/kiibohd.dir/Macro/PartialMap/macro.c.obj
                0x000000000000eee8                rm54_guide
 .rodata.rm55_guide
                0x000000000000eeec        0x4 CMakeFiles/kiibohd.dir/Macro/PartialMap/macro.c.obj
                0x000000000000eeec                rm55_guide
 .rodata.rm56_guide
                0x000000000000eef0        0x4 CMakeFiles/kiibohd.dir/Macro/PartialMap/macro.c.obj
                0x000000000000eef0                rm56_guide
 .rodata.rm57_guide
                0x000000000000eef4        0x4 CMakeFiles/kiibohd.dir/Macro/PartialMap/macro.c.obj
                0x000000000000eef4                rm57_guide
 .rodata.rm58_guide
                0x000000000000eef8        0x4 CMakeFiles/kiibohd.dir/Macro/PartialMap/macro.c.obj
                0x000000000000eef8                rm58_guide
 .rodata.rm59_guide
                0x000000000000eefc        0x4 CMakeFiles/kiibohd.dir/Macro/PartialMap/macro.c.obj
                0x000000000000eefc                rm59_guide
 .rodata.rm5_guide
                0x000000000000ef00        0x5 CMakeFiles/kiibohd.dir/Macro/PartialMap/macro.c.obj
                0x000000000000ef00                rm5_guide
 .rodata.rm60_guide
                0x000000000000ef05        0x4 CMakeFiles/kiibohd.dir/Macro/PartialMap/macro.c.obj
                0x000000000000ef05                rm60_guide
 .rodata.rm61_guide
                0x000000000000ef09        0x4 CMakeFiles/kiibohd.dir/Macro/PartialMap/macro.c.obj
                0x000000000000ef09                rm61_guide
 .rodata.rm62_guide
                0x000000000000ef0d        0x4 CMakeFiles/kiibohd.dir/Macro/PartialMap/macro.c.obj
                0x000000000000ef0d                rm62_guide
 .rodata.rm63_guide
                0x000000000000ef11        0x4 CMakeFiles/kiibohd.dir/Macro/PartialMap/macro.c.obj
                0x000000000000ef11                rm63_guide
 .rodata.rm64_guide
                0x000000000000ef15        0x4 CMakeFiles/kiibohd.dir/Macro/PartialMap/macro.c.obj
                0x000000000000ef15                rm64_guide
 .rodata.rm65_guide
                0x000000000000ef19        0x4 CMakeFiles/kiibohd.dir/Macro/PartialMap/macro.c.obj
                0x000000000000ef19                rm65_guide
 .rodata.rm66_guide
                0x000000000000ef1d        0x4 CMakeFiles/kiibohd.dir/Macro/PartialMap/macro.c.obj
                0x000000000000ef1d                rm66_guide
 .rodata.rm67_guide
                0x000000000000ef21        0x4 CMakeFiles/kiibohd.dir/Macro/PartialMap/macro.c.obj
                0x000000000000ef21                rm67_guide
 .rodata.rm68_guide
                0x000000000000ef25        0x4 CMakeFiles/kiibohd.dir/Macro/PartialMap/macro.c.obj
                0x000000000000ef25                rm68_guide
 .rodata.rm69_guide
                0x000000000000ef29        0x4 CMakeFiles/kiibohd.dir/Macro/PartialMap/macro.c.obj
                0x000000000000ef29                rm69_guide
 .rodata.rm6_guide
                0x000000000000ef2d        0x4 CMakeFiles/kiibohd.dir/Macro/PartialMap/macro.c.obj
                0x000000000000ef2d                rm6_guide
 .rodata.rm70_guide
                0x000000000000ef31        0x4 CMakeFiles/kiibohd.dir/Macro/PartialMap/macro.c.obj
                0x000000000000ef31                rm70_guide
 .rodata.rm71_guide
                0x000000000000ef35        0x4 CMakeFiles/kiibohd.dir/Macro/PartialMap/macro.c.obj
                0x000000000000ef35                rm71_guide
 .rodata.rm72_guide
                0x000000000000ef39        0x4 CMakeFiles/kiibohd.dir/Macro/PartialMap/macro.c.obj
                0x000000000000ef39                rm72_guide
 .rodata.rm73_guide
                0x000000000000ef3d        0x4 CMakeFiles/kiibohd.dir/Macro/PartialMap/macro.c.obj
                0x000000000000ef3d                rm73_guide
 .rodata.rm74_guide
                0x000000000000ef41        0x4 CMakeFiles/kiibohd.dir/Macro/PartialMap/macro.c.obj
                0x000000000000ef41                rm74_guide
 .rodata.rm75_guide
                0x000000000000ef45        0x4 CMakeFiles/kiibohd.dir/Macro/PartialMap/macro.c.obj
                0x000000000000ef45                rm75_guide
 .rodata.rm76_guide
                0x000000000000ef49        0x4 CMakeFiles/kiibohd.dir/Macro/PartialMap/macro.c.obj
                0x000000000000ef49                rm76_guide
 .rodata.rm77_guide
                0x000000000000ef4d        0x4 CMakeFiles/kiibohd.dir/Macro/PartialMap/macro.c.obj
                0x000000000000ef4d                rm77_guide
 .rodata.rm78_guide
                0x000000000000ef51        0x4 CMakeFiles/kiibohd.dir/Macro/PartialMap/macro.c.obj
                0x000000000000ef51                rm78_guide
 .rodata.rm79_guide
                0x000000000000ef55        0x4 CMakeFiles/kiibohd.dir/Macro/PartialMap/macro.c.obj
                0x000000000000ef55                rm79_guide
 .rodata.rm7_guide
                0x000000000000ef59        0x4 CMakeFiles/kiibohd.dir/Macro/PartialMap/macro.c.obj
                0x000000000000ef59                rm7_guide
 .rodata.rm80_guide
                0x000000000000ef5d        0x4 CMakeFiles/kiibohd.dir/Macro/PartialMap/macro.c.obj
                0x000000000000ef5d                rm80_guide
 .rodata.rm81_guide
                0x000000000000ef61        0x4 CMakeFiles/kiibohd.dir/Macro/PartialMap/macro.c.obj
                0x000000000000ef61                rm81_guide
 .rodata.rm82_guide
                0x000000000000ef65        0x6 CMakeFiles/kiibohd.dir/Macro/PartialMap/macro.c.obj
                0x000000000000ef65                rm82_guide
 .rodata.rm83_guide
                0x000000000000ef6b        0x6 CMakeFiles/kiibohd.dir/Macro/PartialMap/macro.c.obj
                0x000000000000ef6b                rm83_guide
 .rodata.rm84_guide
                0x000000000000ef71        0x6 CMakeFiles/kiibohd.dir/Macro/PartialMap/macro.c.obj
                0x000000000000ef71                rm84_guide
 .rodata.rm85_guide
                0x000000000000ef77        0x6 CMakeFiles/kiibohd.dir/Macro/PartialMap/macro.c.obj
                0x000000000000ef77                rm85_guide
 .rodata.rm86_guide
                0x000000000000ef7d        0x4 CMakeFiles/kiibohd.dir/Macro/PartialMap/macro.c.obj
                0x000000000000ef7d                rm86_guide
 .rodata.rm87_guide
                0x000000000000ef81        0x4 CMakeFiles/kiibohd.dir/Macro/PartialMap/macro.c.obj
                0x000000000000ef81                rm87_guide
 .rodata.rm88_guide
                0x000000000000ef85        0x4 CMakeFiles/kiibohd.dir/Macro/PartialMap/macro.c.obj
                0x000000000000ef85                rm88_guide
 .rodata.rm89_guide
                0x000000000000ef89        0x4 CMakeFiles/kiibohd.dir/Macro/PartialMap/macro.c.obj
                0x000000000000ef89                rm89_guide
 .rodata.rm8_guide
                0x000000000000ef8d        0x4 CMakeFiles/kiibohd.dir/Macro/PartialMap/macro.c.obj
                0x000000000000ef8d                rm8_guide
 .rodata.rm90_guide
                0x000000000000ef91        0x4 CMakeFiles/kiibohd.dir/Macro/PartialMap/macro.c.obj
                0x000000000000ef91                rm90_guide
 .rodata.rm91_guide
                0x000000000000ef95        0x3 CMakeFiles/kiibohd.dir/Macro/PartialMap/macro.c.obj
                0x000000000000ef95                rm91_guide
 .rodata.rm92_guide
                0x000000000000ef98        0x6 CMakeFiles/kiibohd.dir/Macro/PartialMap/macro.c.obj
                0x000000000000ef98                rm92_guide
 .rodata.rm93_guide
                0x000000000000ef9e        0x6 CMakeFiles/kiibohd.dir/Macro/PartialMap/macro.c.obj
                0x000000000000ef9e                rm93_guide
 .rodata.rm94_guide
                0x000000000000efa4        0x6 CMakeFiles/kiibohd.dir/Macro/PartialMap/macro.c.obj
                0x000000000000efa4                rm94_guide
 .rodata.rm95_guide
                0x000000000000efaa        0x6 CMakeFiles/kiibohd.dir/Macro/PartialMap/macro.c.obj
                0x000000000000efaa                rm95_guide
 .rodata.rm96_guide
                0x000000000000efb0        0x5 CMakeFiles/kiibohd.dir/Macro/PartialMap/macro.c.obj
                0x000000000000efb0                rm96_guide
 .rodata.rm97_guide
                0x000000000000efb5        0x5 CMakeFiles/kiibohd.dir/Macro/PartialMap/macro.c.obj
                0x000000000000efb5                rm97_guide
 .rodata.rm98_guide
                0x000000000000efba        0x5 CMakeFiles/kiibohd.dir/Macro/PartialMap/macro.c.obj
                0x000000000000efba                rm98_guide
 .rodata.rm9_guide
                0x000000000000efbf        0x4 CMakeFiles/kiibohd.dir/Macro/PartialMap/macro.c.obj
                0x000000000000efbf                rm9_guide
 .rodata.str1.1
                0x000000000000efc3       0x93 CMakeFiles/kiibohd.dir/Macro/PartialMap/macro.c.obj
 .rodata.tm0_guide
                0x000000000000f056        0x5 CMakeFiles/kiibohd.dir/Macro/PartialMap/macro.c.obj
                0x000000000000f056                tm0_guide
 .rodata.tm10_guide
                0x000000000000f05b        0x5 CMakeFiles/kiibohd.dir/Macro/PartialMap/macro.c.obj
                0x000000000000f05b                tm10_guide
 .rodata.tm11_guide
                0x000000000000f060        0x5 CMakeFiles/kiibohd.dir/Macro/PartialMap/macro.c.obj
                0x000000000000f060                tm11_guide
 .rodata.tm12_guide
                0x000000000000f065        0x5 CMakeFiles/kiibohd.dir/Macro/PartialMap/macro.c.obj
                0x000000000000f065                tm12_guide
 .rodata.tm13_guide
                0x000000000000f06a        0x5 CMakeFiles/kiibohd.dir/Macro/PartialMap/macro.c.obj
                0x000000000000f06a                tm13_guide
 .rodata.tm14_guide
                0x000000000000f06f        0x5 CMakeFiles/kiibohd.dir/Macro/PartialMap/macro.c.obj
                0x000000000000f06f                tm14_guide
 .rodata.tm15_guide
                0x000000000000f074        0x5 CMakeFiles/kiibohd.dir/Macro/PartialMap/macro.c.obj
                0x000000000000f074                tm15_guide
 .rodata.tm16_guide
                0x000000000000f079        0x5 CMakeFiles/kiibohd.dir/Macro/PartialMap/macro.c.obj
                0x000000000000f079                tm16_guide
 .rodata.tm17_guide
                0x000000000000f07e        0x5 CMakeFiles/kiibohd.dir/Macro/PartialMap/macro.c.obj
                0x000000000000f07e                tm17_guide
 .rodata.tm18_guide
                0x000000000000f083        0x5 CMakeFiles/kiibohd.dir/Macro/PartialMap/macro.c.obj
                0x000000000000f083                tm18_guide
 .rodata.tm19_guide
                0x000000000000f088        0x5 CMakeFiles/kiibohd.dir/Macro/PartialMap/macro.c.obj
                0x000000000000f088                tm19_guide
 .rodata.tm1_guide
                0x000000000000f08d        0x5 CMakeFiles/kiibohd.dir/Macro/PartialMap/macro.c.obj
                0x000000000000f08d                tm1_guide
 .rodata.tm20_guide
                0x000000000000f092        0x5 CMakeFiles/kiibohd.dir/Macro/PartialMap/macro.c.obj
                0x000000000000f092                tm20_guide
 .rodata.tm21_guide
                0x000000000000f097        0x5 CMakeFiles/kiibohd.dir/Macro/PartialMap/macro.c.obj
                0x000000000000f097                tm21_guide
 .rodata.tm22_guide
                0x000000000000f09c        0x5 CMakeFiles/kiibohd.dir/Macro/PartialMap/macro.c.obj
                0x000000000000f09c                tm22_guide
 .rodata.tm23_guide
                0x000000000000f0a1        0x5 CMakeFiles/kiibohd.dir/Macro/PartialMap/macro.c.obj
                0x000000000000f0a1                tm23_guide
 .rodata.tm24_guide
                0x000000000000f0a6        0x5 CMakeFiles/kiibohd.dir/Macro/PartialMap/macro.c.obj
                0x000000000000f0a6                tm24_guide
 .rodata.tm25_guide
                0x000000000000f0ab        0x5 CMakeFiles/kiibohd.dir/Macro/PartialMap/macro.c.obj
                0x000000000000f0ab                tm25_guide
 .rodata.tm26_guide
                0x000000000000f0b0        0x5 CMakeFiles/kiibohd.dir/Macro/PartialMap/macro.c.obj
                0x000000000000f0b0                tm26_guide
 .rodata.tm27_guide
                0x000000000000f0b5        0x5 CMakeFiles/kiibohd.dir/Macro/PartialMap/macro.c.obj
                0x000000000000f0b5                tm27_guide
 .rodata.tm28_guide
                0x000000000000f0ba        0x5 CMakeFiles/kiibohd.dir/Macro/PartialMap/macro.c.obj
                0x000000000000f0ba                tm28_guide
 .rodata.tm29_guide
                0x000000000000f0bf        0x5 CMakeFiles/kiibohd.dir/Macro/PartialMap/macro.c.obj
                0x000000000000f0bf                tm29_guide
 .rodata.tm2_guide
                0x000000000000f0c4        0x5 CMakeFiles/kiibohd.dir/Macro/PartialMap/macro.c.obj
                0x000000000000f0c4                tm2_guide
 .rodata.tm30_guide
                0x000000000000f0c9        0x5 CMakeFiles/kiibohd.dir/Macro/PartialMap/macro.c.obj
                0x000000000000f0c9                tm30_guide
 .rodata.tm31_guide
                0x000000000000f0ce        0x5 CMakeFiles/kiibohd.dir/Macro/PartialMap/macro.c.obj
                0x000000000000f0ce                tm31_guide
 .rodata.tm32_guide
                0x000000000000f0d3        0x5 CMakeFiles/kiibohd.dir/Macro/PartialMap/macro.c.obj
                0x000000000000f0d3                tm32_guide
 .rodata.tm33_guide
                0x000000000000f0d8        0x5 CMakeFiles/kiibohd.dir/Macro/PartialMap/macro.c.obj
                0x000000000000f0d8                tm33_guide
 .rodata.tm34_guide
                0x000000000000f0dd        0x5 CMakeFiles/kiibohd.dir/Macro/PartialMap/macro.c.obj
                0x000000000000f0dd                tm34_guide
 .rodata.tm35_guide
                0x000000000000f0e2        0x5 CMakeFiles/kiibohd.dir/Macro/PartialMap/macro.c.obj
                0x000000000000f0e2                tm35_guide
 .rodata.tm36_guide
                0x000000000000f0e7        0x5 CMakeFiles/kiibohd.dir/Macro/PartialMap/macro.c.obj
                0x000000000000f0e7                tm36_guide
 .rodata.tm37_guide
                0x000000000000f0ec        0x5 CMakeFiles/kiibohd.dir/Macro/PartialMap/macro.c.obj
                0x000000000000f0ec                tm37_guide
 .rodata.tm38_guide
                0x000000000000f0f1        0x5 CMakeFiles/kiibohd.dir/Macro/PartialMap/macro.c.obj
                0x000000000000f0f1                tm38_guide
 .rodata.tm39_guide
                0x000000000000f0f6        0x5 CMakeFiles/kiibohd.dir/Macro/PartialMap/macro.c.obj
                0x000000000000f0f6                tm39_guide
 .rodata.tm3_guide
                0x000000000000f0fb        0x5 CMakeFiles/kiibohd.dir/Macro/PartialMap/macro.c.obj
                0x000000000000f0fb                tm3_guide
 .rodata.tm40_guide
                0x000000000000f100        0x5 CMakeFiles/kiibohd.dir/Macro/PartialMap/macro.c.obj
                0x000000000000f100                tm40_guide
 .rodata.tm41_guide
                0x000000000000f105        0x5 CMakeFiles/kiibohd.dir/Macro/PartialMap/macro.c.obj
                0x000000000000f105                tm41_guide
 .rodata.tm42_guide
                0x000000000000f10a        0x5 CMakeFiles/kiibohd.dir/Macro/PartialMap/macro.c.obj
                0x000000000000f10a                tm42_guide
 .rodata.tm43_guide
                0x000000000000f10f        0x5 CMakeFiles/kiibohd.dir/Macro/PartialMap/macro.c.obj
                0x000000000000f10f                tm43_guide
 .rodata.tm44_guide
                0x000000000000f114        0x5 CMakeFiles/kiibohd.dir/Macro/PartialMap/macro.c.obj
                0x000000000000f114                tm44_guide
 .rodata.tm45_guide
                0x000000000000f119        0x5 CMakeFiles/kiibohd.dir/Macro/PartialMap/macro.c.obj
                0x000000000000f119                tm45_guide
 .rodata.tm46_guide
                0x000000000000f11e        0x5 CMakeFiles/kiibohd.dir/Macro/PartialMap/macro.c.obj
                0x000000000000f11e                tm46_guide
 .rodata.tm47_guide
                0x000000000000f123        0x5 CMakeFiles/kiibohd.dir/Macro/PartialMap/macro.c.obj
                0x000000000000f123                tm47_guide
 .rodata.tm48_guide
                0x000000000000f128        0x5 CMakeFiles/kiibohd.dir/Macro/PartialMap/macro.c.obj
                0x000000000000f128                tm48_guide
 .rodata.tm49_guide
                0x000000000000f12d        0x5 CMakeFiles/kiibohd.dir/Macro/PartialMap/macro.c.obj
                0x000000000000f12d                tm49_guide
 .rodata.tm4_guide
                0x000000000000f132        0x5 CMakeFiles/kiibohd.dir/Macro/PartialMap/macro.c.obj
                0x000000000000f132                tm4_guide
 .rodata.tm50_guide
                0x000000000000f137        0x5 CMakeFiles/kiibohd.dir/Macro/PartialMap/macro.c.obj
                0x000000000000f137                tm50_guide
 .rodata.tm51_guide
                0x000000000000f13c        0x5 CMakeFiles/kiibohd.dir/Macro/PartialMap/macro.c.obj
                0x000000000000f13c                tm51_guide
 .rodata.tm52_guide
                0x000000000000f141        0x5 CMakeFiles/kiibohd.dir/Macro/PartialMap/macro.c.obj
                0x000000000000f141                tm52_guide
 .rodata.tm53_guide
                0x000000000000f146        0x5 CMakeFiles/kiibohd.dir/Macro/PartialMap/macro.c.obj
                0x000000000000f146                tm53_guide
 .rodata.tm54_guide
                0x000000000000f14b        0x5 CMakeFiles/kiibohd.dir/Macro/PartialMap/macro.c.obj
                0x000000000000f14b                tm54_guide
 .rodata.tm55_guide
                0x000000000000f150        0x5 CMakeFiles/kiibohd.dir/Macro/PartialMap/macro.c.obj
                0x000000000000f150                tm55_guide
 .rodata.tm56_guide
                0x000000000000f155        0x5 CMakeFiles/kiibohd.dir/Macro/PartialMap/macro.c.obj
                0x000000000000f155                tm56_guide
 .rodata.tm57_guide
                0x000000000000f15a        0x5 CMakeFiles/kiibohd.dir/Macro/PartialMap/macro.c.obj
                0x000000000000f15a                tm57_guide
 .rodata.tm58_guide
                0x000000000000f15f        0x5 CMakeFiles/kiibohd.dir/Macro/PartialMap/macro.c.obj
                0x000000000000f15f                tm58_guide
 .rodata.tm59_guide
                0x000000000000f164        0x5 CMakeFiles/kiibohd.dir/Macro/PartialMap/macro.c.obj
                0x000000000000f164                tm59_guide
 .rodata.tm5_guide
                0x000000000000f169        0x5 CMakeFiles/kiibohd.dir/Macro/PartialMap/macro.c.obj
                0x000000000000f169                tm5_guide
 .rodata.tm60_guide
                0x000000000000f16e        0x5 CMakeFiles/kiibohd.dir/Macro/PartialMap/macro.c.obj
                0x000000000000f16e                tm60_guide
 .rodata.tm61_guide
                0x000000000000f173        0x5 CMakeFiles/kiibohd.dir/Macro/PartialMap/macro.c.obj
                0x000000000000f173                tm61_guide
 .rodata.tm62_guide
                0x000000000000f178        0x5 CMakeFiles/kiibohd.dir/Macro/PartialMap/macro.c.obj
                0x000000000000f178                tm62_guide
 .rodata.tm63_guide
                0x000000000000f17d        0x5 CMakeFiles/kiibohd.dir/Macro/PartialMap/macro.c.obj
                0x000000000000f17d                tm63_guide
 .rodata.tm64_guide
                0x000000000000f182        0x5 CMakeFiles/kiibohd.dir/Macro/PartialMap/macro.c.obj
                0x000000000000f182                tm64_guide
 .rodata.tm65_guide
                0x000000000000f187        0x5 CMakeFiles/kiibohd.dir/Macro/PartialMap/macro.c.obj
                0x000000000000f187                tm65_guide
 .rodata.tm66_guide
                0x000000000000f18c        0x5 CMakeFiles/kiibohd.dir/Macro/PartialMap/macro.c.obj
                0x000000000000f18c                tm66_guide
 .rodata.tm67_guide
                0x000000000000f191        0x5 CMakeFiles/kiibohd.dir/Macro/PartialMap/macro.c.obj
                0x000000000000f191                tm67_guide
 .rodata.tm68_guide
                0x000000000000f196        0x5 CMakeFiles/kiibohd.dir/Macro/PartialMap/macro.c.obj
                0x000000000000f196                tm68_guide
 .rodata.tm69_guide
                0x000000000000f19b        0x5 CMakeFiles/kiibohd.dir/Macro/PartialMap/macro.c.obj
                0x000000000000f19b                tm69_guide
 .rodata.tm6_guide
                0x000000000000f1a0        0x5 CMakeFiles/kiibohd.dir/Macro/PartialMap/macro.c.obj
                0x000000000000f1a0                tm6_guide
 .rodata.tm70_guide
                0x000000000000f1a5        0x5 CMakeFiles/kiibohd.dir/Macro/PartialMap/macro.c.obj
                0x000000000000f1a5                tm70_guide
 .rodata.tm71_guide
                0x000000000000f1aa        0x5 CMakeFiles/kiibohd.dir/Macro/PartialMap/macro.c.obj
                0x000000000000f1aa                tm71_guide
 .rodata.tm72_guide
                0x000000000000f1af        0x5 CMakeFiles/kiibohd.dir/Macro/PartialMap/macro.c.obj
                0x000000000000f1af                tm72_guide
 .rodata.tm73_guide
                0x000000000000f1b4        0x5 CMakeFiles/kiibohd.dir/Macro/PartialMap/macro.c.obj
                0x000000000000f1b4                tm73_guide
 .rodata.tm74_guide
                0x000000000000f1b9        0x5 CMakeFiles/kiibohd.dir/Macro/PartialMap/macro.c.obj
                0x000000000000f1b9                tm74_guide
 .rodata.tm75_guide
                0x000000000000f1be        0x5 CMakeFiles/kiibohd.dir/Macro/PartialMap/macro.c.obj
                0x000000000000f1be                tm75_guide
 .rodata.tm7_guide
                0x000000000000f1c3        0x5 CMakeFiles/kiibohd.dir/Macro/PartialMap/macro.c.obj
                0x000000000000f1c3                tm7_guide
 .rodata.tm8_guide
                0x000000000000f1c8        0x5 CMakeFiles/kiibohd.dir/Macro/PartialMap/macro.c.obj
                0x000000000000f1c8                tm8_guide
 .rodata.tm9_guide
                0x000000000000f1cd        0x5 CMakeFiles/kiibohd.dir/Macro/PartialMap/macro.c.obj
                0x000000000000f1cd                tm9_guide
 .rodata.voteDebugCLIDict_DescEntry
                0x000000000000f1d2       0x25 CMakeFiles/kiibohd.dir/Macro/PartialMap/macro.c.obj
                0x000000000000f1d2                voteDebugCLIDict_DescEntry
 .rodata.Macro_evalResultMacro.str1.1
                0x000000000000f1f7       0x36 CMakeFiles/kiibohd.dir/Macro/PartialMap/result.c.obj
 .rodata.Trigger_evalShortTriggerMacroVote.str1.1
                0x000000000000f22d      0x12f CMakeFiles/kiibohd.dir/Macro/PartialMap/trigger.c.obj
 .rodata.Trigger_evalTriggerMacro.str1.1
                0x000000000000f35c        0x3 CMakeFiles/kiibohd.dir/Macro/PartialMap/trigger.c.obj
 .rodata.Trigger_showTriggerMacroVote.str1.1
                0x000000000000f35c       0x1b CMakeFiles/kiibohd.dir/Macro/PartialMap/trigger.c.obj
 .rodata.Pixel_AnimationControl_capability.str1.1
                0x000000000000f377       0x28 CMakeFiles/kiibohd.dir/Macro/PixelMap/pixel.c.obj
 .rodata.Pixel_AnimationIndex_capability.str1.1
                0x000000000000f39f       0x64 CMakeFiles/kiibohd.dir/Macro/PixelMap/pixel.c.obj
 .rodata.Pixel_Animation_capability.str1.1
                0x000000000000f403       0x4d CMakeFiles/kiibohd.dir/Macro/PixelMap/pixel.c.obj
 .rodata.Pixel_Pixel_capability.str1.1
                0x000000000000f450       0x29 CMakeFiles/kiibohd.dir/Macro/PixelMap/pixel.c.obj
 .rodata.Pixel_addAnimation.str1.1
                0x000000000000f479       0x76 CMakeFiles/kiibohd.dir/Macro/PixelMap/pixel.c.obj
 .rodata.Pixel_bufferMap.str1.1
                0x000000000000f4ef       0x27 CMakeFiles/kiibohd.dir/Macro/PixelMap/pixel.c.obj
 .rodata.Pixel_channelSet.str1.1
                0x000000000000f516       0x33 CMakeFiles/kiibohd.dir/Macro/PixelMap/pixel.c.obj
 .rodata.Pixel_channelToggle.str1.1
                0x000000000000f549       0x30 CMakeFiles/kiibohd.dir/Macro/PixelMap/pixel.c.obj
 .rodata.Pixel_dispBuffer.str1.1
                0x000000000000f579        0x7 CMakeFiles/kiibohd.dir/Macro/PixelMap/pixel.c.obj
                                         0x12 (size before relaxing)
 .rodata.Pixel_fillPixelLookup.str1.1
                0x000000000000f580       0xc6 CMakeFiles/kiibohd.dir/Macro/PixelMap/pixel.c.obj
 .rodata.Pixel_pixelEvaluation.str1.1
                0x000000000000f646      0x1a7 CMakeFiles/kiibohd.dir/Macro/PixelMap/pixel.c.obj
 .rodata.Pixel_pixelTweenNextPos.str1.1
                0x000000000000f7ed       0x28 CMakeFiles/kiibohd.dir/Macro/PixelMap/pixel.c.obj
 .rodata.Pixel_setup.str1.1
                0x000000000000f815        0x9 CMakeFiles/kiibohd.dir/Macro/PixelMap/pixel.c.obj
 .rodata.Pixel_showPixelElement.str1.1
                0x000000000000f81e        0xb CMakeFiles/kiibohd.dir/Macro/PixelMap/pixel.c.obj
 .rodata.aniAddCLIDict_DescEntry
                0x000000000000f829       0x28 CMakeFiles/kiibohd.dir/Macro/PixelMap/pixel.c.obj
                0x000000000000f829                aniAddCLIDict_DescEntry
 .rodata.aniDelCLIDict_DescEntry
                0x000000000000f851       0x27 CMakeFiles/kiibohd.dir/Macro/PixelMap/pixel.c.obj
                0x000000000000f851                aniDelCLIDict_DescEntry
 .rodata.aniStackCLIDict_DescEntry
                0x000000000000f878       0x26 CMakeFiles/kiibohd.dir/Macro/PixelMap/pixel.c.obj
                0x000000000000f878                aniStackCLIDict_DescEntry
 .rodata.chanTestCLIDict_DescEntry
                0x000000000000f89e       0x52 CMakeFiles/kiibohd.dir/Macro/PixelMap/pixel.c.obj
                0x000000000000f89e                chanTestCLIDict_DescEntry
 .rodata.cliFunc_aniAdd.str1.1
                0x000000000000f8f0        0x3 CMakeFiles/kiibohd.dir/Macro/PixelMap/pixel.c.obj
 .rodata.cliFunc_aniStack.str1.1
                0x000000000000f8f0       0x66 CMakeFiles/kiibohd.dir/Macro/PixelMap/pixel.c.obj
                                         0x68 (size before relaxing)
 .rodata.cliFunc_chanTest.str1.1
                0x000000000000f956       0xd4 CMakeFiles/kiibohd.dir/Macro/PixelMap/pixel.c.obj
 .rodata.cliFunc_pixelList.str1.1
                0x000000000000fa2a       0x6b CMakeFiles/kiibohd.dir/Macro/PixelMap/pixel.c.obj
                                         0x78 (size before relaxing)
 .rodata.cliFunc_pixelSCTest.str1.1
                0x000000000000fa95       0xa1 CMakeFiles/kiibohd.dir/Macro/PixelMap/pixel.c.obj
                                         0xaa (size before relaxing)
 .rodata.cliFunc_pixelTest.str1.1
                0x000000000000fb36       0x83 CMakeFiles/kiibohd.dir/Macro/PixelMap/pixel.c.obj
                                         0x85 (size before relaxing)
 .rodata.cliFunc_pixelXYTest.str1.1
                0x000000000000fbb9       0xd4 CMakeFiles/kiibohd.dir/Macro/PixelMap/pixel.c.obj
 *fill*         0x000000000000fc8d        0x3 
 .rodata.pixelCLIDict
                0x000000000000fc90       0x78 CMakeFiles/kiibohd.dir/Macro/PixelMap/pixel.c.obj
                0x000000000000fc90                pixelCLIDict
 .rodata.pixelCLIDictName
                0x000000000000fd08       0x16 CMakeFiles/kiibohd.dir/Macro/PixelMap/pixel.c.obj
                0x000000000000fd08                pixelCLIDictName
 .rodata.pixelListCLIDict_DescEntry
                0x000000000000fd1e       0x23 CMakeFiles/kiibohd.dir/Macro/PixelMap/pixel.c.obj
                0x000000000000fd1e                pixelListCLIDict_DescEntry
 .rodata.pixelSCTestCLIDict_DescEntry
                0x000000000000fd41       0x59 CMakeFiles/kiibohd.dir/Macro/PixelMap/pixel.c.obj
                0x000000000000fd41                pixelSCTestCLIDict_DescEntry
 .rodata.pixelTestCLIDict_DescEntry
                0x000000000000fd9a       0x5a CMakeFiles/kiibohd.dir/Macro/PixelMap/pixel.c.obj
                0x000000000000fd9a                pixelTestCLIDict_DescEntry
 .rodata.pixelXYTestCLIDict_DescEntry
                0x000000000000fdf4       0x53 CMakeFiles/kiibohd.dir/Macro/PixelMap/pixel.c.obj
                0x000000000000fdf4                pixelXYTestCLIDict_DescEntry
 .rodata.rectDispCLIDict_DescEntry
                0x000000000000fe47       0x31 CMakeFiles/kiibohd.dir/Macro/PixelMap/pixel.c.obj
                0x000000000000fe47                rectDispCLIDict_DescEntry
 .rodata.str1.1
                0x000000000000fe78       0x55 CMakeFiles/kiibohd.dir/Macro/PixelMap/pixel.c.obj
 *fill*         0x000000000000fecd        0x1 
 .rodata.Pixel_DisplayMapping
                0x000000000000fece       0xee CMakeFiles/kiibohd.dir/generatedPixelmap.c.obj
                0x000000000000fece                Pixel_DisplayMapping
 .rodata.Pixel_Mapping
                0x000000000000ffbc      0x130 CMakeFiles/kiibohd.dir/generatedPixelmap.c.obj
                0x000000000000ffbc                Pixel_Mapping
 .rodata.Pixel_ScanCodeToDisplay
                0x00000000000100ec       0x5a CMakeFiles/kiibohd.dir/generatedPixelmap.c.obj
                0x00000000000100ec                Pixel_ScanCodeToDisplay
 .rodata.Pixel_ScanCodeToPixel
                0x0000000000010146       0x5a CMakeFiles/kiibohd.dir/generatedPixelmap.c.obj
                0x0000000000010146                Pixel_ScanCodeToPixel
 .rodata.HIDIO_buffer_generate_packet.str1.1
                0x00000000000101a0       0x65 CMakeFiles/kiibohd.dir/Output/HID-IO/hidio_com.c.obj
 .rodata.HIDIO_buffer_pop_bytes.str1.1
                0x0000000000010205       0x4c CMakeFiles/kiibohd.dir/Output/HID-IO/hidio_com.c.obj
                                         0x51 (size before relaxing)
 .rodata.HIDIO_call_id.str1.1
                0x0000000000010251        0x7 CMakeFiles/kiibohd.dir/Output/HID-IO/hidio_com.c.obj
 .rodata.HIDIO_process_incoming_packet.str1.1
                0x0000000000010258       0xc8 CMakeFiles/kiibohd.dir/Output/HID-IO/hidio_com.c.obj
 .rodata.HIDIO_register_id.str1.1
                0x0000000000010320       0x41 CMakeFiles/kiibohd.dir/Output/HID-IO/hidio_com.c.obj
 .rodata.HIDIO_setup.str1.1
                0x0000000000010361        0x7 CMakeFiles/kiibohd.dir/Output/HID-IO/hidio_com.c.obj
 .rodata.hidioCLIDict
                0x0000000000010368        0xc CMakeFiles/kiibohd.dir/Output/HID-IO/hidio_com.c.obj
                0x0000000000010368                hidioCLIDict
 .rodata.hidioCLIDictName
                0x0000000000010374       0x17 CMakeFiles/kiibohd.dir/Output/HID-IO/hidio_com.c.obj
                0x0000000000010374                hidioCLIDictName
 .rodata.Output_flashMode_capability.str1.1
                0x000000000001038b       0x13 CMakeFiles/kiibohd.dir/Output/Interface/output_gen.c.obj
 .rodata.Output_update_external_current.str1.1
                0x000000000001039e       0x4e CMakeFiles/kiibohd.dir/Output/Interface/output_gen.c.obj
 .rodata.cliFunc_current.str1.1
                0x00000000000103ec       0x2a CMakeFiles/kiibohd.dir/Output/Interface/output_gen.c.obj
                                         0x2d (size before relaxing)
 .rodata.currentCLIDict_DescEntry
                0x0000000000010416       0x26 CMakeFiles/kiibohd.dir/Output/Interface/output_gen.c.obj
                0x0000000000010416                currentCLIDict_DescEntry
 .rodata.outputCLIDict
                0x000000000001043c       0x24 CMakeFiles/kiibohd.dir/Output/Interface/output_gen.c.obj
                0x000000000001043c                outputCLIDict
 .rodata.outputCLIDictName
                0x0000000000010460       0x17 CMakeFiles/kiibohd.dir/Output/Interface/output_gen.c.obj
                0x0000000000010460                outputCLIDictName
 .rodata.outputDebugCLIDict_DescEntry
                0x0000000000010477       0x1a CMakeFiles/kiibohd.dir/Output/Interface/output_gen.c.obj
                0x0000000000010477                outputDebugCLIDict_DescEntry
 .rodata.str1.1
                0x0000000000010491       0x14 CMakeFiles/kiibohd.dir/Output/Interface/output_gen.c.obj
 .rodata.CSWTCH.63
                0x00000000000104a5       0x2f CMakeFiles/kiibohd.dir/Output/USB/output_usb.c.obj
 .rodata.CSWTCH.64
                0x00000000000104d4       0x2f CMakeFiles/kiibohd.dir/Output/USB/output_usb.c.obj
 .rodata.CSWTCH.65
                0x0000000000010503       0x70 CMakeFiles/kiibohd.dir/Output/USB/output_usb.c.obj
 .rodata.CSWTCH.66
                0x0000000000010573       0x70 CMakeFiles/kiibohd.dir/Output/USB/output_usb.c.obj
 .rodata.CSWTCH.67
                0x00000000000105e3        0x8 CMakeFiles/kiibohd.dir/Output/USB/output_usb.c.obj
 .rodata.CSWTCH.68
                0x00000000000105eb       0x30 CMakeFiles/kiibohd.dir/Output/USB/output_usb.c.obj
 .rodata.CSWTCH.69
                0x000000000001061b       0x30 CMakeFiles/kiibohd.dir/Output/USB/output_usb.c.obj
 .rodata.Output_consCtrlSend_capability.str1.1
                0x000000000001064b       0x1e CMakeFiles/kiibohd.dir/Output/USB/output_usb.c.obj
 .rodata.Output_kbdProtocolBoot_capability.str1.1
                0x0000000000010669       0x19 CMakeFiles/kiibohd.dir/Output/USB/output_usb.c.obj
 .rodata.Output_kbdProtocolNKRO_capability.str1.1
                0x0000000000010682       0x19 CMakeFiles/kiibohd.dir/Output/USB/output_usb.c.obj
 .rodata.Output_noneSend_capability.str1.1
                0x000000000001069b       0x12 CMakeFiles/kiibohd.dir/Output/USB/output_usb.c.obj
 .rodata.Output_sysCtrlSend_capability.str1.1
                0x00000000000106ad       0x1c CMakeFiles/kiibohd.dir/Output/USB/output_usb.c.obj
 .rodata.Output_toggleKbdProtocol_capability.str1.1
                0x00000000000106c9       0x1b CMakeFiles/kiibohd.dir/Output/USB/output_usb.c.obj
 .rodata.Output_usbCodeSend_capability.str1.1
                0x00000000000106e4       0xe3 CMakeFiles/kiibohd.dir/Output/USB/output_usb.c.obj
 .rodata.Output_usbMouse_capability.str1.1
                0x00000000000107c7       0x27 CMakeFiles/kiibohd.dir/Output/USB/output_usb.c.obj
 .rodata.USB_setup.str1.1
                0x00000000000107ee       0x1c CMakeFiles/kiibohd.dir/Output/USB/output_usb.c.obj
 .rodata.cliFunc_idle.str1.1
                0x000000000001080a       0x2b CMakeFiles/kiibohd.dir/Output/USB/output_usb.c.obj
                                         0x2e (size before relaxing)
 .rodata.cliFunc_kbdProtocol.str1.1
                0x0000000000010835       0x57 CMakeFiles/kiibohd.dir/Output/USB/output_usb.c.obj
 .rodata.cliFunc_readLEDs.str1.1
                0x000000000001088c       0x1e CMakeFiles/kiibohd.dir/Output/USB/output_usb.c.obj
 .rodata.cliFunc_usbInitTime.str1.1
                0x00000000000108aa       0x22 CMakeFiles/kiibohd.dir/Output/USB/output_usb.c.obj
                                         0x29 (size before relaxing)
 .rodata.idleCLIDict_DescEntry
                0x00000000000108cc       0x30 CMakeFiles/kiibohd.dir/Output/USB/output_usb.c.obj
                0x00000000000108cc                idleCLIDict_DescEntry
 .rodata.kbdProtocolCLIDict_DescEntry
                0x00000000000108fc       0x34 CMakeFiles/kiibohd.dir/Output/USB/output_usb.c.obj
                0x00000000000108fc                kbdProtocolCLIDict_DescEntry
 .rodata.readLEDsCLIDict_DescEntry
                0x0000000000010930       0x40 CMakeFiles/kiibohd.dir/Output/USB/output_usb.c.obj
                0x0000000000010930                readLEDsCLIDict_DescEntry
 .rodata.str1.1
                0x0000000000010970       0x26 CMakeFiles/kiibohd.dir/Output/USB/output_usb.c.obj
 *fill*         0x0000000000010996        0x2 
 .rodata.usbCLIDict
                0x0000000000010998       0x3c CMakeFiles/kiibohd.dir/Output/USB/output_usb.c.obj
                0x0000000000010998                usbCLIDict
 .rodata.usbCLIDictName
                0x00000000000109d4       0x14 CMakeFiles/kiibohd.dir/Output/USB/output_usb.c.obj
                0x00000000000109d4                usbCLIDictName
 .rodata.usbInitTimeCLIDict_DescEntry
                0x00000000000109e8       0x42 CMakeFiles/kiibohd.dir/Output/USB/output_usb.c.obj
                0x00000000000109e8                usbInitTimeCLIDict_DescEntry
 *fill*         0x0000000000010a2a        0x2 
 .rodata.usb_descriptor_list
                0x0000000000010a2c      0x144 CMakeFiles/kiibohd.dir/Output/USB/arm/usb_desc.c.obj
                0x0000000000010a2c                usb_descriptor_list
 .rodata.usb_endpoint_config_table
                0x0000000000010b70        0xa CMakeFiles/kiibohd.dir/Output/USB/arm/usb_desc.c.obj
                0x0000000000010b70                usb_endpoint_config_table
 .rodata.usb_device_check.str1.1
                0x0000000000010b7a       0x4c CMakeFiles/kiibohd.dir/Output/USB/arm/usb_dev.c.obj
 .rodata.usb_isr.str1.1
                0x0000000000010bc6      0x123 CMakeFiles/kiibohd.dir/Output/USB/arm/usb_dev.c.obj
                                        0x12a (size before relaxing)
 .rodata.usb_keyboard_send.str1.1
                0x0000000000010ce9       0xc5 CMakeFiles/kiibohd.dir/Output/USB/arm/usb_keyboard.c.obj
                                         0xca (size before relaxing)
 .rodata.usb_mouse_send.str1.1
                0x0000000000010dae       0x2f CMakeFiles/kiibohd.dir/Output/USB/arm/usb_mouse.c.obj
                                         0x5c (size before relaxing)
 .rodata.usb_rawio_rx.str1.1
                0x0000000000010ddd       0x3a CMakeFiles/kiibohd.dir/Output/USB/arm/usb_rawio.c.obj
 .rodata.usb_rawio_tx.str1.1
                0x0000000000010e17       0x3a CMakeFiles/kiibohd.dir/Output/USB/arm/usb_rawio.c.obj
 .rodata        0x0000000000010e51        0x4 CMakeFiles/kiibohd.dir/Debug/cli/cli.c.obj
 .rodata.CLI_commandLookup.str1.1
                0x0000000000010e55       0x40 CMakeFiles/kiibohd.dir/Debug/cli/cli.c.obj
                                         0x4a (size before relaxing)
 .rodata.CLI_process.str1.1
                0x0000000000010e95       0x6a CMakeFiles/kiibohd.dir/Debug/cli/cli.c.obj
 .rodata.CLI_registerDictionary.str1.1
                0x0000000000010eff       0x45 CMakeFiles/kiibohd.dir/Debug/cli/cli.c.obj
 .rodata.ChipVersion_cpuid_implementor.str1.1
                0x0000000000010f44        0x4 CMakeFiles/kiibohd.dir/Debug/cli/cli.c.obj
 .rodata.ChipVersion_cpuid_partno.str1.1
                0x0000000000010f48        0xd CMakeFiles/kiibohd.dir/Debug/cli/cli.c.obj
 *fill*         0x0000000000010f55        0x1 
 .rodata.ChipVersion_eepromsize
                0x0000000000010f56       0x20 CMakeFiles/kiibohd.dir/Debug/cli/cli.c.obj
                0x0000000000010f56                ChipVersion_eepromsize
 .rodata.ChipVersion_lookup.str1.1
                0x0000000000010f76       0x82 CMakeFiles/kiibohd.dir/Debug/cli/cli.c.obj
 .rodata.ChipVersion_nvmsize
                0x0000000000010ff8       0x1e CMakeFiles/kiibohd.dir/Debug/cli/cli.c.obj
                0x0000000000010ff8                ChipVersion_nvmsize
 .rodata.ChipVersion_pflashsize
                0x0000000000011016       0x20 CMakeFiles/kiibohd.dir/Debug/cli/cli.c.obj
                0x0000000000011016                ChipVersion_pflashsize
 .rodata.ChipVersion_ramsize
                0x0000000000011036       0x20 CMakeFiles/kiibohd.dir/Debug/cli/cli.c.obj
                0x0000000000011036                ChipVersion_ramsize
 *fill*         0x0000000000011056        0x2 
 .rodata.basicCLIDict
                0x0000000000011058       0xa8 CMakeFiles/kiibohd.dir/Debug/cli/cli.c.obj
                0x0000000000011058                basicCLIDict
 .rodata.basicCLIDictName
                0x0000000000011100       0x11 CMakeFiles/kiibohd.dir/Debug/cli/cli.c.obj
                0x0000000000011100                basicCLIDictName
 .rodata.clearCLIDict_DescEntry
                0x0000000000011111       0x12 CMakeFiles/kiibohd.dir/Debug/cli/cli.c.obj
                0x0000000000011111                clearCLIDict_DescEntry
 .rodata.cliDebugCLIDict_DescEntry
                0x0000000000011123       0x3a CMakeFiles/kiibohd.dir/Debug/cli/cli.c.obj
                0x0000000000011123                cliDebugCLIDict_DescEntry
 .rodata.cliFunc_clear.str1.1
                0x000000000001115d        0x9 CMakeFiles/kiibohd.dir/Debug/cli/cli.c.obj
 .rodata.cliFunc_cliDebug.str1.1
                0x0000000000011166       0x5d CMakeFiles/kiibohd.dir/Debug/cli/cli.c.obj
 .rodata.cliFunc_colorTest.str1.1
                0x00000000000111c3       0x1f CMakeFiles/kiibohd.dir/Debug/cli/cli.c.obj
                                         0x22 (size before relaxing)
 .rodata.cliFunc_help.str1.1
                0x00000000000111e2       0x18 CMakeFiles/kiibohd.dir/Debug/cli/cli.c.obj
                                         0x1f (size before relaxing)
 .rodata.cliFunc_latency.str1.1
                0x00000000000111fa       0x38 CMakeFiles/kiibohd.dir/Debug/cli/cli.c.obj
 .rodata.cliFunc_periodic.str1.1
                0x0000000000011232       0x28 CMakeFiles/kiibohd.dir/Debug/cli/cli.c.obj
 .rodata.cliFunc_rand.str1.1
                0x000000000001125a       0x46 CMakeFiles/kiibohd.dir/Debug/cli/cli.c.obj
 .rodata.cliFunc_reload.str1.1
                0x00000000000112a0       0x96 CMakeFiles/kiibohd.dir/Debug/cli/cli.c.obj
 .rodata.cliFunc_reset.str1.1
                0x00000000000112a0        0x3 CMakeFiles/kiibohd.dir/Debug/cli/cli.c.obj
 .rodata.cliFunc_tick.str1.1
                0x00000000000112a3       0x61 CMakeFiles/kiibohd.dir/Debug/cli/cli.c.obj
                                         0x63 (size before relaxing)
 .rodata.cliFunc_version.str1.1
                0x0000000000011304      0xc60 CMakeFiles/kiibohd.dir/Debug/cli/cli.c.obj
                                        0xc64 (size before relaxing)
 .rodata.colorTestCLIDict_DescEntry
                0x0000000000011f64       0x61 CMakeFiles/kiibohd.dir/Debug/cli/cli.c.obj
                0x0000000000011f64                colorTestCLIDict_DescEntry
 .rodata.helpCLIDict_DescEntry
                0x0000000000011fc5       0x18 CMakeFiles/kiibohd.dir/Debug/cli/cli.c.obj
                0x0000000000011fc5                helpCLIDict_DescEntry
 .rodata.latencyCLIDict_DescEntry
                0x0000000000011fdd       0x50 CMakeFiles/kiibohd.dir/Debug/cli/cli.c.obj
                0x0000000000011fdd                latencyCLIDict_DescEntry
 .rodata.ledCLIDict_DescEntry
                0x000000000001202d       0x96 CMakeFiles/kiibohd.dir/Debug/cli/cli.c.obj
                0x000000000001202d                ledCLIDict_DescEntry
 .rodata.periodicCLIDict_DescEntry
                0x00000000000120c3       0x37 CMakeFiles/kiibohd.dir/Debug/cli/cli.c.obj
                0x00000000000120c3                periodicCLIDict_DescEntry
 .rodata.printLatency.str1.1
                0x00000000000120fa      0xc60 CMakeFiles/kiibohd.dir/Debug/cli/cli.c.obj
                                          0x2 (size before relaxing)
 .rodata.prompt.str1.1
                0x00000000000120fa       0x14 CMakeFiles/kiibohd.dir/Debug/cli/cli.c.obj
 .rodata.randCLIDict_DescEntry
                0x000000000001210e       0x34 CMakeFiles/kiibohd.dir/Debug/cli/cli.c.obj
                0x000000000001210e                randCLIDict_DescEntry
 .rodata.reloadCLIDict_DescEntry
                0x0000000000012142       0x2b CMakeFiles/kiibohd.dir/Debug/cli/cli.c.obj
                0x0000000000012142                reloadCLIDict_DescEntry
 .rodata.resetCLIDict_DescEntry
                0x000000000001216d       0x2e CMakeFiles/kiibohd.dir/Debug/cli/cli.c.obj
                0x000000000001216d                resetCLIDict_DescEntry
 .rodata.restartCLIDict_DescEntry
                0x000000000001219b       0x47 CMakeFiles/kiibohd.dir/Debug/cli/cli.c.obj
                0x000000000001219b                restartCLIDict_DescEntry
 .rodata.str1.1
                0x00000000000121e2       0xc9 CMakeFiles/kiibohd.dir/Debug/cli/cli.c.obj
                                         0xd1 (size before relaxing)
 .rodata.tickCLIDict_DescEntry
                0x00000000000122ab       0x4a CMakeFiles/kiibohd.dir/Debug/cli/cli.c.obj
                0x00000000000122ab                tickCLIDict_DescEntry
 .rodata.versionCLIDict_DescEntry
                0x00000000000122f5       0x29 CMakeFiles/kiibohd.dir/Debug/cli/cli.c.obj
                0x00000000000122f5                versionCLIDict_DescEntry
 .rodata.Latency_add_resource.str1.1
                0x000000000001231e       0x3e CMakeFiles/kiibohd.dir/Debug/latency/latency.c.obj
                0x0000000000012d5c                . = ALIGN (0x4)
 *(.init)

.glue_7         0x000000000001235c        0x0
 .glue_7        0x000000000001235c        0x0 linker stubs

.glue_7t        0x000000000001235c        0x0
 .glue_7t       0x000000000001235c        0x0 linker stubs

.vfp11_veneer   0x000000000001235c        0x0
 .vfp11_veneer  0x000000000001235c        0x0 linker stubs

.v4_bx          0x000000000001235c        0x0
 .v4_bx         0x000000000001235c        0x0 linker stubs

.iplt           0x000000000001235c        0x0
 .iplt          0x000000000001235c        0x0 CMakeFiles/kiibohd.dir/main.c.obj

.rel.dyn        0x000000000001235c        0x0
 .rel.iplt      0x000000000001235c        0x0 CMakeFiles/kiibohd.dir/main.c.obj

.ARM.exidx      0x000000000001235c        0x0
                0x000000000001235c                __exidx_start = .
 *(.ARM.exidx* .gnu.linkonce.armexidx.*)
                0x000000000001235c                __exidx_end = .
                0x000000000001235c                _etext = .

.usbdescriptortable
                0x000000001fff8000      0x160
                0x000000001fff8000                . = ALIGN (0x200)
 *(.usbdescriptortable*)
 .usbdescriptortable
                0x000000001fff8000      0x160 CMakeFiles/kiibohd.dir/Output/USB/arm/usb_dev.c.obj

.dmabuffers     0x000000001fff8160        0x0
                0x000000001fff8160                . = ALIGN (0x4)
 *(.dmabuffers*)

.usbbuffers     0x000000001fff8160      0x870
                0x000000001fff8160                . = ALIGN (0x4)
 *(.usbbuffers*)
 .usbbuffers    0x000000001fff8160      0x870 CMakeFiles/kiibohd.dir/Output/USB/arm/usb_mem.c.obj
                0x000000001fff8160                usb_buffer_memory

.data           0x000000001fff89d0      0x750 load address 0x000000000001235c
                0x000000001fff89d0                . = ALIGN (0x4)
                0x000000001fff89d0                _sdata = .
 *(.data*)
 .data.Time_ticksPer_ns_str
                0x000000001fff89d0        0x4 CMakeFiles/kiibohd.dir/Lib/time.c.obj
                0x000000001fff89d0                Time_ticksPer_ns_str
 .data.i2c_offset
                0x000000001fff89d4        0x8 CMakeFiles/kiibohd.dir/Scan/Devices/ISSILed/i2c.c.obj
                0x000000001fff89d4                i2c_offset
 .data.Matrix_cols
                0x000000001fff89dc       0x12 CMakeFiles/kiibohd.dir/Scan/Devices/MatrixARMPeriodic/matrix_scan.c.obj
                0x000000001fff89dc                Matrix_cols
 .data.Matrix_rows
                0x000000001fff89ee        0xa CMakeFiles/kiibohd.dir/Scan/Devices/MatrixARMPeriodic/matrix_scan.c.obj
                0x000000001fff89ee                Matrix_rows
 .data.Matrix_type
                0x000000001fff89f8        0x1 CMakeFiles/kiibohd.dir/Scan/Devices/MatrixARMPeriodic/matrix_scan.c.obj
                0x000000001fff89f8                Matrix_type
 *fill*         0x000000001fff89f9        0x1 
 .data.Connect_baud
                0x000000001fff89fa        0x2 CMakeFiles/kiibohd.dir/Scan/Devices/UARTConnect/connect_scan.c.obj
                0x000000001fff89fa                Connect_baud
 .data.Connect_id
                0x000000001fff89fc        0x1 CMakeFiles/kiibohd.dir/Scan/Devices/UARTConnect/connect_scan.c.obj
                0x000000001fff89fc                Connect_id
 *fill*         0x000000001fff89fd        0x3 
 .data.Connect_receiveFunctions
                0x000000001fff8a00       0x1c CMakeFiles/kiibohd.dir/Scan/Devices/UARTConnect/connect_scan.c.obj
                0x000000001fff8a00                Connect_receiveFunctions
 .data.default_scanMap
                0x000000001fff8a1c      0x16c CMakeFiles/kiibohd.dir/Macro/PartialMap/macro.c.obj
                0x000000001fff8a1c                default_scanMap
 .data.layer1_scanMap
                0x000000001fff8b88      0x124 CMakeFiles/kiibohd.dir/Macro/PartialMap/macro.c.obj
                0x000000001fff8b88                layer1_scanMap
 .data.Pixel_Buffers
                0x000000001fff8cac        0x8 CMakeFiles/kiibohd.dir/generatedPixelmap.c.obj
                0x000000001fff8cac                Pixel_Buffers
 .data.USBKeys_Protocol
                0x000000001fff8cb4        0x1 CMakeFiles/kiibohd.dir/Output/USB/output_usb.c.obj
                0x000000001fff8cb4                USBKeys_Protocol
 .data.USBKeys_Protocol_New
                0x000000001fff8cb5        0x1 CMakeFiles/kiibohd.dir/Output/USB/output_usb.c.obj
                0x000000001fff8cb5                USBKeys_Protocol_New
 .data.config_descriptor
                0x000000001fff8cb6       0xcf CMakeFiles/kiibohd.dir/Output/USB/arm/usb_desc.c.obj
 .data.device_descriptor
                0x000000001fff8d85       0x12 CMakeFiles/kiibohd.dir/Output/USB/arm/usb_desc.c.obj
 .data.keyboard_report_desc
                0x000000001fff8d97       0x3f CMakeFiles/kiibohd.dir/Output/USB/arm/usb_desc.c.obj
 .data.mouse_report_desc
                0x000000001fff8dd6       0x33 CMakeFiles/kiibohd.dir/Output/USB/arm/usb_desc.c.obj
 .data.nkro_keyboard_report_desc
                0x000000001fff8e09       0x7d CMakeFiles/kiibohd.dir/Output/USB/arm/usb_desc.c.obj
 .data.rawio_report_desc
                0x000000001fff8e86       0x1b CMakeFiles/kiibohd.dir/Output/USB/arm/usb_desc.c.obj
 *fill*         0x000000001fff8ea1        0x1 
 .data.string0  0x000000001fff8ea2        0x4 CMakeFiles/kiibohd.dir/Output/USB/arm/usb_desc.c.obj
                0x000000001fff8ea2                string0
 .data.sys_ctrl_report_desc
                0x000000001fff8ea6       0x35 CMakeFiles/kiibohd.dir/Output/USB/arm/usb_desc.c.obj
 *fill*         0x000000001fff8edb        0x1 
 .data.usb_bMaxPower
                0x000000001fff8edc        0x4 CMakeFiles/kiibohd.dir/Output/USB/arm/usb_desc.c.obj
                0x000000001fff8edc                usb_bMaxPower
 .data.usb_string_cdc_data_name
                0x000000001fff8ee0       0x38 CMakeFiles/kiibohd.dir/Output/USB/arm/usb_desc.c.obj
                0x000000001fff8ee0                usb_string_cdc_data_name
 .data.usb_string_cdc_status_name
                0x000000001fff8f18       0x3c CMakeFiles/kiibohd.dir/Output/USB/arm/usb_desc.c.obj
                0x000000001fff8f18                usb_string_cdc_status_name
 .data.usb_string_flashingstation_name
                0x000000001fff8f54        0xc CMakeFiles/kiibohd.dir/Output/USB/arm/usb_desc.c.obj
                0x000000001fff8f54                usb_string_flashingstation_name
 .data.usb_string_keyboard_name
                0x000000001fff8f60       0x1e CMakeFiles/kiibohd.dir/Output/USB/arm/usb_desc.c.obj
                0x000000001fff8f60                usb_string_keyboard_name
 .data.usb_string_manufacturer_name_default
                0x000000001fff8f7e       0x18 CMakeFiles/kiibohd.dir/Output/USB/arm/usb_desc.c.obj
                0x000000001fff8f7e                usb_string_manufacturer_name_default
                0x000000001fff8f7e                usb_string_manufacturer_name
 .data.usb_string_mouse_name
                0x000000001fff8f96        0xe CMakeFiles/kiibohd.dir/Output/USB/arm/usb_desc.c.obj
                0x000000001fff8f96                usb_string_mouse_name
 .data.usb_string_nkro_keyboard_name
                0x000000001fff8fa4       0x1e CMakeFiles/kiibohd.dir/Output/USB/arm/usb_desc.c.obj
                0x000000001fff8fa4                usb_string_nkro_keyboard_name
 .data.usb_string_product_name_default
                0x000000001fff8fc2       0x54 CMakeFiles/kiibohd.dir/Output/USB/arm/usb_desc.c.obj
                0x000000001fff8fc2                usb_string_product_name
                0x000000001fff8fc2                usb_string_product_name_default
 .data.usb_string_rawio_name
                0x000000001fff9016       0x2a CMakeFiles/kiibohd.dir/Output/USB/arm/usb_desc.c.obj
                0x000000001fff9016                usb_string_rawio_name
 .data.usb_string_serial_number_default
                0x000000001fff9040       0x5c CMakeFiles/kiibohd.dir/Output/USB/arm/usb_desc.c.obj
                0x000000001fff9040                usb_string_serial_number_default
                0x000000001fff9040                usb_string_serial_number
 .data.usb_string_sys_ctrl_name
                0x000000001fff909c       0x18 CMakeFiles/kiibohd.dir/Output/USB/arm/usb_desc.c.obj
                0x000000001fff909c                usb_string_sys_ctrl_name
 .data.usb_buffer_available
                0x000000001fff90b4        0x4 CMakeFiles/kiibohd.dir/Output/USB/arm/usb_mem.c.obj
 .data.usb_cdc_line_coding
                0x000000001fff90b8        0x8 CMakeFiles/kiibohd.dir/Output/USB/arm/usb_serial.c.obj
                0x000000001fff90b8                usb_cdc_line_coding
 .data.ChipVersion_familyid
                0x000000001fff90c0       0x20 CMakeFiles/kiibohd.dir/Debug/cli/cli.c.obj
                0x000000001fff90c0                ChipVersion_familyid
 .data.ChipVersion_pincount
                0x000000001fff90e0       0x40 CMakeFiles/kiibohd.dir/Debug/cli/cli.c.obj
                0x000000001fff90e0                ChipVersion_pincount
                0x000000001fff9120                . = ALIGN (0x4)
                0x000000001fff9120                _edata = .

.igot.plt       0x000000001fff9120        0x0 load address 0x0000000000012aac
 .igot.plt      0x000000001fff9120        0x0 CMakeFiles/kiibohd.dir/main.c.obj

.noinit
 *(.noinit*)

.bss            0x000000001fff9120     0x1cd8 load address 0x0000000000012aac
                0x000000001fff9120                . = ALIGN (0x4)
                0x000000001fff9120                _sbss = .
 *(.bss*)
 .bss.stage_tracker
                0x000000001fff9120        0x1 CMakeFiles/kiibohd.dir/main.c.obj
 *fill*         0x000000001fff9121        0x3 
 .bss.systick_millis_count
                0x000000001fff9124        0x4 CMakeFiles/kiibohd.dir/Lib/delay.c.obj
                0x000000001fff9124                systick_millis_count
 .bss.periodic_func
                0x000000001fff9128        0x4 CMakeFiles/kiibohd.dir/Lib/periodic.c.obj
 .bss.LED_currentEvent
                0x000000001fff912c        0x4 CMakeFiles/kiibohd.dir/Scan/Devices/ISSILed/led_scan.c.obj
                0x000000001fff912c                LED_currentEvent
 .bss.ledLatencyResource
                0x000000001fff9130        0x1 CMakeFiles/kiibohd.dir/Scan/Devices/ISSILed/led_scan.c.obj
 *fill*         0x000000001fff9131        0x3 
 .bss.Matrix_scanArray
                0x000000001fff9134      0x168 CMakeFiles/kiibohd.dir/Scan/Devices/MatrixARMPeriodic/matrix_scan.c.obj
 .bss.debounceExpiryTime
                0x000000001fff929c        0x1 CMakeFiles/kiibohd.dir/Scan/Devices/MatrixARMPeriodic/matrix_scan.c.obj
 .bss.matrixCurrentStrobe
                0x000000001fff929d        0x1 CMakeFiles/kiibohd.dir/Scan/Devices/MatrixARMPeriodic/matrix_scan.c.obj
 .bss.matrixDebugMode
                0x000000001fff929e        0x1 CMakeFiles/kiibohd.dir/Scan/Devices/MatrixARMPeriodic/matrix_scan.c.obj
 *fill*         0x000000001fff929f        0x1 
 .bss.matrixDebugStateCounter
                0x000000001fff92a0        0x2 CMakeFiles/kiibohd.dir/Scan/Devices/MatrixARMPeriodic/matrix_scan.c.obj
 .bss.matrixLatencyResource
                0x000000001fff92a2        0x1 CMakeFiles/kiibohd.dir/Scan/Devices/MatrixARMPeriodic/matrix_scan.c.obj
 .bss.strobeDelayTime
                0x000000001fff92a3        0x1 CMakeFiles/kiibohd.dir/Scan/Devices/MatrixARMPeriodic/matrix_scan.c.obj
 .bss.LCD_layerStack_prevSize
                0x000000001fff92a4        0x2 CMakeFiles/kiibohd.dir/Scan/Devices/STLcd/lcd_scan.c.obj
                0x000000001fff92a4                LCD_layerStack_prevSize
 .bss.LCD_layerStack_prevTop
                0x000000001fff92a6        0x2 CMakeFiles/kiibohd.dir/Scan/Devices/STLcd/lcd_scan.c.obj
                0x000000001fff92a6                LCD_layerStack_prevTop
 .bss.hold_color.4763
                0x000000001fff92a8        0x6 CMakeFiles/kiibohd.dir/Scan/Devices/STLcd/lcd_scan.c.obj
 .bss.stlcdLatencyResource
                0x000000001fff92ae        0x1 CMakeFiles/kiibohd.dir/Scan/Devices/STLcd/lcd_scan.c.obj
 .bss.was_capslock.4764
                0x000000001fff92af        0x1 CMakeFiles/kiibohd.dir/Scan/Devices/STLcd/lcd_scan.c.obj
 .bss.Connect_baudFine
                0x000000001fff92b0        0x2 CMakeFiles/kiibohd.dir/Scan/Devices/UARTConnect/connect_scan.c.obj
                0x000000001fff92b0                Connect_baudFine
 *fill*         0x000000001fff92b2        0x2 
 .bss.Connect_cableChecksMaster
                0x000000001fff92b4        0x4 CMakeFiles/kiibohd.dir/Scan/Devices/UARTConnect/connect_scan.c.obj
                0x000000001fff92b4                Connect_cableChecksMaster
 .bss.Connect_cableChecksSlave
                0x000000001fff92b8        0x4 CMakeFiles/kiibohd.dir/Scan/Devices/UARTConnect/connect_scan.c.obj
                0x000000001fff92b8                Connect_cableChecksSlave
 .bss.Connect_cableFaultsMaster
                0x000000001fff92bc        0x4 CMakeFiles/kiibohd.dir/Scan/Devices/UARTConnect/connect_scan.c.obj
                0x000000001fff92bc                Connect_cableFaultsMaster
 .bss.Connect_cableFaultsSlave
                0x000000001fff92c0        0x4 CMakeFiles/kiibohd.dir/Scan/Devices/UARTConnect/connect_scan.c.obj
                0x000000001fff92c0                Connect_cableFaultsSlave
 .bss.Connect_cableOkMaster
                0x000000001fff92c4        0x1 CMakeFiles/kiibohd.dir/Scan/Devices/UARTConnect/connect_scan.c.obj
                0x000000001fff92c4                Connect_cableOkMaster
 .bss.Connect_cableOkSlave
                0x000000001fff92c5        0x1 CMakeFiles/kiibohd.dir/Scan/Devices/UARTConnect/connect_scan.c.obj
                0x000000001fff92c5                Connect_cableOkSlave
 .bss.Connect_debug
                0x000000001fff92c6        0x1 CMakeFiles/kiibohd.dir/Scan/Devices/UARTConnect/connect_scan.c.obj
                0x000000001fff92c6                Connect_debug
 *fill*         0x000000001fff92c7        0x1 
 .bss.Connect_lastCheck
                0x000000001fff92c8        0x4 CMakeFiles/kiibohd.dir/Scan/Devices/UARTConnect/connect_scan.c.obj
                0x000000001fff92c8                Connect_lastCheck
 .bss.Connect_master
                0x000000001fff92cc        0x1 CMakeFiles/kiibohd.dir/Scan/Devices/UARTConnect/connect_scan.c.obj
                0x000000001fff92cc                Connect_master
 .bss.Connect_maxId
                0x000000001fff92cd        0x1 CMakeFiles/kiibohd.dir/Scan/Devices/UARTConnect/connect_scan.c.obj
                0x000000001fff92cd                Connect_maxId
 .bss.Connect_override
                0x000000001fff92ce        0x1 CMakeFiles/kiibohd.dir/Scan/Devices/UARTConnect/connect_scan.c.obj
                0x000000001fff92ce                Connect_override
 .bss.connectLatencyResource
                0x000000001fff92cf        0x1 CMakeFiles/kiibohd.dir/Scan/Devices/UARTConnect/connect_scan.c.obj
 .bss.uarts_configured
                0x000000001fff92d0        0x1 CMakeFiles/kiibohd.dir/Scan/Devices/UARTConnect/connect_scan.c.obj
                0x000000001fff92d0                uarts_configured
 .bss.macroInterconnectCacheSize
                0x000000001fff92d1        0x1 CMakeFiles/kiibohd.dir/Macro/PartialMap/macro.c.obj
                0x000000001fff92d1                macroInterconnectCacheSize
 .bss.macroLatencyResource
                0x000000001fff92d2        0x1 CMakeFiles/kiibohd.dir/Macro/PartialMap/macro.c.obj
 *fill*         0x000000001fff92d3        0x1 
 .bss.macroLayerIndexStack
                0x000000001fff92d4        0x6 CMakeFiles/kiibohd.dir/Macro/PartialMap/macro.c.obj
                0x000000001fff92d4                macroLayerIndexStack
 .bss.macroLayerIndexStackSize
                0x000000001fff92da        0x2 CMakeFiles/kiibohd.dir/Macro/PartialMap/macro.c.obj
                0x000000001fff92da                macroLayerIndexStackSize
 .bss.macroTriggerMacroPendingList
                0x000000001fff92dc       0xce CMakeFiles/kiibohd.dir/Macro/PartialMap/trigger.c.obj
                0x000000001fff92dc                macroTriggerMacroPendingList
 .bss.macroTriggerMacroPendingListSize
                0x000000001fff93aa        0x2 CMakeFiles/kiibohd.dir/Macro/PartialMap/trigger.c.obj
                0x000000001fff93aa                macroTriggerMacroPendingListSize
 .bss.Pixel_testPos
                0x000000001fff93ac        0x2 CMakeFiles/kiibohd.dir/Macro/PixelMap/pixel.c.obj
                0x000000001fff93ac                Pixel_testPos
 .bss.pixelLatencyResource
                0x000000001fff93ae        0x1 CMakeFiles/kiibohd.dir/Macro/PixelMap/pixel.c.obj
 *fill*         0x000000001fff93af        0x1 
 .bss.Pixel_Animations
                0x000000001fff93b0        0x0 CMakeFiles/kiibohd.dir/generatedPixelmap.c.obj
                0x000000001fff93b0                Pixel_Animations
 .bss.hidioLatencyResource
                0x000000001fff93b0        0x1 CMakeFiles/kiibohd.dir/Output/HID-IO/hidio_com.c.obj
 .bss.USBKeys_Idle_Config
                0x000000001fff93b1        0x1 CMakeFiles/kiibohd.dir/Output/USB/output_usb.c.obj
                0x000000001fff93b1                USBKeys_Idle_Config
 *fill*         0x000000001fff93b2        0x2 
 .bss.USBKeys_Idle_Expiry
                0x000000001fff93b4        0x4 CMakeFiles/kiibohd.dir/Output/USB/output_usb.c.obj
                0x000000001fff93b4                USBKeys_Idle_Expiry
 .bss.USBKeys_LEDs
                0x000000001fff93b8        0x1 CMakeFiles/kiibohd.dir/Output/USB/output_usb.c.obj
                0x000000001fff93b8                USBKeys_LEDs
 *fill*         0x000000001fff93b9        0x1 
 .bss.USBMouse_Buttons
                0x000000001fff93ba        0x2 CMakeFiles/kiibohd.dir/Output/USB/output_usb.c.obj
                0x000000001fff93ba                USBMouse_Buttons
 .bss.USBMouse_Changed
                0x000000001fff93bc        0x1 CMakeFiles/kiibohd.dir/Output/USB/output_usb.c.obj
                0x000000001fff93bc                USBMouse_Changed
 *fill*         0x000000001fff93bd        0x1 
 .bss.USBMouse_Relative_x
                0x000000001fff93be        0x2 CMakeFiles/kiibohd.dir/Output/USB/output_usb.c.obj
                0x000000001fff93be                USBMouse_Relative_x
 .bss.USBMouse_Relative_y
                0x000000001fff93c0        0x2 CMakeFiles/kiibohd.dir/Output/USB/output_usb.c.obj
                0x000000001fff93c0                USBMouse_Relative_y
 .bss.outputPeriodicLatencyResource
                0x000000001fff93c2        0x1 CMakeFiles/kiibohd.dir/Output/USB/output_usb.c.obj
 .bss.outputPollLatencyResource
                0x000000001fff93c3        0x1 CMakeFiles/kiibohd.dir/Output/USB/output_usb.c.obj
 .bss.device_qualifier_descriptor
                0x000000001fff93c4        0x1 CMakeFiles/kiibohd.dir/Output/USB/arm/usb_desc.c.obj
 .bss.usb_debug_descriptor
                0x000000001fff93c5        0x1 CMakeFiles/kiibohd.dir/Output/USB/arm/usb_desc.c.obj
 *fill*         0x000000001fff93c6        0x2 
 .bss.ep0_rx0_buf
                0x000000001fff93c8       0x40 CMakeFiles/kiibohd.dir/Output/USB/arm/usb_dev.c.obj
 .bss.ep0_rx1_buf
                0x000000001fff9408       0x40 CMakeFiles/kiibohd.dir/Output/USB/arm/usb_dev.c.obj
 .bss.ep0_tx_bdt_bank
                0x000000001fff9448        0x1 CMakeFiles/kiibohd.dir/Output/USB/arm/usb_dev.c.obj
 .bss.ep0_tx_data_toggle
                0x000000001fff9449        0x1 CMakeFiles/kiibohd.dir/Output/USB/arm/usb_dev.c.obj
 .bss.ep0_tx_len
                0x000000001fff944a        0x2 CMakeFiles/kiibohd.dir/Output/USB/arm/usb_dev.c.obj
 .bss.ep0_tx_ptr
                0x000000001fff944c        0x4 CMakeFiles/kiibohd.dir/Output/USB/arm/usb_dev.c.obj
 .bss.power_neg_delay
                0x000000001fff9450        0x1 CMakeFiles/kiibohd.dir/Output/USB/arm/usb_dev.c.obj
 *fill*         0x000000001fff9451        0x3 
 .bss.power_neg_time
                0x000000001fff9454        0x4 CMakeFiles/kiibohd.dir/Output/USB/arm/usb_dev.c.obj
 .bss.reply_buffer
                0x000000001fff9458        0x8 CMakeFiles/kiibohd.dir/Output/USB/arm/usb_dev.c.obj
 .bss.rx_first  0x000000001fff9460       0x28 CMakeFiles/kiibohd.dir/Output/USB/arm/usb_dev.c.obj
 .bss.rx_last   0x000000001fff9488       0x28 CMakeFiles/kiibohd.dir/Output/USB/arm/usb_dev.c.obj
 .bss.setup     0x000000001fff94b0        0x8 CMakeFiles/kiibohd.dir/Output/USB/arm/usb_dev.c.obj
 .bss.tx_first  0x000000001fff94b8       0x28 CMakeFiles/kiibohd.dir/Output/USB/arm/usb_dev.c.obj
 .bss.tx_last   0x000000001fff94e0       0x28 CMakeFiles/kiibohd.dir/Output/USB/arm/usb_dev.c.obj
 .bss.tx_state  0x000000001fff9508        0xa CMakeFiles/kiibohd.dir/Output/USB/arm/usb_dev.c.obj
 .bss.usb_configuration
                0x000000001fff9512        0x1 CMakeFiles/kiibohd.dir/Output/USB/arm/usb_dev.c.obj
                0x000000001fff9512                usb_configuration
 .bss.usb_dev_sleep
                0x000000001fff9513        0x1 CMakeFiles/kiibohd.dir/Output/USB/arm/usb_dev.c.obj
 .bss.usb_reboot_timer
                0x000000001fff9514        0x1 CMakeFiles/kiibohd.dir/Output/USB/arm/usb_dev.c.obj
                0x000000001fff9514                usb_reboot_timer
 .bss.usb_rx_memory_needed
                0x000000001fff9515        0x1 CMakeFiles/kiibohd.dir/Output/USB/arm/usb_dev.c.obj
                0x000000001fff9515                usb_rx_memory_needed
 .bss.transmit_previous_timeout
                0x000000001fff9516        0x1 CMakeFiles/kiibohd.dir/Output/USB/arm/usb_keyboard.c.obj
 .bss.transmit_previous_timeout
                0x000000001fff9517        0x1 CMakeFiles/kiibohd.dir/Output/USB/arm/usb_mouse.c.obj
 .bss.rx_packet
                0x000000001fff9518        0x4 CMakeFiles/kiibohd.dir/Output/USB/arm/usb_serial.c.obj
 .bss.transmit_previous_timeout
                0x000000001fff951c        0x1 CMakeFiles/kiibohd.dir/Output/USB/arm/usb_serial.c.obj
 .bss.tx_noautoflush
                0x000000001fff951d        0x1 CMakeFiles/kiibohd.dir/Output/USB/arm/usb_serial.c.obj
 *fill*         0x000000001fff951e        0x2 
 .bss.tx_packet
                0x000000001fff9520        0x4 CMakeFiles/kiibohd.dir/Output/USB/arm/usb_serial.c.obj
 .bss.usb_cdc_line_rtsdtr
                0x000000001fff9524        0x1 CMakeFiles/kiibohd.dir/Output/USB/arm/usb_serial.c.obj
                0x000000001fff9524                usb_cdc_line_rtsdtr
 .bss.usb_cdc_transmit_flush_timer
                0x000000001fff9525        0x1 CMakeFiles/kiibohd.dir/Output/USB/arm/usb_serial.c.obj
                0x000000001fff9525                usb_cdc_transmit_flush_timer
 *fill*         0x000000001fff9526        0x2 
 .bss.latency_measurements
                0x000000001fff9528      0x120 CMakeFiles/kiibohd.dir/Debug/latency/latency.c.obj
 .bss.latency_resources
                0x000000001fff9648        0x1 CMakeFiles/kiibohd.dir/Debug/latency/latency.c.obj
 *(COMMON)
 *fill*         0x000000001fff9649        0x3 
 COMMON         0x000000001fff964c      0x4a9 CMakeFiles/kiibohd.dir/main.c.obj
                0x000000001fff964c                CLIHexDebugMode
                0x000000001fff964d                CLIHistoryCurrent
                0x000000001fff964e                CLILEDState
                0x000000001fff964f                CLIDictionariesUsed
                0x000000001fff9650                CLIHistoryBuffer
                0x000000001fff9a38                CLILineBuffer
                0x000000001fff9a9d                CLIHistoryHead
                0x000000001fff9aa0                CLIDict
                0x000000001fff9ac8                CLIHistoryTail
                0x000000001fff9acc                CLIDictNames
                0x000000001fff9af4                CLILineBufferCurrent
 *fill*         0x000000001fff9af5        0x3 
 COMMON         0x000000001fff9af8       0x45 CMakeFiles/kiibohd.dir/Lib/entropy.c.obj
                0x000000001fff9af8                gWDT_entropy_pool
                0x000000001fff9b18                gWDT_buffer_position
                0x000000001fff9b19                gWDT_buffer
                0x000000001fff9b39                gWDT_pool_count
                0x000000001fff9b3a                gWDT_pool_start
                0x000000001fff9b3b                gWDT_pool_end
                0x000000001fff9b3c                gWDT_loop_counter
 *fill*         0x000000001fff9b3d        0x3 
 COMMON         0x000000001fff9b40       0x18 CMakeFiles/kiibohd.dir/Scan/Devices/ISSILed/i2c.c.obj
                0x000000001fff9b40                i2c_channels
 COMMON         0x000000001fff9b58      0x139 CMakeFiles/kiibohd.dir/Scan/Devices/ISSILed/led_scan.c.obj
                0x000000001fff9b58                LED_framerate
                0x000000001fff9b5c                LED_chipSend
                0x000000001fff9b5d                LED_pause
                0x000000001fff9b5e                LED_displayFPS
                0x000000001fff9b60                LED_pageBuffer_brightness
                0x000000001fff9c84                LED_brightness
                0x000000001fff9c88                LED_timePrev
                0x000000001fff9c90                LED_enable
 *fill*         0x000000001fff9c91        0x1 
 COMMON         0x000000001fff9c92      0x23a CMakeFiles/kiibohd.dir/Scan/Devices/UARTConnect/connect_scan.c.obj
                0x000000001fff9c92                uart_tx_buf
                0x000000001fff9d98                Connect_receive_RemoteCapabilityBuffer
                0x000000001fff9d9e                uart_tx_status
                0x000000001fff9da2                Connect_receive_RemoteCapabilityArgs
                0x000000001fff9dbb                Connect_receive_ScanCodeDeviceId
                0x000000001fff9dbc                uart_rx_status
                0x000000001fff9dc4                uart_rx_buf
                0x000000001fff9ec8                Connect_receive_ScanCodeBuffer
                0x000000001fff9ecb                Connect_receive_ScanCodeBufferPos
 COMMON         0x000000001fff9ecc      0x478 CMakeFiles/kiibohd.dir/Macro/PartialMap/macro.c.obj
                0x000000001fff9ecc                macroPauseMode
                0x000000001fff9ecd                macroTriggerEventBufferSize
                0x000000001fff9ece                Macro_rotationLayer
                0x000000001fff9ed0                voteDebugMode
                0x000000001fff9ed1                ResultMacroRecordList
                0x000000001fff9ffa                LayerState
                0x000000001fff9ffc                macroTriggerEventBuffer
                0x000000001fffa10a                macroStepCounter
                0x000000001fffa10c                layerDebugMode
                0x000000001fffa10d                macroTriggerEventLayerCache
                0x000000001fffa167                macroDebugMode
                0x000000001fffa168                macroInterconnectCache
                0x000000001fffa276                TriggerMacroRecordList
 COMMON         0x000000001fffa344      0x398 CMakeFiles/kiibohd.dir/Macro/PartialMap/result.c.obj
                0x000000001fffa344                macroResultDelayedCapabilities
                0x000000001fffa3c0                macroResultMacroPendingList
 COMMON         0x000000001fffa6dc      0x199 CMakeFiles/kiibohd.dir/Macro/PixelMap/pixel.c.obj
                0x000000001fffa6dc                Pixel_AnimationStack
                0x000000001fffa730                Pixel_animationControl
                0x000000001fffa731                Pixel_FrameState
                0x000000001fffa734                Pixel_AnimationElement_Stor
                0x000000001fffa874                Pixel_testMode
 *fill*         0x000000001fffa875        0x1 
 COMMON         0x000000001fffa876      0x124 CMakeFiles/kiibohd.dir/generatedPixelmap.c.obj
                0x000000001fffa876                LED_pageBuffer
 *fill*         0x000000001fffa99a        0x2 
 COMMON         0x000000001fffa99c      0x3e6 CMakeFiles/kiibohd.dir/Output/HID-IO/hidio_com.c.obj
                0x000000001fffa99c                HIDIO_ack_buf_data
                0x000000001fffa9ec                HIDIO_Id_List_Size
                0x000000001fffa9f0                HIDIO_Packet_Size
                0x000000001fffa9f2                HIDIO_assembly_buf_data
                0x000000001fffaac4                HIDIO_ack_buf
                0x000000001fffaac8                HIDIO_ack_send_data
                0x000000001fffab98                HIDIO_ack_send_buf
                0x000000001fffaba8                HIDIO_Id_List
                0x000000001fffac98                HIDIO_assembly_buf
                0x000000001fffaca8                HIDIO_tx_buf
                0x000000001fffacb8                HIDIO_tx_buf_data
 COMMON         0x000000001fffad82        0x8 CMakeFiles/kiibohd.dir/Output/Interface/output_gen.c.obj
                0x000000001fffad82                Output_DebugMode
                0x000000001fffad84                Output_ExtCurrent_Available
                0x000000001fffad86                Output_Available
                0x000000001fffad88                Output_USBCurrent_Available
 *fill*         0x000000001fffad8a        0x2 
 COMMON         0x000000001fffad8c       0x58 CMakeFiles/kiibohd.dir/Output/USB/output_usb.c.obj
                0x000000001fffad8c                USBKeys_LEDs_Changed
                0x000000001fffad90                USBInit_TimeEnd
                0x000000001fffad94                USBInit_Ticks
                0x000000001fffad96                USBKeys_idle
                0x000000001fffadb8                USBKeys_Sent
                0x000000001fffadba                USBKeys_primary
                0x000000001fffaddc                USBKeys_Protocol_Change
                0x000000001fffade0                USBInit_TimeStart
 COMMON         0x000000001fffade4       0x14 CMakeFiles/kiibohd.dir/Output/USB/arm/usb_dev.c.obj
                0x000000001fffade4                usb_rx_byte_count_data
                0x000000001fffadf8                . = ALIGN (0x4)
                0x000000001fffadf8                _ebss = .
                0x000000001fffadf8                __bss_end = .
                0x0000000020008000                _estack = (ORIGIN (RAM) + LENGTH (RAM))
OUTPUT(kiibohd.elf elf32-littlearm)

.debug_info     0x0000000000000000    0x21819
 .debug_info    0x0000000000000000      0x5f4 CMakeFiles/kiibohd.dir/main.c.obj
 .debug_info    0x00000000000005f4      0x8fc CMakeFiles/kiibohd.dir/Lib/kinetis.c.obj
 .debug_info    0x0000000000000ef0      0x260 CMakeFiles/kiibohd.dir/Lib/delay.c.obj
 .debug_info    0x0000000000001150      0x4b2 CMakeFiles/kiibohd.dir/Lib/entropy.c.obj
 .debug_info    0x0000000000001602      0x317 CMakeFiles/kiibohd.dir/Lib/periodic.c.obj
 .debug_info    0x0000000000001919      0xa26 CMakeFiles/kiibohd.dir/Lib/time.c.obj
 .debug_info    0x000000000000233f      0x982 CMakeFiles/kiibohd.dir/Scan/Devices/ISSILed/i2c.c.obj
 .debug_info    0x0000000000002cc1     0x1d58 CMakeFiles/kiibohd.dir/Scan/Devices/ISSILed/led_scan.c.obj
 .debug_info    0x0000000000004a19     0x1309 CMakeFiles/kiibohd.dir/Scan/Devices/MatrixARMPeriodic/matrix_scan.c.obj
 .debug_info    0x0000000000005d22     0x164a CMakeFiles/kiibohd.dir/Scan/Devices/STLcd/lcd_scan.c.obj
 .debug_info    0x000000000000736c     0x2ac7 CMakeFiles/kiibohd.dir/Scan/Devices/UARTConnect/connect_scan.c.obj
 .debug_info    0x0000000000009e33      0x9fd CMakeFiles/kiibohd.dir/Scan/Infinity_Ergodox/scan_loop.c.obj
 .debug_info    0x000000000000a830     0x51c7 CMakeFiles/kiibohd.dir/Macro/PartialMap/macro.c.obj
 .debug_info    0x000000000000f9f7      0x864 CMakeFiles/kiibohd.dir/Macro/PartialMap/result.c.obj
 .debug_info    0x000000000001025b      0xcf3 CMakeFiles/kiibohd.dir/Macro/PartialMap/trigger.c.obj
 .debug_info    0x0000000000010f4e     0x30aa CMakeFiles/kiibohd.dir/Macro/PixelMap/pixel.c.obj
 .debug_info    0x0000000000013ff8      0x6ff CMakeFiles/kiibohd.dir/generatedPixelmap.c.obj
 .debug_info    0x00000000000146f7     0x2090 CMakeFiles/kiibohd.dir/Output/HID-IO/hidio_com.c.obj
 .debug_info    0x0000000000016787      0x8be CMakeFiles/kiibohd.dir/Output/Interface/output_gen.c.obj
 .debug_info    0x0000000000017045      0x589 CMakeFiles/kiibohd.dir/Output/USB/output_com.c.obj
 .debug_info    0x00000000000175ce     0x141a CMakeFiles/kiibohd.dir/Output/USB/output_usb.c.obj
 .debug_info    0x00000000000189e8      0x5c5 CMakeFiles/kiibohd.dir/Output/USB/arm/usb_desc.c.obj
 .debug_info    0x0000000000018fad     0x11ea CMakeFiles/kiibohd.dir/Output/USB/arm/usb_dev.c.obj
 .debug_info    0x000000000001a197     0x1216 CMakeFiles/kiibohd.dir/Output/USB/arm/usb_keyboard.c.obj
 .debug_info    0x000000000001b3ad      0x506 CMakeFiles/kiibohd.dir/Output/USB/arm/usb_mem.c.obj
 .debug_info    0x000000000001b8b3      0xfeb CMakeFiles/kiibohd.dir/Output/USB/arm/usb_mouse.c.obj
 .debug_info    0x000000000001c89e      0xef8 CMakeFiles/kiibohd.dir/Output/USB/arm/usb_rawio.c.obj
 .debug_info    0x000000000001d796     0x111f CMakeFiles/kiibohd.dir/Output/USB/arm/usb_serial.c.obj
 .debug_info    0x000000000001e8b5     0x1e31 CMakeFiles/kiibohd.dir/Debug/cli/cli.c.obj
 .debug_info    0x00000000000206e6      0x636 CMakeFiles/kiibohd.dir/Debug/latency/latency.c.obj
 .debug_info    0x0000000000020d1c      0x12d CMakeFiles/kiibohd.dir/Debug/led/led.c.obj
 .debug_info    0x0000000000020e49      0x9d0 CMakeFiles/kiibohd.dir/Debug/print/print.c.obj

.debug_abbrev   0x0000000000000000     0x51cc
 .debug_abbrev  0x0000000000000000      0x15f CMakeFiles/kiibohd.dir/main.c.obj
 .debug_abbrev  0x000000000000015f      0x23c CMakeFiles/kiibohd.dir/Lib/kinetis.c.obj
 .debug_abbrev  0x000000000000039b      0x166 CMakeFiles/kiibohd.dir/Lib/delay.c.obj
 .debug_abbrev  0x0000000000000501      0x1e0 CMakeFiles/kiibohd.dir/Lib/entropy.c.obj
 .debug_abbrev  0x00000000000006e1      0x12d CMakeFiles/kiibohd.dir/Lib/periodic.c.obj
 .debug_abbrev  0x000000000000080e      0x2ab CMakeFiles/kiibohd.dir/Lib/time.c.obj
 .debug_abbrev  0x0000000000000ab9      0x2ef CMakeFiles/kiibohd.dir/Scan/Devices/ISSILed/i2c.c.obj
 .debug_abbrev  0x0000000000000da8      0x3c9 CMakeFiles/kiibohd.dir/Scan/Devices/ISSILed/led_scan.c.obj
 .debug_abbrev  0x0000000000001171      0x2ce CMakeFiles/kiibohd.dir/Scan/Devices/MatrixARMPeriodic/matrix_scan.c.obj
 .debug_abbrev  0x000000000000143f      0x346 CMakeFiles/kiibohd.dir/Scan/Devices/STLcd/lcd_scan.c.obj
 .debug_abbrev  0x0000000000001785      0x424 CMakeFiles/kiibohd.dir/Scan/Devices/UARTConnect/connect_scan.c.obj
 .debug_abbrev  0x0000000000001ba9      0x21e CMakeFiles/kiibohd.dir/Scan/Infinity_Ergodox/scan_loop.c.obj
 .debug_abbrev  0x0000000000001dc7      0x450 CMakeFiles/kiibohd.dir/Macro/PartialMap/macro.c.obj
 .debug_abbrev  0x0000000000002217      0x260 CMakeFiles/kiibohd.dir/Macro/PartialMap/result.c.obj
 .debug_abbrev  0x0000000000002477      0x310 CMakeFiles/kiibohd.dir/Macro/PartialMap/trigger.c.obj
 .debug_abbrev  0x0000000000002787      0x418 CMakeFiles/kiibohd.dir/Macro/PixelMap/pixel.c.obj
 .debug_abbrev  0x0000000000002b9f      0x12a CMakeFiles/kiibohd.dir/generatedPixelmap.c.obj
 .debug_abbrev  0x0000000000002cc9      0x42a CMakeFiles/kiibohd.dir/Output/HID-IO/hidio_com.c.obj
 .debug_abbrev  0x00000000000030f3      0x20c CMakeFiles/kiibohd.dir/Output/Interface/output_gen.c.obj
 .debug_abbrev  0x00000000000032ff      0x16f CMakeFiles/kiibohd.dir/Output/USB/output_com.c.obj
 .debug_abbrev  0x000000000000346e      0x348 CMakeFiles/kiibohd.dir/Output/USB/output_usb.c.obj
 .debug_abbrev  0x00000000000037b6      0x128 CMakeFiles/kiibohd.dir/Output/USB/arm/usb_desc.c.obj
 .debug_abbrev  0x00000000000038de      0x40d CMakeFiles/kiibohd.dir/Output/USB/arm/usb_dev.c.obj
 .debug_abbrev  0x0000000000003ceb      0x294 CMakeFiles/kiibohd.dir/Output/USB/arm/usb_keyboard.c.obj
 .debug_abbrev  0x0000000000003f7f      0x1a4 CMakeFiles/kiibohd.dir/Output/USB/arm/usb_mem.c.obj
 .debug_abbrev  0x0000000000004123      0x2b8 CMakeFiles/kiibohd.dir/Output/USB/arm/usb_mouse.c.obj
 .debug_abbrev  0x00000000000043db      0x2a9 CMakeFiles/kiibohd.dir/Output/USB/arm/usb_rawio.c.obj
 .debug_abbrev  0x0000000000004684      0x331 CMakeFiles/kiibohd.dir/Output/USB/arm/usb_serial.c.obj
 .debug_abbrev  0x00000000000049b5      0x37e CMakeFiles/kiibohd.dir/Debug/cli/cli.c.obj
 .debug_abbrev  0x0000000000004d33      0x1a5 CMakeFiles/kiibohd.dir/Debug/latency/latency.c.obj
 .debug_abbrev  0x0000000000004ed8       0xbf CMakeFiles/kiibohd.dir/Debug/led/led.c.obj
 .debug_abbrev  0x0000000000004f97      0x235 CMakeFiles/kiibohd.dir/Debug/print/print.c.obj

.debug_aranges  0x0000000000000000      0xfe8
 .debug_aranges
                0x0000000000000000       0x28 CMakeFiles/kiibohd.dir/main.c.obj
 .debug_aranges
                0x0000000000000028       0x90 CMakeFiles/kiibohd.dir/Lib/kinetis.c.obj
 .debug_aranges
                0x00000000000000b8       0x50 CMakeFiles/kiibohd.dir/Lib/delay.c.obj
 .debug_aranges
                0x0000000000000108       0x40 CMakeFiles/kiibohd.dir/Lib/entropy.c.obj
 .debug_aranges
                0x0000000000000148       0x48 CMakeFiles/kiibohd.dir/Lib/periodic.c.obj
 .debug_aranges
                0x0000000000000190       0xe0 CMakeFiles/kiibohd.dir/Lib/time.c.obj
 .debug_aranges
                0x0000000000000270       0x58 CMakeFiles/kiibohd.dir/Scan/Devices/ISSILed/i2c.c.obj
 .debug_aranges
                0x00000000000002c8       0xb8 CMakeFiles/kiibohd.dir/Scan/Devices/ISSILed/led_scan.c.obj
 .debug_aranges
                0x0000000000000380       0x78 CMakeFiles/kiibohd.dir/Scan/Devices/MatrixARMPeriodic/matrix_scan.c.obj
 .debug_aranges
                0x00000000000003f8       0xa8 CMakeFiles/kiibohd.dir/Scan/Devices/STLcd/lcd_scan.c.obj
 .debug_aranges
                0x00000000000004a0      0x100 CMakeFiles/kiibohd.dir/Scan/Devices/UARTConnect/connect_scan.c.obj
 .debug_aranges
                0x00000000000005a0       0x40 CMakeFiles/kiibohd.dir/Scan/Infinity_Ergodox/scan_loop.c.obj
 .debug_aranges
                0x00000000000005e0      0x158 CMakeFiles/kiibohd.dir/Macro/PartialMap/macro.c.obj
 .debug_aranges
                0x0000000000000738       0x38 CMakeFiles/kiibohd.dir/Macro/PartialMap/result.c.obj
 .debug_aranges
                0x0000000000000770       0x70 CMakeFiles/kiibohd.dir/Macro/PartialMap/trigger.c.obj
 .debug_aranges
                0x00000000000007e0      0x170 CMakeFiles/kiibohd.dir/Macro/PixelMap/pixel.c.obj
 .debug_aranges
                0x0000000000000950       0x18 CMakeFiles/kiibohd.dir/generatedPixelmap.c.obj
 .debug_aranges
                0x0000000000000968      0x100 CMakeFiles/kiibohd.dir/Output/HID-IO/hidio_com.c.obj
 .debug_aranges
                0x0000000000000a68       0x58 CMakeFiles/kiibohd.dir/Output/Interface/output_gen.c.obj
 .debug_aranges
                0x0000000000000ac0       0x78 CMakeFiles/kiibohd.dir/Output/USB/output_com.c.obj
 .debug_aranges
                0x0000000000000b38       0xe0 CMakeFiles/kiibohd.dir/Output/USB/output_usb.c.obj
 .debug_aranges
                0x0000000000000c18       0x20 CMakeFiles/kiibohd.dir/Output/USB/arm/usb_desc.c.obj
 .debug_aranges
                0x0000000000000c38       0x80 CMakeFiles/kiibohd.dir/Output/USB/arm/usb_dev.c.obj
 .debug_aranges
                0x0000000000000cb8       0x30 CMakeFiles/kiibohd.dir/Output/USB/arm/usb_keyboard.c.obj
 .debug_aranges
                0x0000000000000ce8       0x28 CMakeFiles/kiibohd.dir/Output/USB/arm/usb_mem.c.obj
 .debug_aranges
                0x0000000000000d10       0x38 CMakeFiles/kiibohd.dir/Output/USB/arm/usb_mouse.c.obj
 .debug_aranges
                0x0000000000000d48       0x30 CMakeFiles/kiibohd.dir/Output/USB/arm/usb_rawio.c.obj
 .debug_aranges
                0x0000000000000d78       0x60 CMakeFiles/kiibohd.dir/Output/USB/arm/usb_serial.c.obj
 .debug_aranges
                0x0000000000000dd8       0xf0 CMakeFiles/kiibohd.dir/Debug/cli/cli.c.obj
 .debug_aranges
                0x0000000000000ec8       0x50 CMakeFiles/kiibohd.dir/Debug/latency/latency.c.obj
 .debug_aranges
                0x0000000000000f18       0x28 CMakeFiles/kiibohd.dir/Debug/led/led.c.obj
 .debug_aranges
                0x0000000000000f40       0xa8 CMakeFiles/kiibohd.dir/Debug/print/print.c.obj

.debug_ranges   0x0000000000000000     0x20a0
 .debug_ranges  0x0000000000000000       0x18 CMakeFiles/kiibohd.dir/main.c.obj
 .debug_ranges  0x0000000000000018       0x80 CMakeFiles/kiibohd.dir/Lib/kinetis.c.obj
 .debug_ranges  0x0000000000000098       0x58 CMakeFiles/kiibohd.dir/Lib/delay.c.obj
 .debug_ranges  0x00000000000000f0       0x58 CMakeFiles/kiibohd.dir/Lib/entropy.c.obj
 .debug_ranges  0x0000000000000148       0x38 CMakeFiles/kiibohd.dir/Lib/periodic.c.obj
 .debug_ranges  0x0000000000000180       0xe8 CMakeFiles/kiibohd.dir/Lib/time.c.obj
 .debug_ranges  0x0000000000000268       0x48 CMakeFiles/kiibohd.dir/Scan/Devices/ISSILed/i2c.c.obj
 .debug_ranges  0x00000000000002b0      0x160 CMakeFiles/kiibohd.dir/Scan/Devices/ISSILed/led_scan.c.obj
 .debug_ranges  0x0000000000000410       0xe8 CMakeFiles/kiibohd.dir/Scan/Devices/MatrixARMPeriodic/matrix_scan.c.obj
 .debug_ranges  0x00000000000004f8      0x170 CMakeFiles/kiibohd.dir/Scan/Devices/STLcd/lcd_scan.c.obj
 .debug_ranges  0x0000000000000668      0x2a8 CMakeFiles/kiibohd.dir/Scan/Devices/UARTConnect/connect_scan.c.obj
 .debug_ranges  0x0000000000000910       0x30 CMakeFiles/kiibohd.dir/Scan/Infinity_Ergodox/scan_loop.c.obj
 .debug_ranges  0x0000000000000940      0x4a8 CMakeFiles/kiibohd.dir/Macro/PartialMap/macro.c.obj
 .debug_ranges  0x0000000000000de8       0x80 CMakeFiles/kiibohd.dir/Macro/PartialMap/result.c.obj
 .debug_ranges  0x0000000000000e68      0x1d0 CMakeFiles/kiibohd.dir/Macro/PartialMap/trigger.c.obj
 .debug_ranges  0x0000000000001038      0x5d8 CMakeFiles/kiibohd.dir/Macro/PixelMap/pixel.c.obj
 .debug_ranges  0x0000000000001610      0x2e8 CMakeFiles/kiibohd.dir/Output/HID-IO/hidio_com.c.obj
 .debug_ranges  0x00000000000018f8       0x48 CMakeFiles/kiibohd.dir/Output/Interface/output_gen.c.obj
 .debug_ranges  0x0000000000001940       0x68 CMakeFiles/kiibohd.dir/Output/USB/output_com.c.obj
 .debug_ranges  0x00000000000019a8      0x150 CMakeFiles/kiibohd.dir/Output/USB/output_usb.c.obj
 .debug_ranges  0x0000000000001af8       0x10 CMakeFiles/kiibohd.dir/Output/USB/arm/usb_desc.c.obj
 .debug_ranges  0x0000000000001b08      0x138 CMakeFiles/kiibohd.dir/Output/USB/arm/usb_dev.c.obj
 .debug_ranges  0x0000000000001c40       0x20 CMakeFiles/kiibohd.dir/Output/USB/arm/usb_keyboard.c.obj
 .debug_ranges  0x0000000000001c60       0x18 CMakeFiles/kiibohd.dir/Output/USB/arm/usb_mem.c.obj
 .debug_ranges  0x0000000000001c78       0x28 CMakeFiles/kiibohd.dir/Output/USB/arm/usb_mouse.c.obj
 .debug_ranges  0x0000000000001ca0       0x20 CMakeFiles/kiibohd.dir/Output/USB/arm/usb_rawio.c.obj
 .debug_ranges  0x0000000000001cc0       0x68 CMakeFiles/kiibohd.dir/Output/USB/arm/usb_serial.c.obj
 .debug_ranges  0x0000000000001d28      0x248 CMakeFiles/kiibohd.dir/Debug/cli/cli.c.obj
 .debug_ranges  0x0000000000001f70       0x40 CMakeFiles/kiibohd.dir/Debug/latency/latency.c.obj
 .debug_ranges  0x0000000000001fb0       0x18 CMakeFiles/kiibohd.dir/Debug/led/led.c.obj
 .debug_ranges  0x0000000000001fc8       0xd8 CMakeFiles/kiibohd.dir/Debug/print/print.c.obj

.debug_macro    0x0000000000000000    0x10dab
 .debug_macro   0x0000000000000000       0xd0 CMakeFiles/kiibohd.dir/main.c.obj
 .debug_macro   0x00000000000000d0      0xa54 CMakeFiles/kiibohd.dir/main.c.obj
 .debug_macro   0x0000000000000b24       0x22 CMakeFiles/kiibohd.dir/main.c.obj
 .debug_macro   0x0000000000000b46       0x1c CMakeFiles/kiibohd.dir/main.c.obj
 .debug_macro   0x0000000000000b62       0x22 CMakeFiles/kiibohd.dir/main.c.obj
 .debug_macro   0x0000000000000b84       0x87 CMakeFiles/kiibohd.dir/main.c.obj
 .debug_macro   0x0000000000000c0b       0x51 CMakeFiles/kiibohd.dir/main.c.obj
 .debug_macro   0x0000000000000c5c       0xef CMakeFiles/kiibohd.dir/main.c.obj
 .debug_macro   0x0000000000000d4b       0x6a CMakeFiles/kiibohd.dir/main.c.obj
 .debug_macro   0x0000000000000db5      0x1df CMakeFiles/kiibohd.dir/main.c.obj
 .debug_macro   0x0000000000000f94     0x5add CMakeFiles/kiibohd.dir/main.c.obj
 .debug_macro   0x0000000000006a71       0x10 CMakeFiles/kiibohd.dir/main.c.obj
 .debug_macro   0x0000000000006a81      0x288 CMakeFiles/kiibohd.dir/main.c.obj
 .debug_macro   0x0000000000006d09       0xbe CMakeFiles/kiibohd.dir/main.c.obj
 .debug_macro   0x0000000000006dc7       0x10 CMakeFiles/kiibohd.dir/main.c.obj
 .debug_macro   0x0000000000006dd7       0x3a CMakeFiles/kiibohd.dir/main.c.obj
 .debug_macro   0x0000000000006e11       0x9a CMakeFiles/kiibohd.dir/main.c.obj
 .debug_macro   0x0000000000006eab       0xa1 CMakeFiles/kiibohd.dir/Lib/kinetis.c.obj
 .debug_macro   0x0000000000006f4c     0x5af5 CMakeFiles/kiibohd.dir/Lib/kinetis.c.obj
 .debug_macro   0x000000000000ca41       0x7e CMakeFiles/kiibohd.dir/Lib/delay.c.obj
 .debug_macro   0x000000000000cabf       0x10 CMakeFiles/kiibohd.dir/Lib/delay.c.obj
 .debug_macro   0x000000000000cacf       0xa0 CMakeFiles/kiibohd.dir/Lib/entropy.c.obj
 .debug_macro   0x000000000000cb6f       0x28 CMakeFiles/kiibohd.dir/Lib/entropy.c.obj
 .debug_macro   0x000000000000cb97       0x7a CMakeFiles/kiibohd.dir/Lib/periodic.c.obj
 .debug_macro   0x000000000000cc11       0xc1 CMakeFiles/kiibohd.dir/Lib/time.c.obj
 .debug_macro   0x000000000000ccd2      0x174 CMakeFiles/kiibohd.dir/Lib/time.c.obj
 .debug_macro   0x000000000000ce46       0x16 CMakeFiles/kiibohd.dir/Lib/time.c.obj
 .debug_macro   0x000000000000ce5c       0xd3 CMakeFiles/kiibohd.dir/Scan/Devices/ISSILed/i2c.c.obj
 .debug_macro   0x000000000000cf2f       0x2e CMakeFiles/kiibohd.dir/Scan/Devices/ISSILed/i2c.c.obj
 .debug_macro   0x000000000000cf5d      0x16e CMakeFiles/kiibohd.dir/Scan/Devices/ISSILed/led_scan.c.obj
 .debug_macro   0x000000000000d0cb     0x1217 CMakeFiles/kiibohd.dir/Scan/Devices/ISSILed/led_scan.c.obj
 .debug_macro   0x000000000000e2e2       0x6c CMakeFiles/kiibohd.dir/Scan/Devices/ISSILed/led_scan.c.obj
 .debug_macro   0x000000000000e34e       0x35 CMakeFiles/kiibohd.dir/Scan/Devices/ISSILed/led_scan.c.obj
 .debug_macro   0x000000000000e383       0xef CMakeFiles/kiibohd.dir/Scan/Devices/MatrixARMPeriodic/matrix_scan.c.obj
 .debug_macro   0x000000000000e472       0x10 CMakeFiles/kiibohd.dir/Scan/Devices/MatrixARMPeriodic/matrix_scan.c.obj
 .debug_macro   0x000000000000e482       0x1c CMakeFiles/kiibohd.dir/Scan/Devices/MatrixARMPeriodic/matrix_scan.c.obj
 .debug_macro   0x000000000000e49e      0x10b CMakeFiles/kiibohd.dir/Scan/Devices/STLcd/lcd_scan.c.obj
 .debug_macro   0x000000000000e5a9      0x12d CMakeFiles/kiibohd.dir/Scan/Devices/UARTConnect/connect_scan.c.obj
 .debug_macro   0x000000000000e6d6      0x105 CMakeFiles/kiibohd.dir/Scan/Infinity_Ergodox/scan_loop.c.obj
 .debug_macro   0x000000000000e7db      0x112 CMakeFiles/kiibohd.dir/Macro/PartialMap/macro.c.obj
 .debug_macro   0x000000000000e8ed       0xe2 CMakeFiles/kiibohd.dir/Macro/PartialMap/result.c.obj
 .debug_macro   0x000000000000e9cf       0xde CMakeFiles/kiibohd.dir/Macro/PartialMap/trigger.c.obj
 .debug_macro   0x000000000000eaad       0xfb CMakeFiles/kiibohd.dir/Macro/PixelMap/pixel.c.obj
 .debug_macro   0x000000000000eba8       0xbb CMakeFiles/kiibohd.dir/generatedPixelmap.c.obj
 .debug_macro   0x000000000000ec63      0x10d CMakeFiles/kiibohd.dir/Output/HID-IO/hidio_com.c.obj
 .debug_macro   0x000000000000ed70       0xe3 CMakeFiles/kiibohd.dir/Output/Interface/output_gen.c.obj
 .debug_macro   0x000000000000ee53       0xcd CMakeFiles/kiibohd.dir/Output/USB/output_com.c.obj
 .debug_macro   0x000000000000ef20      0x183 CMakeFiles/kiibohd.dir/Output/USB/output_usb.c.obj
 .debug_macro   0x000000000000f0a3      0x210 CMakeFiles/kiibohd.dir/Output/USB/output_usb.c.obj
 .debug_macro   0x000000000000f2b3       0x52 CMakeFiles/kiibohd.dir/Output/USB/output_usb.c.obj
 .debug_macro   0x000000000000f305       0x35 CMakeFiles/kiibohd.dir/Output/USB/output_usb.c.obj
 .debug_macro   0x000000000000f33a       0xa2 CMakeFiles/kiibohd.dir/Output/USB/output_usb.c.obj
 .debug_macro   0x000000000000f3dc       0x35 CMakeFiles/kiibohd.dir/Output/USB/output_usb.c.obj
 .debug_macro   0x000000000000f411      0x460 CMakeFiles/kiibohd.dir/Output/USB/output_usb.c.obj
 .debug_macro   0x000000000000f871       0x22 CMakeFiles/kiibohd.dir/Output/USB/output_usb.c.obj
 .debug_macro   0x000000000000f893       0xf7 CMakeFiles/kiibohd.dir/Output/USB/arm/usb_desc.c.obj
 .debug_macro   0x000000000000f98a      0x20d CMakeFiles/kiibohd.dir/Output/USB/arm/usb_dev.c.obj
 .debug_macro   0x000000000000fb97      0x1b1 CMakeFiles/kiibohd.dir/Output/USB/arm/usb_keyboard.c.obj
 .debug_macro   0x000000000000fd48       0x4c CMakeFiles/kiibohd.dir/Output/USB/arm/usb_keyboard.c.obj
 .debug_macro   0x000000000000fd94       0x8d CMakeFiles/kiibohd.dir/Output/USB/arm/usb_keyboard.c.obj
 .debug_macro   0x000000000000fe21       0x9c CMakeFiles/kiibohd.dir/Output/USB/arm/usb_keyboard.c.obj
 .debug_macro   0x000000000000febd       0x57 CMakeFiles/kiibohd.dir/Output/USB/arm/usb_keyboard.c.obj
 .debug_macro   0x000000000000ff14       0x52 CMakeFiles/kiibohd.dir/Output/USB/arm/usb_keyboard.c.obj
 .debug_macro   0x000000000000ff66       0x1f CMakeFiles/kiibohd.dir/Output/USB/arm/usb_keyboard.c.obj
 .debug_macro   0x000000000000ff85       0x43 CMakeFiles/kiibohd.dir/Output/USB/arm/usb_keyboard.c.obj
 .debug_macro   0x000000000000ffc8       0x20 CMakeFiles/kiibohd.dir/Output/USB/arm/usb_keyboard.c.obj
 .debug_macro   0x000000000000ffe8      0x18e CMakeFiles/kiibohd.dir/Output/USB/arm/usb_keyboard.c.obj
 .debug_macro   0x0000000000010176      0x330 CMakeFiles/kiibohd.dir/Output/USB/arm/usb_keyboard.c.obj
 .debug_macro   0x00000000000104a6       0x10 CMakeFiles/kiibohd.dir/Output/USB/arm/usb_keyboard.c.obj
 .debug_macro   0x00000000000104b6       0x10 CMakeFiles/kiibohd.dir/Output/USB/arm/usb_keyboard.c.obj
 .debug_macro   0x00000000000104c6       0xbd CMakeFiles/kiibohd.dir/Output/USB/arm/usb_mem.c.obj
 .debug_macro   0x0000000000010583      0x1c9 CMakeFiles/kiibohd.dir/Output/USB/arm/usb_mouse.c.obj
 .debug_macro   0x000000000001074c      0x194 CMakeFiles/kiibohd.dir/Output/USB/arm/usb_rawio.c.obj
 .debug_macro   0x00000000000108e0      0x1af CMakeFiles/kiibohd.dir/Output/USB/arm/usb_serial.c.obj
 .debug_macro   0x0000000000010a8f       0xcc CMakeFiles/kiibohd.dir/Debug/cli/cli.c.obj
 .debug_macro   0x0000000000010b5b       0xcc CMakeFiles/kiibohd.dir/Debug/latency/latency.c.obj
 .debug_macro   0x0000000000010c27       0x8f CMakeFiles/kiibohd.dir/Debug/led/led.c.obj
 .debug_macro   0x0000000000010cb6       0x9d CMakeFiles/kiibohd.dir/Debug/print/print.c.obj
 .debug_macro   0x0000000000010d53       0x58 CMakeFiles/kiibohd.dir/Debug/print/print.c.obj

.debug_line     0x0000000000000000     0xab32
 .debug_line    0x0000000000000000      0x3f9 CMakeFiles/kiibohd.dir/main.c.obj
 .debug_line    0x00000000000003f9      0x461 CMakeFiles/kiibohd.dir/Lib/kinetis.c.obj
 .debug_line    0x000000000000085a      0x20f CMakeFiles/kiibohd.dir/Lib/delay.c.obj
 .debug_line    0x0000000000000a69      0x228 CMakeFiles/kiibohd.dir/Lib/entropy.c.obj
 .debug_line    0x0000000000000c91      0x1c9 CMakeFiles/kiibohd.dir/Lib/periodic.c.obj
 .debug_line    0x0000000000000e5a      0x483 CMakeFiles/kiibohd.dir/Lib/time.c.obj
 .debug_line    0x00000000000012dd      0x404 CMakeFiles/kiibohd.dir/Scan/Devices/ISSILed/i2c.c.obj
 .debug_line    0x00000000000016e1      0x763 CMakeFiles/kiibohd.dir/Scan/Devices/ISSILed/led_scan.c.obj
 .debug_line    0x0000000000001e44      0x681 CMakeFiles/kiibohd.dir/Scan/Devices/MatrixARMPeriodic/matrix_scan.c.obj
 .debug_line    0x00000000000024c5      0x713 CMakeFiles/kiibohd.dir/Scan/Devices/STLcd/lcd_scan.c.obj
 .debug_line    0x0000000000002bd8      0xaed CMakeFiles/kiibohd.dir/Scan/Devices/UARTConnect/connect_scan.c.obj
 .debug_line    0x00000000000036c5      0x525 CMakeFiles/kiibohd.dir/Scan/Infinity_Ergodox/scan_loop.c.obj
 .debug_line    0x0000000000003bea      0xbc0 CMakeFiles/kiibohd.dir/Macro/PartialMap/macro.c.obj
 .debug_line    0x00000000000047aa      0x401 CMakeFiles/kiibohd.dir/Macro/PartialMap/result.c.obj
 .debug_line    0x0000000000004bab      0x5a4 CMakeFiles/kiibohd.dir/Macro/PartialMap/trigger.c.obj
 .debug_line    0x000000000000514f      0xeb8 CMakeFiles/kiibohd.dir/Macro/PixelMap/pixel.c.obj
 .debug_line    0x0000000000006007      0x31e CMakeFiles/kiibohd.dir/generatedPixelmap.c.obj
 .debug_line    0x0000000000006325      0x878 CMakeFiles/kiibohd.dir/Output/HID-IO/hidio_com.c.obj
 .debug_line    0x0000000000006b9d      0x40b CMakeFiles/kiibohd.dir/Output/Interface/output_gen.c.obj
 .debug_line    0x0000000000006fa8      0x3d5 CMakeFiles/kiibohd.dir/Output/USB/output_com.c.obj
 .debug_line    0x000000000000737d      0x855 CMakeFiles/kiibohd.dir/Output/USB/output_usb.c.obj
 .debug_line    0x0000000000007bd2      0x203 CMakeFiles/kiibohd.dir/Output/USB/arm/usb_desc.c.obj
 .debug_line    0x0000000000007dd5      0x74d CMakeFiles/kiibohd.dir/Output/USB/arm/usb_dev.c.obj
 .debug_line    0x0000000000008522      0x4a5 CMakeFiles/kiibohd.dir/Output/USB/arm/usb_keyboard.c.obj
 .debug_line    0x00000000000089c7      0x29d CMakeFiles/kiibohd.dir/Output/USB/arm/usb_mem.c.obj
 .debug_line    0x0000000000008c64      0x4a1 CMakeFiles/kiibohd.dir/Output/USB/arm/usb_mouse.c.obj
 .debug_line    0x0000000000009105      0x405 CMakeFiles/kiibohd.dir/Output/USB/arm/usb_rawio.c.obj
 .debug_line    0x000000000000950a      0x477 CMakeFiles/kiibohd.dir/Output/USB/arm/usb_serial.c.obj
 .debug_line    0x0000000000009981      0x736 CMakeFiles/kiibohd.dir/Debug/cli/cli.c.obj
 .debug_line    0x000000000000a0b7      0x3ed CMakeFiles/kiibohd.dir/Debug/latency/latency.c.obj
 .debug_line    0x000000000000a4a4      0x1d1 CMakeFiles/kiibohd.dir/Debug/led/led.c.obj
 .debug_line    0x000000000000a675      0x4bd CMakeFiles/kiibohd.dir/Debug/print/print.c.obj

.debug_str      0x0000000000000000    0x3996a
 .debug_str     0x0000000000000000    0x28ee6 CMakeFiles/kiibohd.dir/main.c.obj
                                      0x2907d (size before relaxing)
 .debug_str     0x0000000000028ee6      0x1bc CMakeFiles/kiibohd.dir/Lib/kinetis.c.obj
                                      0x28e22 (size before relaxing)
 .debug_str     0x00000000000290a2       0xaa CMakeFiles/kiibohd.dir/Lib/delay.c.obj
                                      0x24174 (size before relaxing)
 .debug_str     0x000000000002914c      0x69e CMakeFiles/kiibohd.dir/Lib/entropy.c.obj
                                      0x247bd (size before relaxing)
 .debug_str     0x00000000000297ea       0x80 CMakeFiles/kiibohd.dir/Lib/periodic.c.obj
                                      0x24487 (size before relaxing)
 .debug_str     0x000000000002986a      0x42c CMakeFiles/kiibohd.dir/Lib/time.c.obj
                                      0x291c0 (size before relaxing)
 .debug_str     0x0000000000029c96      0x271 CMakeFiles/kiibohd.dir/Scan/Devices/ISSILed/i2c.c.obj
                                      0x292e0 (size before relaxing)
 .debug_str     0x0000000000029f07     0x4869 CMakeFiles/kiibohd.dir/Scan/Devices/ISSILed/led_scan.c.obj
                                      0x2da1b (size before relaxing)
 .debug_str     0x000000000002e770      0x643 CMakeFiles/kiibohd.dir/Scan/Devices/MatrixARMPeriodic/matrix_scan.c.obj
                                      0x2971e (size before relaxing)
 .debug_str     0x000000000002edb3      0x3ed CMakeFiles/kiibohd.dir/Scan/Devices/STLcd/lcd_scan.c.obj
                                      0x2d0cf (size before relaxing)
 .debug_str     0x000000000002f1a0     0x107f CMakeFiles/kiibohd.dir/Scan/Devices/UARTConnect/connect_scan.c.obj
                                      0x2de88 (size before relaxing)
 .debug_str     0x000000000003021f       0xa2 CMakeFiles/kiibohd.dir/Scan/Infinity_Ergodox/scan_loop.c.obj
                                      0x2ced9 (size before relaxing)
 .debug_str     0x00000000000302c1     0x1b19 CMakeFiles/kiibohd.dir/Macro/PartialMap/macro.c.obj
                                      0x2eda1 (size before relaxing)
 .debug_str     0x0000000000031dda      0x110 CMakeFiles/kiibohd.dir/Macro/PartialMap/result.c.obj
                                      0x2c834 (size before relaxing)
 .debug_str     0x0000000000031eea      0x2dc CMakeFiles/kiibohd.dir/Macro/PartialMap/trigger.c.obj
                                      0x2cd31 (size before relaxing)
 .debug_str     0x00000000000321c6      0xa5a CMakeFiles/kiibohd.dir/Macro/PixelMap/pixel.c.obj
                                      0x2da0d (size before relaxing)
 .debug_str     0x0000000000032c20       0x5d CMakeFiles/kiibohd.dir/generatedPixelmap.c.obj
                                       0xc543 (size before relaxing)
 .debug_str     0x0000000000032c7d      0x6f4 CMakeFiles/kiibohd.dir/Output/HID-IO/hidio_com.c.obj
                                      0x2d032 (size before relaxing)
 .debug_str     0x0000000000033371      0x16c CMakeFiles/kiibohd.dir/Output/Interface/output_gen.c.obj
                                      0x2ca1d (size before relaxing)
 .debug_str     0x00000000000334dd      0x12e CMakeFiles/kiibohd.dir/Output/USB/output_com.c.obj
                                      0x2c6cb (size before relaxing)
 .debug_str     0x000000000003360b     0x2531 CMakeFiles/kiibohd.dir/Output/USB/output_usb.c.obj
                                      0x2f2be (size before relaxing)
 .debug_str     0x0000000000035b3c      0x650 CMakeFiles/kiibohd.dir/Output/USB/arm/usb_desc.c.obj
                                       0x955b (size before relaxing)
 .debug_str     0x000000000003618c      0x553 CMakeFiles/kiibohd.dir/Output/USB/arm/usb_dev.c.obj
                                      0x2b910 (size before relaxing)
 .debug_str     0x00000000000366df     0x278c CMakeFiles/kiibohd.dir/Output/USB/arm/usb_keyboard.c.obj
                                      0x2d756 (size before relaxing)
 .debug_str     0x0000000000038e6b       0x61 CMakeFiles/kiibohd.dir/Output/USB/arm/usb_mem.c.obj
                                      0x25ff1 (size before relaxing)
 .debug_str     0x0000000000038ecc      0x205 CMakeFiles/kiibohd.dir/Output/USB/arm/usb_mouse.c.obj
                                      0x2d899 (size before relaxing)
 .debug_str     0x00000000000390d1       0x64 CMakeFiles/kiibohd.dir/Output/USB/arm/usb_rawio.c.obj
                                      0x2c6d8 (size before relaxing)
 .debug_str     0x0000000000039135       0xd5 CMakeFiles/kiibohd.dir/Output/USB/arm/usb_serial.c.obj
                                      0x2d3d5 (size before relaxing)
 .debug_str     0x000000000003920a      0x4d5 CMakeFiles/kiibohd.dir/Debug/cli/cli.c.obj
                                      0x29576 (size before relaxing)
 .debug_str     0x00000000000396df       0xb3 CMakeFiles/kiibohd.dir/Debug/latency/latency.c.obj
                                      0x2c74b (size before relaxing)
 .debug_str     0x0000000000039792       0x2b CMakeFiles/kiibohd.dir/Debug/led/led.c.obj
                                      0x2413b (size before relaxing)
 .debug_str     0x00000000000397bd      0x1ad CMakeFiles/kiibohd.dir/Debug/print/print.c.obj
                                       0x89ce (size before relaxing)

.comment        0x0000000000000000       0x1d
 .comment       0x0000000000000000       0x1d CMakeFiles/kiibohd.dir/main.c.obj
                                         0x1e (size before relaxing)
 .comment       0x000000000000001d       0x1e CMakeFiles/kiibohd.dir/Lib/kinetis.c.obj
 .comment       0x000000000000001d       0x1e CMakeFiles/kiibohd.dir/Lib/delay.c.obj
 .comment       0x000000000000001d       0x1e CMakeFiles/kiibohd.dir/Lib/entropy.c.obj
 .comment       0x000000000000001d       0x1e CMakeFiles/kiibohd.dir/Lib/periodic.c.obj
 .comment       0x000000000000001d       0x1e CMakeFiles/kiibohd.dir/Lib/time.c.obj
 .comment       0x000000000000001d       0x1e CMakeFiles/kiibohd.dir/Scan/Devices/ISSILed/i2c.c.obj
 .comment       0x000000000000001d       0x1e CMakeFiles/kiibohd.dir/Scan/Devices/ISSILed/led_scan.c.obj
 .comment       0x000000000000001d       0x1e CMakeFiles/kiibohd.dir/Scan/Devices/MatrixARMPeriodic/matrix_scan.c.obj
 .comment       0x000000000000001d       0x1e CMakeFiles/kiibohd.dir/Scan/Devices/STLcd/lcd_scan.c.obj
 .comment       0x000000000000001d       0x1e CMakeFiles/kiibohd.dir/Scan/Devices/UARTConnect/connect_scan.c.obj
 .comment       0x000000000000001d       0x1e CMakeFiles/kiibohd.dir/Scan/Infinity_Ergodox/scan_loop.c.obj
 .comment       0x000000000000001d       0x1e CMakeFiles/kiibohd.dir/Macro/PartialMap/macro.c.obj
 .comment       0x000000000000001d       0x1e CMakeFiles/kiibohd.dir/Macro/PartialMap/result.c.obj
 .comment       0x000000000000001d       0x1e CMakeFiles/kiibohd.dir/Macro/PartialMap/trigger.c.obj
 .comment       0x000000000000001d       0x1e CMakeFiles/kiibohd.dir/Macro/PixelMap/pixel.c.obj
 .comment       0x000000000000001d       0x1e CMakeFiles/kiibohd.dir/generatedPixelmap.c.obj
 .comment       0x000000000000001d       0x1e CMakeFiles/kiibohd.dir/Output/HID-IO/hidio_com.c.obj
 .comment       0x000000000000001d       0x1e CMakeFiles/kiibohd.dir/Output/Interface/output_gen.c.obj
 .comment       0x000000000000001d       0x1e CMakeFiles/kiibohd.dir/Output/USB/output_com.c.obj
 .comment       0x000000000000001d       0x1e CMakeFiles/kiibohd.dir/Output/USB/output_usb.c.obj
 .comment       0x000000000000001d       0x1e CMakeFiles/kiibohd.dir/Output/USB/arm/usb_desc.c.obj
 .comment       0x000000000000001d       0x1e CMakeFiles/kiibohd.dir/Output/USB/arm/usb_dev.c.obj
 .comment       0x000000000000001d       0x1e CMakeFiles/kiibohd.dir/Output/USB/arm/usb_keyboard.c.obj
 .comment       0x000000000000001d       0x1e CMakeFiles/kiibohd.dir/Output/USB/arm/usb_mem.c.obj
 .comment       0x000000000000001d       0x1e CMakeFiles/kiibohd.dir/Output/USB/arm/usb_mouse.c.obj
 .comment       0x000000000000001d       0x1e CMakeFiles/kiibohd.dir/Output/USB/arm/usb_rawio.c.obj
 .comment       0x000000000000001d       0x1e CMakeFiles/kiibohd.dir/Output/USB/arm/usb_serial.c.obj
 .comment       0x000000000000001d       0x1e CMakeFiles/kiibohd.dir/Debug/cli/cli.c.obj
 .comment       0x000000000000001d       0x1e CMakeFiles/kiibohd.dir/Debug/latency/latency.c.obj
 .comment       0x000000000000001d       0x1e CMakeFiles/kiibohd.dir/Debug/led/led.c.obj
 .comment       0x000000000000001d       0x1e CMakeFiles/kiibohd.dir/Debug/print/print.c.obj

.ARM.attributes
                0x0000000000000000       0x33
 .ARM.attributes
                0x0000000000000000       0x33 CMakeFiles/kiibohd.dir/main.c.obj
 .ARM.attributes
                0x0000000000000033       0x33 CMakeFiles/kiibohd.dir/Lib/kinetis.c.obj
 .ARM.attributes
                0x0000000000000066       0x33 CMakeFiles/kiibohd.dir/Lib/delay.c.obj
 .ARM.attributes
                0x0000000000000099       0x33 CMakeFiles/kiibohd.dir/Lib/entropy.c.obj
 .ARM.attributes
                0x00000000000000cc       0x33 CMakeFiles/kiibohd.dir/Lib/periodic.c.obj
 .ARM.attributes
                0x00000000000000ff       0x33 CMakeFiles/kiibohd.dir/Lib/time.c.obj
 .ARM.attributes
                0x0000000000000132       0x33 CMakeFiles/kiibohd.dir/Scan/Devices/ISSILed/i2c.c.obj
 .ARM.attributes
                0x0000000000000165       0x33 CMakeFiles/kiibohd.dir/Scan/Devices/ISSILed/led_scan.c.obj
 .ARM.attributes
                0x0000000000000198       0x33 CMakeFiles/kiibohd.dir/Scan/Devices/MatrixARMPeriodic/matrix_scan.c.obj
 .ARM.attributes
                0x00000000000001cb       0x33 CMakeFiles/kiibohd.dir/Scan/Devices/STLcd/lcd_scan.c.obj
 .ARM.attributes
                0x00000000000001fe       0x33 CMakeFiles/kiibohd.dir/Scan/Devices/UARTConnect/connect_scan.c.obj
 .ARM.attributes
                0x0000000000000231       0x33 CMakeFiles/kiibohd.dir/Scan/Infinity_Ergodox/scan_loop.c.obj
 .ARM.attributes
                0x0000000000000264       0x33 CMakeFiles/kiibohd.dir/Macro/PartialMap/macro.c.obj
 .ARM.attributes
                0x0000000000000297       0x33 CMakeFiles/kiibohd.dir/Macro/PartialMap/result.c.obj
 .ARM.attributes
                0x00000000000002ca       0x33 CMakeFiles/kiibohd.dir/Macro/PartialMap/trigger.c.obj
 .ARM.attributes
                0x00000000000002fd       0x33 CMakeFiles/kiibohd.dir/Macro/PixelMap/pixel.c.obj
 .ARM.attributes
                0x0000000000000330       0x33 CMakeFiles/kiibohd.dir/generatedPixelmap.c.obj
 .ARM.attributes
                0x0000000000000363       0x33 CMakeFiles/kiibohd.dir/Output/HID-IO/hidio_com.c.obj
 .ARM.attributes
                0x0000000000000396       0x33 CMakeFiles/kiibohd.dir/Output/Interface/output_gen.c.obj
 .ARM.attributes
                0x00000000000003c9       0x33 CMakeFiles/kiibohd.dir/Output/USB/output_com.c.obj
 .ARM.attributes
                0x00000000000003fc       0x33 CMakeFiles/kiibohd.dir/Output/USB/output_usb.c.obj
 .ARM.attributes
                0x000000000000042f       0x33 CMakeFiles/kiibohd.dir/Output/USB/arm/usb_desc.c.obj
 .ARM.attributes
                0x0000000000000462       0x33 CMakeFiles/kiibohd.dir/Output/USB/arm/usb_dev.c.obj
 .ARM.attributes
                0x0000000000000495       0x33 CMakeFiles/kiibohd.dir/Output/USB/arm/usb_keyboard.c.obj
 .ARM.attributes
                0x00000000000004c8       0x33 CMakeFiles/kiibohd.dir/Output/USB/arm/usb_mem.c.obj
 .ARM.attributes
                0x00000000000004fb       0x33 CMakeFiles/kiibohd.dir/Output/USB/arm/usb_mouse.c.obj
 .ARM.attributes
                0x000000000000052e       0x33 CMakeFiles/kiibohd.dir/Output/USB/arm/usb_rawio.c.obj
 .ARM.attributes
                0x0000000000000561       0x33 CMakeFiles/kiibohd.dir/Output/USB/arm/usb_serial.c.obj
 .ARM.attributes
                0x0000000000000594       0x33 CMakeFiles/kiibohd.dir/Debug/cli/cli.c.obj
 .ARM.attributes
                0x00000000000005c7       0x33 CMakeFiles/kiibohd.dir/Debug/latency/latency.c.obj
 .ARM.attributes
                0x00000000000005fa       0x33 CMakeFiles/kiibohd.dir/Debug/led/led.c.obj
 .ARM.attributes
                0x000000000000062d       0x33 CMakeFiles/kiibohd.dir/Debug/print/print.c.obj

.debug_frame    0x0000000000000000     0x2dbc
 .debug_frame   0x0000000000000000       0x40 CMakeFiles/kiibohd.dir/main.c.obj
 .debug_frame   0x0000000000000040      0x164 CMakeFiles/kiibohd.dir/Lib/kinetis.c.obj
 .debug_frame   0x00000000000001a4       0xa4 CMakeFiles/kiibohd.dir/Lib/delay.c.obj
 .debug_frame   0x0000000000000248       0x78 CMakeFiles/kiibohd.dir/Lib/entropy.c.obj
 .debug_frame   0x00000000000002c0       0x78 CMakeFiles/kiibohd.dir/Lib/periodic.c.obj
 .debug_frame   0x0000000000000338      0x244 CMakeFiles/kiibohd.dir/Lib/time.c.obj
 .debug_frame   0x000000000000057c       0xbc CMakeFiles/kiibohd.dir/Scan/Devices/ISSILed/i2c.c.obj
 .debug_frame   0x0000000000000638      0x28c CMakeFiles/kiibohd.dir/Scan/Devices/ISSILed/led_scan.c.obj
 .debug_frame   0x00000000000008c4      0x148 CMakeFiles/kiibohd.dir/Scan/Devices/MatrixARMPeriodic/matrix_scan.c.obj
 .debug_frame   0x0000000000000a0c      0x218 CMakeFiles/kiibohd.dir/Scan/Devices/STLcd/lcd_scan.c.obj
 .debug_frame   0x0000000000000c24      0x394 CMakeFiles/kiibohd.dir/Scan/Devices/UARTConnect/connect_scan.c.obj
 .debug_frame   0x0000000000000fb8       0xa0 CMakeFiles/kiibohd.dir/Scan/Infinity_Ergodox/scan_loop.c.obj
 .debug_frame   0x0000000000001058      0x4c0 CMakeFiles/kiibohd.dir/Macro/PartialMap/macro.c.obj
 .debug_frame   0x0000000000001518       0xa8 CMakeFiles/kiibohd.dir/Macro/PartialMap/result.c.obj
 .debug_frame   0x00000000000015c0      0x140 CMakeFiles/kiibohd.dir/Macro/PartialMap/trigger.c.obj
 .debug_frame   0x0000000000001700      0x4f8 CMakeFiles/kiibohd.dir/Macro/PixelMap/pixel.c.obj
 .debug_frame   0x0000000000001bf8      0x330 CMakeFiles/kiibohd.dir/Output/HID-IO/hidio_com.c.obj
 .debug_frame   0x0000000000001f28       0xd0 CMakeFiles/kiibohd.dir/Output/Interface/output_gen.c.obj
 .debug_frame   0x0000000000001ff8       0xdc CMakeFiles/kiibohd.dir/Output/USB/output_com.c.obj
 .debug_frame   0x00000000000020d4      0x2a4 CMakeFiles/kiibohd.dir/Output/USB/output_usb.c.obj
 .debug_frame   0x0000000000002378       0x20 CMakeFiles/kiibohd.dir/Output/USB/arm/usb_desc.c.obj
 .debug_frame   0x0000000000002398      0x158 CMakeFiles/kiibohd.dir/Output/USB/arm/usb_dev.c.obj
 .debug_frame   0x00000000000024f0       0x88 CMakeFiles/kiibohd.dir/Output/USB/arm/usb_keyboard.c.obj
 .debug_frame   0x0000000000002578       0x38 CMakeFiles/kiibohd.dir/Output/USB/arm/usb_mem.c.obj
 .debug_frame   0x00000000000025b0       0xb8 CMakeFiles/kiibohd.dir/Output/USB/arm/usb_mouse.c.obj
 .debug_frame   0x0000000000002668       0x70 CMakeFiles/kiibohd.dir/Output/USB/arm/usb_rawio.c.obj
 .debug_frame   0x00000000000026d8      0x11c CMakeFiles/kiibohd.dir/Output/USB/arm/usb_serial.c.obj
 .debug_frame   0x00000000000027f4      0x2f8 CMakeFiles/kiibohd.dir/Debug/cli/cli.c.obj
 .debug_frame   0x0000000000002aec       0xac CMakeFiles/kiibohd.dir/Debug/latency/latency.c.obj
 .debug_frame   0x0000000000002b98       0x30 CMakeFiles/kiibohd.dir/Debug/led/led.c.obj
 .debug_frame   0x0000000000002bc8      0x1f4 CMakeFiles/kiibohd.dir/Debug/print/print.c.obj

.debug_loc      0x0000000000000000     0xbb7a
 .debug_loc     0x0000000000000000      0x2cb CMakeFiles/kiibohd.dir/Lib/kinetis.c.obj
 .debug_loc     0x00000000000002cb       0x93 CMakeFiles/kiibohd.dir/Lib/delay.c.obj
 .debug_loc     0x000000000000035e       0x46 CMakeFiles/kiibohd.dir/Lib/entropy.c.obj
 .debug_loc     0x00000000000003a4      0x41d CMakeFiles/kiibohd.dir/Lib/time.c.obj
 .debug_loc     0x00000000000007c1      0x3cb CMakeFiles/kiibohd.dir/Scan/Devices/ISSILed/i2c.c.obj
 .debug_loc     0x0000000000000b8c      0x823 CMakeFiles/kiibohd.dir/Scan/Devices/ISSILed/led_scan.c.obj
 .debug_loc     0x00000000000013af      0x547 CMakeFiles/kiibohd.dir/Scan/Devices/MatrixARMPeriodic/matrix_scan.c.obj
 .debug_loc     0x00000000000018f6      0x6e7 CMakeFiles/kiibohd.dir/Scan/Devices/STLcd/lcd_scan.c.obj
 .debug_loc     0x0000000000001fdd      0xece CMakeFiles/kiibohd.dir/Scan/Devices/UARTConnect/connect_scan.c.obj
 .debug_loc     0x0000000000002eab       0x37 CMakeFiles/kiibohd.dir/Scan/Infinity_Ergodox/scan_loop.c.obj
 .debug_loc     0x0000000000002ee2     0x1d21 CMakeFiles/kiibohd.dir/Macro/PartialMap/macro.c.obj
 .debug_loc     0x0000000000004c03      0x19f CMakeFiles/kiibohd.dir/Macro/PartialMap/result.c.obj
 .debug_loc     0x0000000000004da2      0x7b8 CMakeFiles/kiibohd.dir/Macro/PartialMap/trigger.c.obj
 .debug_loc     0x000000000000555a     0x1da9 CMakeFiles/kiibohd.dir/Macro/PixelMap/pixel.c.obj
 .debug_loc     0x0000000000007303     0x122b CMakeFiles/kiibohd.dir/Output/HID-IO/hidio_com.c.obj
 .debug_loc     0x000000000000852e      0x213 CMakeFiles/kiibohd.dir/Output/Interface/output_gen.c.obj
 .debug_loc     0x0000000000008741       0x84 CMakeFiles/kiibohd.dir/Output/USB/output_com.c.obj
 .debug_loc     0x00000000000087c5      0xdf7 CMakeFiles/kiibohd.dir/Output/USB/output_usb.c.obj
 .debug_loc     0x00000000000095bc      0xa47 CMakeFiles/kiibohd.dir/Output/USB/arm/usb_dev.c.obj
 .debug_loc     0x000000000000a003      0x297 CMakeFiles/kiibohd.dir/Output/USB/arm/usb_keyboard.c.obj
 .debug_loc     0x000000000000a29a       0xd5 CMakeFiles/kiibohd.dir/Output/USB/arm/usb_mem.c.obj
 .debug_loc     0x000000000000a36f      0x279 CMakeFiles/kiibohd.dir/Output/USB/arm/usb_mouse.c.obj
 .debug_loc     0x000000000000a5e8       0xe9 CMakeFiles/kiibohd.dir/Output/USB/arm/usb_rawio.c.obj
 .debug_loc     0x000000000000a6d1      0x266 CMakeFiles/kiibohd.dir/Output/USB/arm/usb_serial.c.obj
 .debug_loc     0x000000000000a937      0x729 CMakeFiles/kiibohd.dir/Debug/cli/cli.c.obj
 .debug_loc     0x000000000000b060      0x2a6 CMakeFiles/kiibohd.dir/Debug/latency/latency.c.obj
 .debug_loc     0x000000000000b306      0x874 CMakeFiles/kiibohd.dir/Debug/print/print.c.obj

Cross Reference Table

Symbol                                            File
CLIDict                                           CMakeFiles/kiibohd.dir/Debug/cli/cli.c.obj
                                                  CMakeFiles/kiibohd.dir/Output/USB/output_usb.c.obj
                                                  CMakeFiles/kiibohd.dir/Output/Interface/output_gen.c.obj
                                                  CMakeFiles/kiibohd.dir/Output/HID-IO/hidio_com.c.obj
                                                  CMakeFiles/kiibohd.dir/Macro/PixelMap/pixel.c.obj
                                                  CMakeFiles/kiibohd.dir/Macro/PartialMap/macro.c.obj
                                                  CMakeFiles/kiibohd.dir/Scan/Infinity_Ergodox/scan_loop.c.obj
                                                  CMakeFiles/kiibohd.dir/Scan/Devices/UARTConnect/connect_scan.c.obj
                                                  CMakeFiles/kiibohd.dir/Scan/Devices/STLcd/lcd_scan.c.obj
                                                  CMakeFiles/kiibohd.dir/Scan/Devices/MatrixARMPeriodic/matrix_scan.c.obj
                                                  CMakeFiles/kiibohd.dir/Scan/Devices/ISSILed/led_scan.c.obj
                                                  CMakeFiles/kiibohd.dir/main.c.obj
CLIDictNames                                      CMakeFiles/kiibohd.dir/Debug/cli/cli.c.obj
                                                  CMakeFiles/kiibohd.dir/Output/USB/output_usb.c.obj
                                                  CMakeFiles/kiibohd.dir/Output/Interface/output_gen.c.obj
                                                  CMakeFiles/kiibohd.dir/Output/HID-IO/hidio_com.c.obj
                                                  CMakeFiles/kiibohd.dir/Macro/PixelMap/pixel.c.obj
                                                  CMakeFiles/kiibohd.dir/Macro/PartialMap/macro.c.obj
                                                  CMakeFiles/kiibohd.dir/Scan/Infinity_Ergodox/scan_loop.c.obj
                                                  CMakeFiles/kiibohd.dir/Scan/Devices/UARTConnect/connect_scan.c.obj
                                                  CMakeFiles/kiibohd.dir/Scan/Devices/STLcd/lcd_scan.c.obj
                                                  CMakeFiles/kiibohd.dir/Scan/Devices/MatrixARMPeriodic/matrix_scan.c.obj
                                                  CMakeFiles/kiibohd.dir/Scan/Devices/ISSILed/led_scan.c.obj
                                                  CMakeFiles/kiibohd.dir/main.c.obj
CLIDictionariesUsed                               CMakeFiles/kiibohd.dir/Debug/cli/cli.c.obj
                                                  CMakeFiles/kiibohd.dir/Output/USB/output_usb.c.obj
                                                  CMakeFiles/kiibohd.dir/Output/Interface/output_gen.c.obj
                                                  CMakeFiles/kiibohd.dir/Output/HID-IO/hidio_com.c.obj
                                                  CMakeFiles/kiibohd.dir/Macro/PixelMap/pixel.c.obj
                                                  CMakeFiles/kiibohd.dir/Macro/PartialMap/macro.c.obj
                                                  CMakeFiles/kiibohd.dir/Scan/Infinity_Ergodox/scan_loop.c.obj
                                                  CMakeFiles/kiibohd.dir/Scan/Devices/UARTConnect/connect_scan.c.obj
                                                  CMakeFiles/kiibohd.dir/Scan/Devices/STLcd/lcd_scan.c.obj
                                                  CMakeFiles/kiibohd.dir/Scan/Devices/MatrixARMPeriodic/matrix_scan.c.obj
                                                  CMakeFiles/kiibohd.dir/Scan/Devices/ISSILed/led_scan.c.obj
                                                  CMakeFiles/kiibohd.dir/main.c.obj
CLIHexDebugMode                                   CMakeFiles/kiibohd.dir/Debug/cli/cli.c.obj
                                                  CMakeFiles/kiibohd.dir/Output/USB/output_usb.c.obj
                                                  CMakeFiles/kiibohd.dir/Output/Interface/output_gen.c.obj
                                                  CMakeFiles/kiibohd.dir/Output/HID-IO/hidio_com.c.obj
                                                  CMakeFiles/kiibohd.dir/Macro/PixelMap/pixel.c.obj
                                                  CMakeFiles/kiibohd.dir/Macro/PartialMap/macro.c.obj
                                                  CMakeFiles/kiibohd.dir/Scan/Infinity_Ergodox/scan_loop.c.obj
                                                  CMakeFiles/kiibohd.dir/Scan/Devices/UARTConnect/connect_scan.c.obj
                                                  CMakeFiles/kiibohd.dir/Scan/Devices/STLcd/lcd_scan.c.obj
                                                  CMakeFiles/kiibohd.dir/Scan/Devices/MatrixARMPeriodic/matrix_scan.c.obj
                                                  CMakeFiles/kiibohd.dir/Scan/Devices/ISSILed/led_scan.c.obj
                                                  CMakeFiles/kiibohd.dir/main.c.obj
CLIHistoryBuffer                                  CMakeFiles/kiibohd.dir/Debug/cli/cli.c.obj
                                                  CMakeFiles/kiibohd.dir/Output/USB/output_usb.c.obj
                                                  CMakeFiles/kiibohd.dir/Output/Interface/output_gen.c.obj
                                                  CMakeFiles/kiibohd.dir/Output/HID-IO/hidio_com.c.obj
                                                  CMakeFiles/kiibohd.dir/Macro/PixelMap/pixel.c.obj
                                                  CMakeFiles/kiibohd.dir/Macro/PartialMap/macro.c.obj
                                                  CMakeFiles/kiibohd.dir/Scan/Infinity_Ergodox/scan_loop.c.obj
                                                  CMakeFiles/kiibohd.dir/Scan/Devices/UARTConnect/connect_scan.c.obj
                                                  CMakeFiles/kiibohd.dir/Scan/Devices/STLcd/lcd_scan.c.obj
                                                  CMakeFiles/kiibohd.dir/Scan/Devices/MatrixARMPeriodic/matrix_scan.c.obj
                                                  CMakeFiles/kiibohd.dir/Scan/Devices/ISSILed/led_scan.c.obj
                                                  CMakeFiles/kiibohd.dir/main.c.obj
CLIHistoryCurrent                                 CMakeFiles/kiibohd.dir/Debug/cli/cli.c.obj
                                                  CMakeFiles/kiibohd.dir/Output/USB/output_usb.c.obj
                                                  CMakeFiles/kiibohd.dir/Output/Interface/output_gen.c.obj
                                                  CMakeFiles/kiibohd.dir/Output/HID-IO/hidio_com.c.obj
                                                  CMakeFiles/kiibohd.dir/Macro/PixelMap/pixel.c.obj
                                                  CMakeFiles/kiibohd.dir/Macro/PartialMap/macro.c.obj
                                                  CMakeFiles/kiibohd.dir/Scan/Infinity_Ergodox/scan_loop.c.obj
                                                  CMakeFiles/kiibohd.dir/Scan/Devices/UARTConnect/connect_scan.c.obj
                                                  CMakeFiles/kiibohd.dir/Scan/Devices/STLcd/lcd_scan.c.obj
                                                  CMakeFiles/kiibohd.dir/Scan/Devices/MatrixARMPeriodic/matrix_scan.c.obj
                                                  CMakeFiles/kiibohd.dir/Scan/Devices/ISSILed/led_scan.c.obj
                                                  CMakeFiles/kiibohd.dir/main.c.obj
CLIHistoryHead                                    CMakeFiles/kiibohd.dir/Debug/cli/cli.c.obj
                                                  CMakeFiles/kiibohd.dir/Output/USB/output_usb.c.obj
                                                  CMakeFiles/kiibohd.dir/Output/Interface/output_gen.c.obj
                                                  CMakeFiles/kiibohd.dir/Output/HID-IO/hidio_com.c.obj
                                                  CMakeFiles/kiibohd.dir/Macro/PixelMap/pixel.c.obj
                                                  CMakeFiles/kiibohd.dir/Macro/PartialMap/macro.c.obj
                                                  CMakeFiles/kiibohd.dir/Scan/Infinity_Ergodox/scan_loop.c.obj
                                                  CMakeFiles/kiibohd.dir/Scan/Devices/UARTConnect/connect_scan.c.obj
                                                  CMakeFiles/kiibohd.dir/Scan/Devices/STLcd/lcd_scan.c.obj
                                                  CMakeFiles/kiibohd.dir/Scan/Devices/MatrixARMPeriodic/matrix_scan.c.obj
                                                  CMakeFiles/kiibohd.dir/Scan/Devices/ISSILed/led_scan.c.obj
                                                  CMakeFiles/kiibohd.dir/main.c.obj
CLIHistoryTail                                    CMakeFiles/kiibohd.dir/Debug/cli/cli.c.obj
                                                  CMakeFiles/kiibohd.dir/Output/USB/output_usb.c.obj
                                                  CMakeFiles/kiibohd.dir/Output/Interface/output_gen.c.obj
                                                  CMakeFiles/kiibohd.dir/Output/HID-IO/hidio_com.c.obj
                                                  CMakeFiles/kiibohd.dir/Macro/PixelMap/pixel.c.obj
                                                  CMakeFiles/kiibohd.dir/Macro/PartialMap/macro.c.obj
                                                  CMakeFiles/kiibohd.dir/Scan/Infinity_Ergodox/scan_loop.c.obj
                                                  CMakeFiles/kiibohd.dir/Scan/Devices/UARTConnect/connect_scan.c.obj
                                                  CMakeFiles/kiibohd.dir/Scan/Devices/STLcd/lcd_scan.c.obj
                                                  CMakeFiles/kiibohd.dir/Scan/Devices/MatrixARMPeriodic/matrix_scan.c.obj
                                                  CMakeFiles/kiibohd.dir/Scan/Devices/ISSILed/led_scan.c.obj
                                                  CMakeFiles/kiibohd.dir/main.c.obj
CLILEDState                                       CMakeFiles/kiibohd.dir/Debug/cli/cli.c.obj
                                                  CMakeFiles/kiibohd.dir/Output/USB/output_usb.c.obj
                                                  CMakeFiles/kiibohd.dir/Output/Interface/output_gen.c.obj
                                                  CMakeFiles/kiibohd.dir/Output/HID-IO/hidio_com.c.obj
                                                  CMakeFiles/kiibohd.dir/Macro/PixelMap/pixel.c.obj
                                                  CMakeFiles/kiibohd.dir/Macro/PartialMap/macro.c.obj
                                                  CMakeFiles/kiibohd.dir/Scan/Infinity_Ergodox/scan_loop.c.obj
                                                  CMakeFiles/kiibohd.dir/Scan/Devices/UARTConnect/connect_scan.c.obj
                                                  CMakeFiles/kiibohd.dir/Scan/Devices/STLcd/lcd_scan.c.obj
                                                  CMakeFiles/kiibohd.dir/Scan/Devices/MatrixARMPeriodic/matrix_scan.c.obj
                                                  CMakeFiles/kiibohd.dir/Scan/Devices/ISSILed/led_scan.c.obj
                                                  CMakeFiles/kiibohd.dir/main.c.obj
CLILineBuffer                                     CMakeFiles/kiibohd.dir/Debug/cli/cli.c.obj
                                                  CMakeFiles/kiibohd.dir/Output/USB/output_usb.c.obj
                                                  CMakeFiles/kiibohd.dir/Output/Interface/output_gen.c.obj
                                                  CMakeFiles/kiibohd.dir/Output/HID-IO/hidio_com.c.obj
                                                  CMakeFiles/kiibohd.dir/Macro/PixelMap/pixel.c.obj
                                                  CMakeFiles/kiibohd.dir/Macro/PartialMap/macro.c.obj
                                                  CMakeFiles/kiibohd.dir/Scan/Infinity_Ergodox/scan_loop.c.obj
                                                  CMakeFiles/kiibohd.dir/Scan/Devices/UARTConnect/connect_scan.c.obj
                                                  CMakeFiles/kiibohd.dir/Scan/Devices/STLcd/lcd_scan.c.obj
                                                  CMakeFiles/kiibohd.dir/Scan/Devices/MatrixARMPeriodic/matrix_scan.c.obj
                                                  CMakeFiles/kiibohd.dir/Scan/Devices/ISSILed/led_scan.c.obj
                                                  CMakeFiles/kiibohd.dir/main.c.obj
CLILineBufferCurrent                              CMakeFiles/kiibohd.dir/Debug/cli/cli.c.obj
                                                  CMakeFiles/kiibohd.dir/Output/USB/output_usb.c.obj
                                                  CMakeFiles/kiibohd.dir/Output/Interface/output_gen.c.obj
                                                  CMakeFiles/kiibohd.dir/Output/HID-IO/hidio_com.c.obj
                                                  CMakeFiles/kiibohd.dir/Macro/PixelMap/pixel.c.obj
                                                  CMakeFiles/kiibohd.dir/Macro/PartialMap/macro.c.obj
                                                  CMakeFiles/kiibohd.dir/Scan/Infinity_Ergodox/scan_loop.c.obj
                                                  CMakeFiles/kiibohd.dir/Scan/Devices/UARTConnect/connect_scan.c.obj
                                                  CMakeFiles/kiibohd.dir/Scan/Devices/STLcd/lcd_scan.c.obj
                                                  CMakeFiles/kiibohd.dir/Scan/Devices/MatrixARMPeriodic/matrix_scan.c.obj
                                                  CMakeFiles/kiibohd.dir/Scan/Devices/ISSILed/led_scan.c.obj
                                                  CMakeFiles/kiibohd.dir/main.c.obj
CLI_argumentIsolation                             CMakeFiles/kiibohd.dir/Debug/cli/cli.c.obj
                                                  CMakeFiles/kiibohd.dir/Output/USB/output_usb.c.obj
                                                  CMakeFiles/kiibohd.dir/Output/Interface/output_gen.c.obj
                                                  CMakeFiles/kiibohd.dir/Macro/PixelMap/pixel.c.obj
                                                  CMakeFiles/kiibohd.dir/Macro/PartialMap/macro.c.obj
                                                  CMakeFiles/kiibohd.dir/Scan/Devices/UARTConnect/connect_scan.c.obj
                                                  CMakeFiles/kiibohd.dir/Scan/Devices/STLcd/lcd_scan.c.obj
                                                  CMakeFiles/kiibohd.dir/Scan/Devices/MatrixARMPeriodic/matrix_scan.c.obj
                                                  CMakeFiles/kiibohd.dir/Scan/Devices/ISSILed/led_scan.c.obj
CLI_commandLookup                                 CMakeFiles/kiibohd.dir/Debug/cli/cli.c.obj
CLI_init                                          CMakeFiles/kiibohd.dir/Debug/cli/cli.c.obj
                                                  CMakeFiles/kiibohd.dir/main.c.obj
CLI_process                                       CMakeFiles/kiibohd.dir/Debug/cli/cli.c.obj
                                                  CMakeFiles/kiibohd.dir/main.c.obj
CLI_registerDictionary                            CMakeFiles/kiibohd.dir/Debug/cli/cli.c.obj
                                                  CMakeFiles/kiibohd.dir/Output/USB/output_usb.c.obj
                                                  CMakeFiles/kiibohd.dir/Output/Interface/output_gen.c.obj
                                                  CMakeFiles/kiibohd.dir/Output/HID-IO/hidio_com.c.obj
                                                  CMakeFiles/kiibohd.dir/Macro/PixelMap/pixel.c.obj
                                                  CMakeFiles/kiibohd.dir/Macro/PartialMap/macro.c.obj
                                                  CMakeFiles/kiibohd.dir/Scan/Devices/UARTConnect/connect_scan.c.obj
                                                  CMakeFiles/kiibohd.dir/Scan/Devices/STLcd/lcd_scan.c.obj
                                                  CMakeFiles/kiibohd.dir/Scan/Devices/MatrixARMPeriodic/matrix_scan.c.obj
                                                  CMakeFiles/kiibohd.dir/Scan/Devices/ISSILed/led_scan.c.obj
CLI_retreiveHistory                               CMakeFiles/kiibohd.dir/Debug/cli/cli.c.obj
CLI_saveHistory                                   CMakeFiles/kiibohd.dir/Debug/cli/cli.c.obj
CLI_tabCompletion                                 CMakeFiles/kiibohd.dir/Debug/cli/cli.c.obj
CLI_wrap                                          CMakeFiles/kiibohd.dir/Debug/cli/cli.c.obj
CapabilitiesList                                  CMakeFiles/kiibohd.dir/Macro/PartialMap/macro.c.obj
                                                  CMakeFiles/kiibohd.dir/Macro/PartialMap/trigger.c.obj
                                                  CMakeFiles/kiibohd.dir/Macro/PartialMap/result.c.obj
                                                  CMakeFiles/kiibohd.dir/Scan/Devices/UARTConnect/connect_scan.c.obj
                                                  CMakeFiles/kiibohd.dir/Scan/Devices/STLcd/lcd_scan.c.obj
                                                  CMakeFiles/kiibohd.dir/Scan/Devices/ISSILed/led_scan.c.obj
ChipVersion_cpuid_implementor                     CMakeFiles/kiibohd.dir/Debug/cli/cli.c.obj
ChipVersion_cpuid_partno                          CMakeFiles/kiibohd.dir/Debug/cli/cli.c.obj
ChipVersion_eepromsize                            CMakeFiles/kiibohd.dir/Debug/cli/cli.c.obj
ChipVersion_familyid                              CMakeFiles/kiibohd.dir/Debug/cli/cli.c.obj
ChipVersion_lookup                                CMakeFiles/kiibohd.dir/Debug/cli/cli.c.obj
ChipVersion_nvmsize                               CMakeFiles/kiibohd.dir/Debug/cli/cli.c.obj
ChipVersion_pflashsize                            CMakeFiles/kiibohd.dir/Debug/cli/cli.c.obj
ChipVersion_pincount                              CMakeFiles/kiibohd.dir/Debug/cli/cli.c.obj
ChipVersion_ramsize                               CMakeFiles/kiibohd.dir/Debug/cli/cli.c.obj
Connect_addBytes                                  CMakeFiles/kiibohd.dir/Scan/Devices/UARTConnect/connect_scan.c.obj
Connect_baud                                      CMakeFiles/kiibohd.dir/Scan/Devices/UARTConnect/connect_scan.c.obj
Connect_baudFine                                  CMakeFiles/kiibohd.dir/Scan/Devices/UARTConnect/connect_scan.c.obj
Connect_cableChecksMaster                         CMakeFiles/kiibohd.dir/Scan/Devices/UARTConnect/connect_scan.c.obj
Connect_cableChecksSlave                          CMakeFiles/kiibohd.dir/Scan/Devices/UARTConnect/connect_scan.c.obj
Connect_cableFaultsMaster                         CMakeFiles/kiibohd.dir/Scan/Devices/UARTConnect/connect_scan.c.obj
Connect_cableFaultsSlave                          CMakeFiles/kiibohd.dir/Scan/Devices/UARTConnect/connect_scan.c.obj
Connect_cableOkMaster                             CMakeFiles/kiibohd.dir/Scan/Devices/UARTConnect/connect_scan.c.obj
Connect_cableOkSlave                              CMakeFiles/kiibohd.dir/Scan/Devices/UARTConnect/connect_scan.c.obj
Connect_currentChange                             CMakeFiles/kiibohd.dir/Scan/Devices/UARTConnect/connect_scan.c.obj
                                                  CMakeFiles/kiibohd.dir/Scan/Infinity_Ergodox/scan_loop.c.obj
Connect_debug                                     CMakeFiles/kiibohd.dir/Scan/Devices/UARTConnect/connect_scan.c.obj
Connect_id                                        CMakeFiles/kiibohd.dir/Scan/Devices/UARTConnect/connect_scan.c.obj
                                                  CMakeFiles/kiibohd.dir/Macro/PartialMap/macro.c.obj
                                                  CMakeFiles/kiibohd.dir/Scan/Devices/ISSILed/led_scan.c.obj
Connect_lastCheck                                 CMakeFiles/kiibohd.dir/Scan/Devices/UARTConnect/connect_scan.c.obj
Connect_master                                    CMakeFiles/kiibohd.dir/Scan/Devices/UARTConnect/connect_scan.c.obj
                                                  CMakeFiles/kiibohd.dir/Macro/PartialMap/macro.c.obj
                                                  CMakeFiles/kiibohd.dir/Scan/Devices/STLcd/lcd_scan.c.obj
Connect_maxId                                     CMakeFiles/kiibohd.dir/Scan/Devices/UARTConnect/connect_scan.c.obj
Connect_override                                  CMakeFiles/kiibohd.dir/Scan/Devices/UARTConnect/connect_scan.c.obj
Connect_receiveFunctions                          CMakeFiles/kiibohd.dir/Scan/Devices/UARTConnect/connect_scan.c.obj
Connect_receive_Animation                         CMakeFiles/kiibohd.dir/Scan/Devices/UARTConnect/connect_scan.c.obj
Connect_receive_CableCheck                        CMakeFiles/kiibohd.dir/Scan/Devices/UARTConnect/connect_scan.c.obj
Connect_receive_IdEnumeration                     CMakeFiles/kiibohd.dir/Scan/Devices/UARTConnect/connect_scan.c.obj
Connect_receive_IdReport                          CMakeFiles/kiibohd.dir/Scan/Devices/UARTConnect/connect_scan.c.obj
Connect_receive_IdRequest                         CMakeFiles/kiibohd.dir/Scan/Devices/UARTConnect/connect_scan.c.obj
Connect_receive_RemoteCapability                  CMakeFiles/kiibohd.dir/Scan/Devices/UARTConnect/connect_scan.c.obj
Connect_receive_RemoteCapabilityArgs              CMakeFiles/kiibohd.dir/Scan/Devices/UARTConnect/connect_scan.c.obj
Connect_receive_RemoteCapabilityBuffer            CMakeFiles/kiibohd.dir/Scan/Devices/UARTConnect/connect_scan.c.obj
Connect_receive_ScanCode                          CMakeFiles/kiibohd.dir/Scan/Devices/UARTConnect/connect_scan.c.obj
Connect_receive_ScanCodeBuffer                    CMakeFiles/kiibohd.dir/Scan/Devices/UARTConnect/connect_scan.c.obj
Connect_receive_ScanCodeBufferPos                 CMakeFiles/kiibohd.dir/Scan/Devices/UARTConnect/connect_scan.c.obj
Connect_receive_ScanCodeDeviceId                  CMakeFiles/kiibohd.dir/Scan/Devices/UARTConnect/connect_scan.c.obj
Connect_reset                                     CMakeFiles/kiibohd.dir/Scan/Devices/UARTConnect/connect_scan.c.obj
Connect_rx_process                                CMakeFiles/kiibohd.dir/Scan/Devices/UARTConnect/connect_scan.c.obj
Connect_scan                                      CMakeFiles/kiibohd.dir/Scan/Devices/UARTConnect/connect_scan.c.obj
                                                  CMakeFiles/kiibohd.dir/Scan/Infinity_Ergodox/scan_loop.c.obj
Connect_send_Animation                            CMakeFiles/kiibohd.dir/Scan/Devices/UARTConnect/connect_scan.c.obj
Connect_send_CableCheck                           CMakeFiles/kiibohd.dir/Scan/Devices/UARTConnect/connect_scan.c.obj
Connect_send_IdEnumeration                        CMakeFiles/kiibohd.dir/Scan/Devices/UARTConnect/connect_scan.c.obj
Connect_send_IdReport                             CMakeFiles/kiibohd.dir/Scan/Devices/UARTConnect/connect_scan.c.obj
Connect_send_IdRequest                            CMakeFiles/kiibohd.dir/Scan/Devices/UARTConnect/connect_scan.c.obj
Connect_send_Idle                                 CMakeFiles/kiibohd.dir/Scan/Devices/UARTConnect/connect_scan.c.obj
Connect_send_RemoteCapability                     CMakeFiles/kiibohd.dir/Scan/Devices/UARTConnect/connect_scan.c.obj
                                                  CMakeFiles/kiibohd.dir/Scan/Devices/STLcd/lcd_scan.c.obj
                                                  CMakeFiles/kiibohd.dir/Scan/Devices/ISSILed/led_scan.c.obj
Connect_send_ScanCode                             CMakeFiles/kiibohd.dir/Scan/Devices/UARTConnect/connect_scan.c.obj
                                                  CMakeFiles/kiibohd.dir/Macro/PartialMap/macro.c.obj
Connect_setup                                     CMakeFiles/kiibohd.dir/Scan/Devices/UARTConnect/connect_scan.c.obj
                                                  CMakeFiles/kiibohd.dir/Scan/Infinity_Ergodox/scan_loop.c.obj
HIDIO_Id_List                                     CMakeFiles/kiibohd.dir/Output/HID-IO/hidio_com.c.obj
HIDIO_Id_List_Size                                CMakeFiles/kiibohd.dir/Output/HID-IO/hidio_com.c.obj
HIDIO_Packet_Size                                 CMakeFiles/kiibohd.dir/Output/HID-IO/hidio_com.c.obj
HIDIO_ack_buf                                     CMakeFiles/kiibohd.dir/Output/HID-IO/hidio_com.c.obj
HIDIO_ack_buf_data                                CMakeFiles/kiibohd.dir/Output/HID-IO/hidio_com.c.obj
HIDIO_ack_send_buf                                CMakeFiles/kiibohd.dir/Output/HID-IO/hidio_com.c.obj
HIDIO_ack_send_data                               CMakeFiles/kiibohd.dir/Output/HID-IO/hidio_com.c.obj
HIDIO_assembly_buf                                CMakeFiles/kiibohd.dir/Output/HID-IO/hidio_com.c.obj
HIDIO_assembly_buf_data                           CMakeFiles/kiibohd.dir/Output/HID-IO/hidio_com.c.obj
HIDIO_buffer_free_bytes                           CMakeFiles/kiibohd.dir/Output/HID-IO/hidio_com.c.obj
HIDIO_buffer_generate_packet                      CMakeFiles/kiibohd.dir/Output/HID-IO/hidio_com.c.obj
HIDIO_buffer_id                                   CMakeFiles/kiibohd.dir/Output/HID-IO/hidio_com.c.obj
HIDIO_buffer_id_width                             CMakeFiles/kiibohd.dir/Output/HID-IO/hidio_com.c.obj
HIDIO_buffer_munch                                CMakeFiles/kiibohd.dir/Output/HID-IO/hidio_com.c.obj
HIDIO_buffer_pop_bytes                            CMakeFiles/kiibohd.dir/Output/HID-IO/hidio_com.c.obj
HIDIO_buffer_position                             CMakeFiles/kiibohd.dir/Output/HID-IO/hidio_com.c.obj
HIDIO_buffer_push_byte                            CMakeFiles/kiibohd.dir/Output/HID-IO/hidio_com.c.obj
HIDIO_call_id                                     CMakeFiles/kiibohd.dir/Output/HID-IO/hidio_com.c.obj
HIDIO_id_width                                    CMakeFiles/kiibohd.dir/Output/HID-IO/hidio_com.c.obj
HIDIO_info_1_call                                 CMakeFiles/kiibohd.dir/Output/HID-IO/hidio_com.c.obj
HIDIO_info_1_reply                                CMakeFiles/kiibohd.dir/Output/HID-IO/hidio_com.c.obj
HIDIO_info_1_request                              CMakeFiles/kiibohd.dir/Output/HID-IO/hidio_com.c.obj
HIDIO_invalid_65535_request                       CMakeFiles/kiibohd.dir/Output/HID-IO/hidio_com.c.obj
HIDIO_max_payload                                 CMakeFiles/kiibohd.dir/Output/HID-IO/hidio_com.c.obj
HIDIO_modify_buffer                               CMakeFiles/kiibohd.dir/Output/HID-IO/hidio_com.c.obj
HIDIO_nopayload_ack                               CMakeFiles/kiibohd.dir/Output/HID-IO/hidio_com.c.obj
HIDIO_packet_interrupt                            CMakeFiles/kiibohd.dir/Output/HID-IO/hidio_com.c.obj
HIDIO_packet_size                                 CMakeFiles/kiibohd.dir/Output/HID-IO/hidio_com.c.obj
HIDIO_payload_start                               CMakeFiles/kiibohd.dir/Output/HID-IO/hidio_com.c.obj
HIDIO_process                                     CMakeFiles/kiibohd.dir/Output/HID-IO/hidio_com.c.obj
                                                  CMakeFiles/kiibohd.dir/Output/USB/output_usb.c.obj
HIDIO_process_incoming_packet                     CMakeFiles/kiibohd.dir/Output/HID-IO/hidio_com.c.obj
HIDIO_register_id                                 CMakeFiles/kiibohd.dir/Output/HID-IO/hidio_com.c.obj
HIDIO_reply_id                                    CMakeFiles/kiibohd.dir/Output/HID-IO/hidio_com.c.obj
HIDIO_setup                                       CMakeFiles/kiibohd.dir/Output/HID-IO/hidio_com.c.obj
                                                  CMakeFiles/kiibohd.dir/Output/USB/output_usb.c.obj
HIDIO_supported_0_call                            CMakeFiles/kiibohd.dir/Output/HID-IO/hidio_com.c.obj
HIDIO_supported_0_reply                           CMakeFiles/kiibohd.dir/Output/HID-IO/hidio_com.c.obj
HIDIO_supported_0_request                         CMakeFiles/kiibohd.dir/Output/HID-IO/hidio_com.c.obj
HIDIO_test_2_call                                 CMakeFiles/kiibohd.dir/Output/HID-IO/hidio_com.c.obj
HIDIO_test_2_reply                                CMakeFiles/kiibohd.dir/Output/HID-IO/hidio_com.c.obj
HIDIO_test_2_request                              CMakeFiles/kiibohd.dir/Output/HID-IO/hidio_com.c.obj
HIDIO_tx_buf                                      CMakeFiles/kiibohd.dir/Output/HID-IO/hidio_com.c.obj
HIDIO_tx_buf_data                                 CMakeFiles/kiibohd.dir/Output/HID-IO/hidio_com.c.obj
InterconnectOffsetList                            CMakeFiles/kiibohd.dir/Macro/PartialMap/macro.c.obj
                                                  CMakeFiles/kiibohd.dir/Scan/Devices/UARTConnect/connect_scan.c.obj
Key_Positions                                     CMakeFiles/kiibohd.dir/Macro/PartialMap/macro.c.obj
LCD_clear                                         CMakeFiles/kiibohd.dir/Scan/Devices/STLcd/lcd_scan.c.obj
LCD_clearPage                                     CMakeFiles/kiibohd.dir/Scan/Devices/STLcd/lcd_scan.c.obj
LCD_currentChange                                 CMakeFiles/kiibohd.dir/Scan/Devices/STLcd/lcd_scan.c.obj
                                                  CMakeFiles/kiibohd.dir/Scan/Infinity_Ergodox/scan_loop.c.obj
LCD_initialize                                    CMakeFiles/kiibohd.dir/Scan/Devices/STLcd/lcd_scan.c.obj
LCD_layerStackExact                               CMakeFiles/kiibohd.dir/Scan/Devices/STLcd/lcd_scan.c.obj
LCD_layerStackExact_capability                    CMakeFiles/kiibohd.dir/Scan/Devices/STLcd/lcd_scan.c.obj
                                                  CMakeFiles/kiibohd.dir/Macro/PartialMap/macro.c.obj
LCD_layerStackExact_size                          CMakeFiles/kiibohd.dir/Scan/Devices/STLcd/lcd_scan.c.obj
LCD_layerStack_capability                         CMakeFiles/kiibohd.dir/Scan/Devices/STLcd/lcd_scan.c.obj
                                                  CMakeFiles/kiibohd.dir/Macro/PartialMap/macro.c.obj
LCD_layerStack_prevSize                           CMakeFiles/kiibohd.dir/Scan/Devices/STLcd/lcd_scan.c.obj
LCD_layerStack_prevTop                            CMakeFiles/kiibohd.dir/Scan/Devices/STLcd/lcd_scan.c.obj
LCD_scan                                          CMakeFiles/kiibohd.dir/Scan/Devices/STLcd/lcd_scan.c.obj
                                                  CMakeFiles/kiibohd.dir/Scan/Infinity_Ergodox/scan_loop.c.obj
LCD_setup                                         CMakeFiles/kiibohd.dir/Scan/Devices/STLcd/lcd_scan.c.obj
                                                  CMakeFiles/kiibohd.dir/Scan/Infinity_Ergodox/scan_loop.c.obj
LCD_writeControlReg                               CMakeFiles/kiibohd.dir/Scan/Devices/STLcd/lcd_scan.c.obj
LCD_writeDataReg                                  CMakeFiles/kiibohd.dir/Scan/Devices/STLcd/lcd_scan.c.obj
LCD_writeDisplayReg                               CMakeFiles/kiibohd.dir/Scan/Devices/STLcd/lcd_scan.c.obj
LED_ChannelMapping                                CMakeFiles/kiibohd.dir/Scan/Devices/ISSILed/led_scan.c.obj
LED_brightness                                    CMakeFiles/kiibohd.dir/Scan/Devices/ISSILed/led_scan.c.obj
LED_chipSend                                      CMakeFiles/kiibohd.dir/Scan/Devices/ISSILed/led_scan.c.obj
LED_control                                       CMakeFiles/kiibohd.dir/Scan/Devices/ISSILed/led_scan.c.obj
LED_control_capability                            CMakeFiles/kiibohd.dir/Scan/Devices/ISSILed/led_scan.c.obj
                                                  CMakeFiles/kiibohd.dir/Macro/PartialMap/macro.c.obj
LED_currentChange                                 CMakeFiles/kiibohd.dir/Scan/Devices/ISSILed/led_scan.c.obj
                                                  CMakeFiles/kiibohd.dir/Scan/Infinity_Ergodox/scan_loop.c.obj
LED_currentEvent                                  CMakeFiles/kiibohd.dir/Scan/Devices/ISSILed/led_scan.c.obj
LED_displayFPS                                    CMakeFiles/kiibohd.dir/Scan/Devices/ISSILed/led_scan.c.obj
LED_enable                                        CMakeFiles/kiibohd.dir/Scan/Devices/ISSILed/led_scan.c.obj
LED_framerate                                     CMakeFiles/kiibohd.dir/Scan/Devices/ISSILed/led_scan.c.obj
LED_ledEnableMask                                 CMakeFiles/kiibohd.dir/Scan/Devices/ISSILed/led_scan.c.obj
LED_linkedSend                                    CMakeFiles/kiibohd.dir/Scan/Devices/ISSILed/led_scan.c.obj
LED_pageBuffer                                    CMakeFiles/kiibohd.dir/generatedPixelmap.c.obj
                                                  CMakeFiles/kiibohd.dir/Scan/Devices/ISSILed/led_scan.c.obj
LED_pageBuffer_brightness                         CMakeFiles/kiibohd.dir/Scan/Devices/ISSILed/led_scan.c.obj
LED_pause                                         CMakeFiles/kiibohd.dir/Scan/Devices/ISSILed/led_scan.c.obj
LED_readReg                                       CMakeFiles/kiibohd.dir/Scan/Devices/ISSILed/led_scan.c.obj
LED_reset                                         CMakeFiles/kiibohd.dir/Scan/Devices/ISSILed/led_scan.c.obj
LED_scan                                          CMakeFiles/kiibohd.dir/Scan/Devices/ISSILed/led_scan.c.obj
                                                  CMakeFiles/kiibohd.dir/Scan/Infinity_Ergodox/scan_loop.c.obj
LED_sendPage                                      CMakeFiles/kiibohd.dir/Scan/Devices/ISSILed/led_scan.c.obj
LED_setup                                         CMakeFiles/kiibohd.dir/Scan/Devices/ISSILed/led_scan.c.obj
                                                  CMakeFiles/kiibohd.dir/Scan/Infinity_Ergodox/scan_loop.c.obj
LED_setupPage                                     CMakeFiles/kiibohd.dir/Scan/Devices/ISSILed/led_scan.c.obj
LED_shortOpenDetect                               CMakeFiles/kiibohd.dir/Scan/Devices/ISSILed/led_scan.c.obj
LED_syncReg                                       CMakeFiles/kiibohd.dir/Scan/Devices/ISSILed/led_scan.c.obj
LED_timePrev                                      CMakeFiles/kiibohd.dir/Scan/Devices/ISSILed/led_scan.c.obj
LED_writeReg                                      CMakeFiles/kiibohd.dir/Scan/Devices/ISSILed/led_scan.c.obj
LED_zeroControlPages                              CMakeFiles/kiibohd.dir/Scan/Devices/ISSILed/led_scan.c.obj
LED_zeroPages                                     CMakeFiles/kiibohd.dir/Scan/Devices/ISSILed/led_scan.c.obj
Latency_add_resource                              CMakeFiles/kiibohd.dir/Debug/latency/latency.c.obj
                                                  CMakeFiles/kiibohd.dir/Output/USB/output_usb.c.obj
                                                  CMakeFiles/kiibohd.dir/Output/HID-IO/hidio_com.c.obj
                                                  CMakeFiles/kiibohd.dir/Macro/PixelMap/pixel.c.obj
                                                  CMakeFiles/kiibohd.dir/Macro/PartialMap/macro.c.obj
                                                  CMakeFiles/kiibohd.dir/Scan/Devices/UARTConnect/connect_scan.c.obj
                                                  CMakeFiles/kiibohd.dir/Scan/Devices/STLcd/lcd_scan.c.obj
                                                  CMakeFiles/kiibohd.dir/Scan/Devices/MatrixARMPeriodic/matrix_scan.c.obj
                                                  CMakeFiles/kiibohd.dir/Scan/Devices/ISSILed/led_scan.c.obj
Latency_end_time                                  CMakeFiles/kiibohd.dir/Debug/latency/latency.c.obj
                                                  CMakeFiles/kiibohd.dir/Output/USB/output_usb.c.obj
                                                  CMakeFiles/kiibohd.dir/Output/HID-IO/hidio_com.c.obj
                                                  CMakeFiles/kiibohd.dir/Macro/PixelMap/pixel.c.obj
                                                  CMakeFiles/kiibohd.dir/Macro/PartialMap/macro.c.obj
                                                  CMakeFiles/kiibohd.dir/Scan/Devices/UARTConnect/connect_scan.c.obj
                                                  CMakeFiles/kiibohd.dir/Scan/Devices/STLcd/lcd_scan.c.obj
                                                  CMakeFiles/kiibohd.dir/Scan/Devices/MatrixARMPeriodic/matrix_scan.c.obj
                                                  CMakeFiles/kiibohd.dir/Scan/Devices/ISSILed/led_scan.c.obj
Latency_init                                      CMakeFiles/kiibohd.dir/Debug/latency/latency.c.obj
                                                  CMakeFiles/kiibohd.dir/main.c.obj
Latency_query                                     CMakeFiles/kiibohd.dir/Debug/latency/latency.c.obj
                                                  CMakeFiles/kiibohd.dir/Debug/cli/cli.c.obj
Latency_query_name                                CMakeFiles/kiibohd.dir/Debug/latency/latency.c.obj
                                                  CMakeFiles/kiibohd.dir/Debug/cli/cli.c.obj
Latency_resources                                 CMakeFiles/kiibohd.dir/Debug/latency/latency.c.obj
                                                  CMakeFiles/kiibohd.dir/Debug/cli/cli.c.obj
Latency_start_time                                CMakeFiles/kiibohd.dir/Debug/latency/latency.c.obj
                                                  CMakeFiles/kiibohd.dir/Output/USB/output_usb.c.obj
                                                  CMakeFiles/kiibohd.dir/Output/HID-IO/hidio_com.c.obj
                                                  CMakeFiles/kiibohd.dir/Macro/PixelMap/pixel.c.obj
                                                  CMakeFiles/kiibohd.dir/Macro/PartialMap/macro.c.obj
                                                  CMakeFiles/kiibohd.dir/Scan/Devices/UARTConnect/connect_scan.c.obj
                                                  CMakeFiles/kiibohd.dir/Scan/Devices/STLcd/lcd_scan.c.obj
                                                  CMakeFiles/kiibohd.dir/Scan/Devices/MatrixARMPeriodic/matrix_scan.c.obj
                                                  CMakeFiles/kiibohd.dir/Scan/Devices/ISSILed/led_scan.c.obj
LayerIndex                                        CMakeFiles/kiibohd.dir/Macro/PartialMap/macro.c.obj
LayerState                                        CMakeFiles/kiibohd.dir/Macro/PartialMap/macro.c.obj
Macro_analogState                                 CMakeFiles/kiibohd.dir/Macro/PartialMap/macro.c.obj
Macro_animationState                              CMakeFiles/kiibohd.dir/Macro/PartialMap/macro.c.obj
Macro_appendResultMacroToPendingList              CMakeFiles/kiibohd.dir/Macro/PartialMap/macro.c.obj
                                                  CMakeFiles/kiibohd.dir/Macro/PartialMap/trigger.c.obj
Macro_evalResultMacro                             CMakeFiles/kiibohd.dir/Macro/PartialMap/result.c.obj
Macro_isLongResultMacro                           CMakeFiles/kiibohd.dir/Macro/PartialMap/trigger.c.obj
Macro_keyState                                    CMakeFiles/kiibohd.dir/Macro/PartialMap/macro.c.obj
                                                  CMakeFiles/kiibohd.dir/Scan/Devices/MatrixARMPeriodic/matrix_scan.c.obj
Macro_layerLatch_capability                       CMakeFiles/kiibohd.dir/Macro/PartialMap/macro.c.obj
Macro_layerLock_capability                        CMakeFiles/kiibohd.dir/Macro/PartialMap/macro.c.obj
Macro_layerLookup                                 CMakeFiles/kiibohd.dir/Macro/PartialMap/macro.c.obj
                                                  CMakeFiles/kiibohd.dir/Macro/PartialMap/trigger.c.obj
Macro_layerRotate_capability                      CMakeFiles/kiibohd.dir/Macro/PartialMap/macro.c.obj
Macro_layerShift_capability                       CMakeFiles/kiibohd.dir/Macro/PartialMap/macro.c.obj
Macro_layerState                                  CMakeFiles/kiibohd.dir/Macro/PartialMap/macro.c.obj
Macro_layerState_capability                       CMakeFiles/kiibohd.dir/Macro/PartialMap/macro.c.obj
Macro_ledState                                    CMakeFiles/kiibohd.dir/Macro/PartialMap/macro.c.obj
Macro_periodic                                    CMakeFiles/kiibohd.dir/Macro/PartialMap/macro.c.obj
                                                  CMakeFiles/kiibohd.dir/main.c.obj
Macro_poll                                        CMakeFiles/kiibohd.dir/Macro/PartialMap/macro.c.obj
                                                  CMakeFiles/kiibohd.dir/main.c.obj
Macro_pressReleaseAdd                             CMakeFiles/kiibohd.dir/Macro/PartialMap/macro.c.obj
                                                  CMakeFiles/kiibohd.dir/Scan/Devices/UARTConnect/connect_scan.c.obj
Macro_rotationLayer                               CMakeFiles/kiibohd.dir/Macro/PartialMap/macro.c.obj
Macro_setup                                       CMakeFiles/kiibohd.dir/Macro/PartialMap/macro.c.obj
                                                  CMakeFiles/kiibohd.dir/main.c.obj
Macro_showSchedule                                CMakeFiles/kiibohd.dir/Macro/PartialMap/macro.c.obj
Macro_showScheduleParam                           CMakeFiles/kiibohd.dir/Macro/PartialMap/macro.c.obj
Macro_showScheduleType                            CMakeFiles/kiibohd.dir/Macro/PartialMap/macro.c.obj
Macro_showTriggerEvent                            CMakeFiles/kiibohd.dir/Macro/PartialMap/macro.c.obj
Macro_showTriggerGuide                            CMakeFiles/kiibohd.dir/Macro/PartialMap/macro.c.obj
Macro_showTriggerType                             CMakeFiles/kiibohd.dir/Macro/PartialMap/macro.c.obj
Matrix_cols                                       CMakeFiles/kiibohd.dir/Scan/Devices/MatrixARMPeriodic/matrix_scan.c.obj
Matrix_currentChange                              CMakeFiles/kiibohd.dir/Scan/Devices/MatrixARMPeriodic/matrix_scan.c.obj
                                                  CMakeFiles/kiibohd.dir/Scan/Infinity_Ergodox/scan_loop.c.obj
Matrix_keyPositionDebug                           CMakeFiles/kiibohd.dir/Scan/Devices/MatrixARMPeriodic/matrix_scan.c.obj
Matrix_pin                                        CMakeFiles/kiibohd.dir/Scan/Devices/MatrixARMPeriodic/matrix_scan.c.obj
Matrix_rows                                       CMakeFiles/kiibohd.dir/Scan/Devices/MatrixARMPeriodic/matrix_scan.c.obj
Matrix_setup                                      CMakeFiles/kiibohd.dir/Scan/Devices/MatrixARMPeriodic/matrix_scan.c.obj
                                                  CMakeFiles/kiibohd.dir/Scan/Infinity_Ergodox/scan_loop.c.obj
Matrix_single_scan                                CMakeFiles/kiibohd.dir/Scan/Devices/MatrixARMPeriodic/matrix_scan.c.obj
                                                  CMakeFiles/kiibohd.dir/Scan/Infinity_Ergodox/scan_loop.c.obj
Matrix_start                                      CMakeFiles/kiibohd.dir/Scan/Devices/MatrixARMPeriodic/matrix_scan.c.obj
                                                  CMakeFiles/kiibohd.dir/Scan/Infinity_Ergodox/scan_loop.c.obj
Matrix_totalColumns                               CMakeFiles/kiibohd.dir/Scan/Devices/MatrixARMPeriodic/matrix_scan.c.obj
Matrix_type                                       CMakeFiles/kiibohd.dir/Scan/Devices/MatrixARMPeriodic/matrix_scan.c.obj
OutputGen_setup                                   CMakeFiles/kiibohd.dir/Output/Interface/output_gen.c.obj
                                                  CMakeFiles/kiibohd.dir/Output/USB/output_com.c.obj
Output_Available                                  CMakeFiles/kiibohd.dir/Output/Interface/output_gen.c.obj
                                                  CMakeFiles/kiibohd.dir/Output/USB/arm/usb_dev.c.obj
                                                  CMakeFiles/kiibohd.dir/Scan/Infinity_Ergodox/scan_loop.c.obj
                                                  CMakeFiles/kiibohd.dir/Scan/Devices/UARTConnect/connect_scan.c.obj
Output_DebugMode                                  CMakeFiles/kiibohd.dir/Output/Interface/output_gen.c.obj
                                                  CMakeFiles/kiibohd.dir/Output/USB/arm/usb_keyboard.c.obj
Output_ExtCurrent_Available                       CMakeFiles/kiibohd.dir/Output/Interface/output_gen.c.obj
Output_USBCurrent_Available                       CMakeFiles/kiibohd.dir/Output/Interface/output_gen.c.obj
Output_availablechar                              CMakeFiles/kiibohd.dir/Output/USB/output_com.c.obj
                                                  CMakeFiles/kiibohd.dir/Debug/cli/cli.c.obj
Output_consCtrlSend_capability                    CMakeFiles/kiibohd.dir/Output/USB/output_usb.c.obj
                                                  CMakeFiles/kiibohd.dir/Output/Interface/output_gen.c.obj
                                                  CMakeFiles/kiibohd.dir/Macro/PartialMap/macro.c.obj
Output_current_available                          CMakeFiles/kiibohd.dir/Output/Interface/output_gen.c.obj
Output_firmwareReload                             CMakeFiles/kiibohd.dir/Output/USB/output_com.c.obj
                                                  CMakeFiles/kiibohd.dir/Output/Interface/output_gen.c.obj
Output_flashMode_capability                       CMakeFiles/kiibohd.dir/Output/Interface/output_gen.c.obj
                                                  CMakeFiles/kiibohd.dir/Macro/PartialMap/macro.c.obj
Output_getchar                                    CMakeFiles/kiibohd.dir/Output/USB/output_com.c.obj
                                                  CMakeFiles/kiibohd.dir/Debug/cli/cli.c.obj
Output_ignored_capability                         CMakeFiles/kiibohd.dir/Output/Interface/output_gen.c.obj
Output_kbdProtocolBoot_capability                 CMakeFiles/kiibohd.dir/Output/USB/output_usb.c.obj
                                                  CMakeFiles/kiibohd.dir/Output/Interface/output_gen.c.obj
                                                  CMakeFiles/kiibohd.dir/Macro/PartialMap/macro.c.obj
Output_kbdProtocolNKRO_capability                 CMakeFiles/kiibohd.dir/Output/USB/output_usb.c.obj
                                                  CMakeFiles/kiibohd.dir/Output/Interface/output_gen.c.obj
                                                  CMakeFiles/kiibohd.dir/Macro/PartialMap/macro.c.obj
Output_noneSend_capability                        CMakeFiles/kiibohd.dir/Output/USB/output_usb.c.obj
                                                  CMakeFiles/kiibohd.dir/Output/Interface/output_gen.c.obj
                                                  CMakeFiles/kiibohd.dir/Macro/PartialMap/macro.c.obj
Output_periodic                                   CMakeFiles/kiibohd.dir/Output/USB/output_com.c.obj
                                                  CMakeFiles/kiibohd.dir/main.c.obj
Output_poll                                       CMakeFiles/kiibohd.dir/Output/USB/output_com.c.obj
                                                  CMakeFiles/kiibohd.dir/main.c.obj
Output_putchar                                    CMakeFiles/kiibohd.dir/Output/USB/output_com.c.obj
                                                  CMakeFiles/kiibohd.dir/Debug/print/print.c.obj
Output_putstr                                     CMakeFiles/kiibohd.dir/Output/USB/output_com.c.obj
                                                  CMakeFiles/kiibohd.dir/Debug/print/print.c.obj
                                                  CMakeFiles/kiibohd.dir/Debug/cli/cli.c.obj
                                                  CMakeFiles/kiibohd.dir/Macro/PartialMap/macro.c.obj
                                                  CMakeFiles/kiibohd.dir/Scan/Devices/UARTConnect/connect_scan.c.obj
Output_rawio_availablechar                        CMakeFiles/kiibohd.dir/Output/USB/output_com.c.obj
                                                  CMakeFiles/kiibohd.dir/Output/HID-IO/hidio_com.c.obj
Output_rawio_getbuffer                            CMakeFiles/kiibohd.dir/Output/USB/output_com.c.obj
                                                  CMakeFiles/kiibohd.dir/Output/HID-IO/hidio_com.c.obj
Output_rawio_sendbuffer                           CMakeFiles/kiibohd.dir/Output/USB/output_com.c.obj
                                                  CMakeFiles/kiibohd.dir/Output/HID-IO/hidio_com.c.obj
Output_setup                                      CMakeFiles/kiibohd.dir/Output/USB/output_com.c.obj
                                                  CMakeFiles/kiibohd.dir/main.c.obj
Output_softReset                                  CMakeFiles/kiibohd.dir/Output/USB/output_com.c.obj
                                                  CMakeFiles/kiibohd.dir/Debug/cli/cli.c.obj
Output_sysCtrlSend_capability                     CMakeFiles/kiibohd.dir/Output/USB/output_usb.c.obj
                                                  CMakeFiles/kiibohd.dir/Output/Interface/output_gen.c.obj
                                                  CMakeFiles/kiibohd.dir/Macro/PartialMap/macro.c.obj
Output_toggleKbdProtocol_capability               CMakeFiles/kiibohd.dir/Output/USB/output_usb.c.obj
                                                  CMakeFiles/kiibohd.dir/Output/Interface/output_gen.c.obj
                                                  CMakeFiles/kiibohd.dir/Macro/PartialMap/macro.c.obj
Output_update_external_current                    CMakeFiles/kiibohd.dir/Output/Interface/output_gen.c.obj
                                                  CMakeFiles/kiibohd.dir/Scan/Devices/UARTConnect/connect_scan.c.obj
Output_update_usb_current                         CMakeFiles/kiibohd.dir/Output/Interface/output_gen.c.obj
                                                  CMakeFiles/kiibohd.dir/Output/USB/arm/usb_dev.c.obj
Output_usbCodeSend_capability                     CMakeFiles/kiibohd.dir/Output/USB/output_usb.c.obj
                                                  CMakeFiles/kiibohd.dir/Output/Interface/output_gen.c.obj
                                                  CMakeFiles/kiibohd.dir/Macro/PartialMap/macro.c.obj
Output_usbMouse_capability                        CMakeFiles/kiibohd.dir/Output/USB/output_usb.c.obj
                                                  CMakeFiles/kiibohd.dir/Output/Interface/output_gen.c.obj
                                                  CMakeFiles/kiibohd.dir/Macro/PartialMap/macro.c.obj
Periodic_cycles                                   CMakeFiles/kiibohd.dir/Lib/periodic.c.obj
                                                  CMakeFiles/kiibohd.dir/Debug/cli/cli.c.obj
Periodic_disable                                  CMakeFiles/kiibohd.dir/Lib/periodic.c.obj
                                                  CMakeFiles/kiibohd.dir/Macro/PartialMap/result.c.obj
Periodic_enable                                   CMakeFiles/kiibohd.dir/Lib/periodic.c.obj
                                                  CMakeFiles/kiibohd.dir/Macro/PartialMap/result.c.obj
Periodic_function                                 CMakeFiles/kiibohd.dir/Lib/periodic.c.obj
                                                  CMakeFiles/kiibohd.dir/main.c.obj
Periodic_init                                     CMakeFiles/kiibohd.dir/Lib/periodic.c.obj
                                                  CMakeFiles/kiibohd.dir/Debug/cli/cli.c.obj
                                                  CMakeFiles/kiibohd.dir/Scan/Devices/MatrixARMPeriodic/matrix_scan.c.obj
Pixel_8bitInterpolation                           CMakeFiles/kiibohd.dir/Macro/PixelMap/pixel.c.obj
Pixel_AnimationControl_capability                 CMakeFiles/kiibohd.dir/Macro/PixelMap/pixel.c.obj
                                                  CMakeFiles/kiibohd.dir/Macro/PartialMap/macro.c.obj
Pixel_AnimationElement_Stor                       CMakeFiles/kiibohd.dir/Macro/PixelMap/pixel.c.obj
Pixel_AnimationIndex_capability                   CMakeFiles/kiibohd.dir/Macro/PixelMap/pixel.c.obj
                                                  CMakeFiles/kiibohd.dir/Macro/PartialMap/macro.c.obj
Pixel_AnimationSettings                           CMakeFiles/kiibohd.dir/generatedPixelmap.c.obj
Pixel_AnimationStack                              CMakeFiles/kiibohd.dir/Macro/PixelMap/pixel.c.obj
Pixel_Animation_capability                        CMakeFiles/kiibohd.dir/Macro/PixelMap/pixel.c.obj
                                                  CMakeFiles/kiibohd.dir/Macro/PartialMap/macro.c.obj
Pixel_Animations                                  CMakeFiles/kiibohd.dir/generatedPixelmap.c.obj
                                                  CMakeFiles/kiibohd.dir/Macro/PixelMap/pixel.c.obj
Pixel_Buffers                                     CMakeFiles/kiibohd.dir/generatedPixelmap.c.obj
                                                  CMakeFiles/kiibohd.dir/Macro/PixelMap/pixel.c.obj
Pixel_DisplayMapping                              CMakeFiles/kiibohd.dir/generatedPixelmap.c.obj
                                                  CMakeFiles/kiibohd.dir/Macro/PixelMap/pixel.c.obj
Pixel_FrameState                                  CMakeFiles/kiibohd.dir/Macro/PixelMap/pixel.c.obj
                                                  CMakeFiles/kiibohd.dir/Scan/Devices/ISSILed/led_scan.c.obj
Pixel_Mapping                                     CMakeFiles/kiibohd.dir/generatedPixelmap.c.obj
                                                  CMakeFiles/kiibohd.dir/Macro/PixelMap/pixel.c.obj
Pixel_Pixel_capability                            CMakeFiles/kiibohd.dir/Macro/PixelMap/pixel.c.obj
                                                  CMakeFiles/kiibohd.dir/Macro/PartialMap/macro.c.obj
Pixel_ScanCodeToDisplay                           CMakeFiles/kiibohd.dir/generatedPixelmap.c.obj
                                                  CMakeFiles/kiibohd.dir/Macro/PixelMap/pixel.c.obj
Pixel_ScanCodeToPixel                             CMakeFiles/kiibohd.dir/generatedPixelmap.c.obj
                                                  CMakeFiles/kiibohd.dir/Macro/PixelMap/pixel.c.obj
Pixel_addAnimation                                CMakeFiles/kiibohd.dir/Macro/PixelMap/pixel.c.obj
Pixel_addDefaultAnimation                         CMakeFiles/kiibohd.dir/Macro/PixelMap/pixel.c.obj
Pixel_animationControl                            CMakeFiles/kiibohd.dir/Macro/PixelMap/pixel.c.obj
Pixel_animationProcess                            CMakeFiles/kiibohd.dir/Macro/PixelMap/pixel.c.obj
Pixel_bufferMap                                   CMakeFiles/kiibohd.dir/Macro/PixelMap/pixel.c.obj
Pixel_channelSet                                  CMakeFiles/kiibohd.dir/Macro/PixelMap/pixel.c.obj
Pixel_channelToggle                               CMakeFiles/kiibohd.dir/Macro/PixelMap/pixel.c.obj
Pixel_clearAnimations                             CMakeFiles/kiibohd.dir/Macro/PixelMap/pixel.c.obj
Pixel_clearPixels                                 CMakeFiles/kiibohd.dir/Macro/PixelMap/pixel.c.obj
Pixel_delAnimation                                CMakeFiles/kiibohd.dir/Macro/PixelMap/pixel.c.obj
Pixel_determineLastTriggerScanCode                CMakeFiles/kiibohd.dir/Macro/PixelMap/pixel.c.obj
Pixel_dispBuffer                                  CMakeFiles/kiibohd.dir/Macro/PixelMap/pixel.c.obj
Pixel_fillPixelLookup                             CMakeFiles/kiibohd.dir/Macro/PixelMap/pixel.c.obj
Pixel_frameTweenInterpolation                     CMakeFiles/kiibohd.dir/Macro/PixelMap/pixel.c.obj
Pixel_frameTweenStandard                          CMakeFiles/kiibohd.dir/Macro/PixelMap/pixel.c.obj
Pixel_initializeStartAnimations                   CMakeFiles/kiibohd.dir/Macro/PixelMap/pixel.c.obj
Pixel_lookupAnimation                             CMakeFiles/kiibohd.dir/Macro/PixelMap/pixel.c.obj
Pixel_pixelEvaluation                             CMakeFiles/kiibohd.dir/Macro/PixelMap/pixel.c.obj
Pixel_pixelInterpolate                            CMakeFiles/kiibohd.dir/Macro/PixelMap/pixel.c.obj
Pixel_pixelSet                                    CMakeFiles/kiibohd.dir/Macro/PixelMap/pixel.c.obj
Pixel_pixelToggle                                 CMakeFiles/kiibohd.dir/Macro/PixelMap/pixel.c.obj
Pixel_pixelTweenInterpolation                     CMakeFiles/kiibohd.dir/Macro/PixelMap/pixel.c.obj
Pixel_pixelTweenNextPos                           CMakeFiles/kiibohd.dir/Macro/PixelMap/pixel.c.obj
Pixel_pixelTweenStandard                          CMakeFiles/kiibohd.dir/Macro/PixelMap/pixel.c.obj
Pixel_process                                     CMakeFiles/kiibohd.dir/Macro/PixelMap/pixel.c.obj
                                                  CMakeFiles/kiibohd.dir/Scan/Infinity_Ergodox/scan_loop.c.obj
Pixel_setAnimationControl                         CMakeFiles/kiibohd.dir/Macro/PixelMap/pixel.c.obj
                                                  CMakeFiles/kiibohd.dir/Scan/Devices/ISSILed/led_scan.c.obj
Pixel_setup                                       CMakeFiles/kiibohd.dir/Macro/PixelMap/pixel.c.obj
                                                  CMakeFiles/kiibohd.dir/Scan/Infinity_Ergodox/scan_loop.c.obj
Pixel_showPixelElement                            CMakeFiles/kiibohd.dir/Macro/PixelMap/pixel.c.obj
Pixel_stackProcess                                CMakeFiles/kiibohd.dir/Macro/PixelMap/pixel.c.obj
Pixel_testMode                                    CMakeFiles/kiibohd.dir/Macro/PixelMap/pixel.c.obj
Pixel_testPos                                     CMakeFiles/kiibohd.dir/Macro/PixelMap/pixel.c.obj
Pixel_updateUSBLEDs                               CMakeFiles/kiibohd.dir/Macro/PixelMap/pixel.c.obj
ResetHandler                                      CMakeFiles/kiibohd.dir/Lib/kinetis.c.obj
ResultMacroList                                   CMakeFiles/kiibohd.dir/Macro/PartialMap/macro.c.obj
                                                  CMakeFiles/kiibohd.dir/Macro/PartialMap/trigger.c.obj
                                                  CMakeFiles/kiibohd.dir/Macro/PartialMap/result.c.obj
ResultMacroRecordList                             CMakeFiles/kiibohd.dir/Macro/PartialMap/macro.c.obj
                                                  CMakeFiles/kiibohd.dir/Macro/PartialMap/result.c.obj
Result_process                                    CMakeFiles/kiibohd.dir/Macro/PartialMap/result.c.obj
                                                  CMakeFiles/kiibohd.dir/Macro/PartialMap/macro.c.obj
Result_process_delayed                            CMakeFiles/kiibohd.dir/Macro/PartialMap/result.c.obj
                                                  CMakeFiles/kiibohd.dir/Macro/PartialMap/macro.c.obj
Result_setup                                      CMakeFiles/kiibohd.dir/Macro/PartialMap/result.c.obj
                                                  CMakeFiles/kiibohd.dir/Macro/PartialMap/macro.c.obj
SPI_setup                                         CMakeFiles/kiibohd.dir/Scan/Devices/STLcd/lcd_scan.c.obj
SPI_write                                         CMakeFiles/kiibohd.dir/Scan/Devices/STLcd/lcd_scan.c.obj
STLcdDefaultImage                                 CMakeFiles/kiibohd.dir/Scan/Devices/STLcd/lcd_scan.c.obj
Scan_currentChange                                CMakeFiles/kiibohd.dir/Scan/Infinity_Ergodox/scan_loop.c.obj
                                                  CMakeFiles/kiibohd.dir/Output/Interface/output_gen.c.obj
Scan_finishedWithMacro                            CMakeFiles/kiibohd.dir/Scan/Infinity_Ergodox/scan_loop.c.obj
                                                  CMakeFiles/kiibohd.dir/Macro/PartialMap/macro.c.obj
Scan_finishedWithOutput                           CMakeFiles/kiibohd.dir/Scan/Infinity_Ergodox/scan_loop.c.obj
                                                  CMakeFiles/kiibohd.dir/Output/USB/output_usb.c.obj
Scan_periodic                                     CMakeFiles/kiibohd.dir/Scan/Infinity_Ergodox/scan_loop.c.obj
                                                  CMakeFiles/kiibohd.dir/main.c.obj
Scan_poll                                         CMakeFiles/kiibohd.dir/Scan/Infinity_Ergodox/scan_loop.c.obj
                                                  CMakeFiles/kiibohd.dir/main.c.obj
Scan_setup                                        CMakeFiles/kiibohd.dir/Scan/Infinity_Ergodox/scan_loop.c.obj
                                                  CMakeFiles/kiibohd.dir/main.c.obj
Time_days                                         CMakeFiles/kiibohd.dir/Lib/time.c.obj
Time_duration                                     CMakeFiles/kiibohd.dir/Lib/time.c.obj
                                                  CMakeFiles/kiibohd.dir/Scan/Devices/ISSILed/led_scan.c.obj
Time_duration_days                                CMakeFiles/kiibohd.dir/Lib/time.c.obj
Time_duration_hours                               CMakeFiles/kiibohd.dir/Lib/time.c.obj
Time_duration_minutes                             CMakeFiles/kiibohd.dir/Lib/time.c.obj
Time_duration_ms                                  CMakeFiles/kiibohd.dir/Lib/time.c.obj
                                                  CMakeFiles/kiibohd.dir/Debug/latency/latency.c.obj
                                                  CMakeFiles/kiibohd.dir/Output/USB/arm/usb_serial.c.obj
                                                  CMakeFiles/kiibohd.dir/Output/USB/arm/usb_rawio.c.obj
                                                  CMakeFiles/kiibohd.dir/Output/USB/arm/usb_mouse.c.obj
                                                  CMakeFiles/kiibohd.dir/Output/USB/arm/usb_keyboard.c.obj
Time_duration_ns                                  CMakeFiles/kiibohd.dir/Lib/time.c.obj
                                                  CMakeFiles/kiibohd.dir/Debug/latency/latency.c.obj
Time_duration_rollover                            CMakeFiles/kiibohd.dir/Lib/time.c.obj
Time_duration_seconds                             CMakeFiles/kiibohd.dir/Lib/time.c.obj
Time_duration_ticks                               CMakeFiles/kiibohd.dir/Lib/time.c.obj
                                                  CMakeFiles/kiibohd.dir/Debug/latency/latency.c.obj
Time_duration_us                                  CMakeFiles/kiibohd.dir/Lib/time.c.obj
                                                  CMakeFiles/kiibohd.dir/Debug/latency/latency.c.obj
Time_from_days                                    CMakeFiles/kiibohd.dir/Lib/time.c.obj
Time_from_hours                                   CMakeFiles/kiibohd.dir/Lib/time.c.obj
Time_from_minutes                                 CMakeFiles/kiibohd.dir/Lib/time.c.obj
Time_from_ms                                      CMakeFiles/kiibohd.dir/Lib/time.c.obj
Time_from_seconds                                 CMakeFiles/kiibohd.dir/Lib/time.c.obj
Time_hours                                        CMakeFiles/kiibohd.dir/Lib/time.c.obj
Time_init                                         CMakeFiles/kiibohd.dir/Lib/time.c.obj
Time_maxTicks                                     CMakeFiles/kiibohd.dir/Lib/time.c.obj
Time_maxTicks_ms                                  CMakeFiles/kiibohd.dir/Lib/time.c.obj
Time_minutes                                      CMakeFiles/kiibohd.dir/Lib/time.c.obj
Time_ms                                           CMakeFiles/kiibohd.dir/Lib/time.c.obj
                                                  CMakeFiles/kiibohd.dir/Scan/Devices/ISSILed/led_scan.c.obj
Time_now                                          CMakeFiles/kiibohd.dir/Lib/time.c.obj
                                                  CMakeFiles/kiibohd.dir/Debug/latency/latency.c.obj
                                                  CMakeFiles/kiibohd.dir/Debug/cli/cli.c.obj
                                                  CMakeFiles/kiibohd.dir/Output/USB/arm/usb_serial.c.obj
                                                  CMakeFiles/kiibohd.dir/Output/USB/arm/usb_rawio.c.obj
                                                  CMakeFiles/kiibohd.dir/Output/USB/arm/usb_mouse.c.obj
                                                  CMakeFiles/kiibohd.dir/Output/USB/arm/usb_keyboard.c.obj
                                                  CMakeFiles/kiibohd.dir/Scan/Devices/ISSILed/led_scan.c.obj
Time_ns                                           CMakeFiles/kiibohd.dir/Lib/time.c.obj
Time_seconds                                      CMakeFiles/kiibohd.dir/Lib/time.c.obj
Time_ticks                                        CMakeFiles/kiibohd.dir/Lib/time.c.obj
Time_ticksPer_ns_str                              CMakeFiles/kiibohd.dir/Lib/time.c.obj
                                                  CMakeFiles/kiibohd.dir/Debug/cli/cli.c.obj
Time_us                                           CMakeFiles/kiibohd.dir/Lib/time.c.obj
TriggerMacroList                                  CMakeFiles/kiibohd.dir/Macro/PartialMap/macro.c.obj
                                                  CMakeFiles/kiibohd.dir/Macro/PartialMap/trigger.c.obj
TriggerMacroRecordList                            CMakeFiles/kiibohd.dir/Macro/PartialMap/macro.c.obj
                                                  CMakeFiles/kiibohd.dir/Macro/PartialMap/trigger.c.obj
Trigger_evalLongTriggerMacroVote                  CMakeFiles/kiibohd.dir/Macro/PartialMap/trigger.c.obj
Trigger_evalShortTriggerMacroVote                 CMakeFiles/kiibohd.dir/Macro/PartialMap/trigger.c.obj
Trigger_evalTriggerMacro                          CMakeFiles/kiibohd.dir/Macro/PartialMap/trigger.c.obj
Trigger_isLongTriggerMacro                        CMakeFiles/kiibohd.dir/Macro/PartialMap/trigger.c.obj
Trigger_process                                   CMakeFiles/kiibohd.dir/Macro/PartialMap/trigger.c.obj
                                                  CMakeFiles/kiibohd.dir/Macro/PartialMap/macro.c.obj
Trigger_setup                                     CMakeFiles/kiibohd.dir/Macro/PartialMap/trigger.c.obj
                                                  CMakeFiles/kiibohd.dir/Macro/PartialMap/macro.c.obj
Trigger_showTriggerMacroVote                      CMakeFiles/kiibohd.dir/Macro/PartialMap/trigger.c.obj
Trigger_state                                     CMakeFiles/kiibohd.dir/Macro/PartialMap/trigger.c.obj
Trigger_update                                    CMakeFiles/kiibohd.dir/Macro/PartialMap/trigger.c.obj
Trigger_updateTriggerMacroPendingList             CMakeFiles/kiibohd.dir/Macro/PartialMap/trigger.c.obj
USBInit_Ticks                                     CMakeFiles/kiibohd.dir/Output/USB/output_usb.c.obj
                                                  CMakeFiles/kiibohd.dir/Output/USB/arm/usb_dev.c.obj
USBInit_TimeEnd                                   CMakeFiles/kiibohd.dir/Output/USB/output_usb.c.obj
                                                  CMakeFiles/kiibohd.dir/Output/USB/arm/usb_dev.c.obj
USBInit_TimeStart                                 CMakeFiles/kiibohd.dir/Output/USB/output_usb.c.obj
                                                  CMakeFiles/kiibohd.dir/Output/USB/arm/usb_dev.c.obj
USBKeys_Idle_Config                               CMakeFiles/kiibohd.dir/Output/USB/output_usb.c.obj
                                                  CMakeFiles/kiibohd.dir/Output/USB/arm/usb_keyboard.c.obj
                                                  CMakeFiles/kiibohd.dir/Output/USB/arm/usb_dev.c.obj
USBKeys_Idle_Count                                CMakeFiles/kiibohd.dir/Output/USB/output_usb.c.obj
USBKeys_Idle_Expiry                               CMakeFiles/kiibohd.dir/Output/USB/output_usb.c.obj
                                                  CMakeFiles/kiibohd.dir/Output/USB/arm/usb_keyboard.c.obj
                                                  CMakeFiles/kiibohd.dir/Output/USB/arm/usb_dev.c.obj
USBKeys_LEDs                                      CMakeFiles/kiibohd.dir/Output/USB/output_usb.c.obj
                                                  CMakeFiles/kiibohd.dir/Output/USB/arm/usb_dev.c.obj
                                                  CMakeFiles/kiibohd.dir/Scan/Devices/STLcd/lcd_scan.c.obj
USBKeys_LEDs_Changed                              CMakeFiles/kiibohd.dir/Output/USB/output_usb.c.obj
                                                  CMakeFiles/kiibohd.dir/Output/USB/arm/usb_dev.c.obj
                                                  CMakeFiles/kiibohd.dir/Macro/PixelMap/pixel.c.obj
USBKeys_Protocol                                  CMakeFiles/kiibohd.dir/Output/USB/output_usb.c.obj
                                                  CMakeFiles/kiibohd.dir/Output/USB/arm/usb_keyboard.c.obj
                                                  CMakeFiles/kiibohd.dir/Output/USB/arm/usb_dev.c.obj
USBKeys_Protocol_Change                           CMakeFiles/kiibohd.dir/Output/USB/output_usb.c.obj
USBKeys_Protocol_New                              CMakeFiles/kiibohd.dir/Output/USB/output_usb.c.obj
                                                  CMakeFiles/kiibohd.dir/Output/USB/arm/usb_dev.c.obj
USBKeys_Sent                                      CMakeFiles/kiibohd.dir/Output/USB/output_usb.c.obj
USBKeys_idle                                      CMakeFiles/kiibohd.dir/Output/USB/output_usb.c.obj
                                                  CMakeFiles/kiibohd.dir/Output/USB/arm/usb_keyboard.c.obj
USBKeys_primary                                   CMakeFiles/kiibohd.dir/Output/USB/output_usb.c.obj
                                                  CMakeFiles/kiibohd.dir/Macro/PartialMap/macro.c.obj
USBMouse_Buttons                                  CMakeFiles/kiibohd.dir/Output/USB/output_usb.c.obj
                                                  CMakeFiles/kiibohd.dir/Output/USB/arm/usb_mouse.c.obj
USBMouse_Changed                                  CMakeFiles/kiibohd.dir/Output/USB/output_usb.c.obj
                                                  CMakeFiles/kiibohd.dir/Output/USB/arm/usb_mouse.c.obj
USBMouse_Relative_x                               CMakeFiles/kiibohd.dir/Output/USB/output_usb.c.obj
                                                  CMakeFiles/kiibohd.dir/Output/USB/arm/usb_mouse.c.obj
USBMouse_Relative_y                               CMakeFiles/kiibohd.dir/Output/USB/output_usb.c.obj
                                                  CMakeFiles/kiibohd.dir/Output/USB/arm/usb_mouse.c.obj
USB_availablechar                                 CMakeFiles/kiibohd.dir/Output/USB/output_usb.c.obj
                                                  CMakeFiles/kiibohd.dir/Output/USB/output_com.c.obj
USB_firmwareReload                                CMakeFiles/kiibohd.dir/Output/USB/output_usb.c.obj
                                                  CMakeFiles/kiibohd.dir/Output/USB/output_com.c.obj
USB_flushBuffers                                  CMakeFiles/kiibohd.dir/Output/USB/output_usb.c.obj
USB_getchar                                       CMakeFiles/kiibohd.dir/Output/USB/output_usb.c.obj
                                                  CMakeFiles/kiibohd.dir/Output/USB/output_com.c.obj
USB_periodic                                      CMakeFiles/kiibohd.dir/Output/USB/output_usb.c.obj
                                                  CMakeFiles/kiibohd.dir/Output/USB/output_com.c.obj
USB_poll                                          CMakeFiles/kiibohd.dir/Output/USB/output_usb.c.obj
                                                  CMakeFiles/kiibohd.dir/Output/USB/output_com.c.obj
USB_putchar                                       CMakeFiles/kiibohd.dir/Output/USB/output_usb.c.obj
                                                  CMakeFiles/kiibohd.dir/Output/USB/output_com.c.obj
USB_putstr                                        CMakeFiles/kiibohd.dir/Output/USB/output_usb.c.obj
                                                  CMakeFiles/kiibohd.dir/Output/USB/output_com.c.obj
USB_rawio_availablechar                           CMakeFiles/kiibohd.dir/Output/USB/output_usb.c.obj
                                                  CMakeFiles/kiibohd.dir/Output/USB/output_com.c.obj
USB_rawio_getbuffer                               CMakeFiles/kiibohd.dir/Output/USB/output_usb.c.obj
                                                  CMakeFiles/kiibohd.dir/Output/USB/output_com.c.obj
USB_rawio_sendbuffer                              CMakeFiles/kiibohd.dir/Output/USB/output_usb.c.obj
                                                  CMakeFiles/kiibohd.dir/Output/USB/output_com.c.obj
USB_setup                                         CMakeFiles/kiibohd.dir/Output/USB/output_usb.c.obj
                                                  CMakeFiles/kiibohd.dir/Output/USB/output_com.c.obj
USB_softReset                                     CMakeFiles/kiibohd.dir/Output/USB/output_usb.c.obj
                                                  CMakeFiles/kiibohd.dir/Output/USB/output_com.c.obj
__brkval                                          CMakeFiles/kiibohd.dir/Lib/kinetis.c.obj
_ebss                                             CMakeFiles/kiibohd.dir/Lib/kinetis.c.obj
_edata                                            CMakeFiles/kiibohd.dir/Lib/kinetis.c.obj
_estack                                           CMakeFiles/kiibohd.dir/Lib/kinetis.c.obj
_etext                                            CMakeFiles/kiibohd.dir/Lib/kinetis.c.obj
_print                                            CMakeFiles/kiibohd.dir/Debug/print/print.c.obj
                                                  CMakeFiles/kiibohd.dir/Debug/latency/latency.c.obj
                                                  CMakeFiles/kiibohd.dir/Debug/cli/cli.c.obj
                                                  CMakeFiles/kiibohd.dir/Output/USB/arm/usb_rawio.c.obj
                                                  CMakeFiles/kiibohd.dir/Output/USB/arm/usb_mouse.c.obj
                                                  CMakeFiles/kiibohd.dir/Output/USB/arm/usb_keyboard.c.obj
                                                  CMakeFiles/kiibohd.dir/Output/USB/arm/usb_dev.c.obj
                                                  CMakeFiles/kiibohd.dir/Output/USB/output_usb.c.obj
                                                  CMakeFiles/kiibohd.dir/Output/Interface/output_gen.c.obj
                                                  CMakeFiles/kiibohd.dir/Output/HID-IO/hidio_com.c.obj
                                                  CMakeFiles/kiibohd.dir/Macro/PixelMap/pixel.c.obj
                                                  CMakeFiles/kiibohd.dir/Macro/PartialMap/trigger.c.obj
                                                  CMakeFiles/kiibohd.dir/Macro/PartialMap/result.c.obj
                                                  CMakeFiles/kiibohd.dir/Macro/PartialMap/macro.c.obj
                                                  CMakeFiles/kiibohd.dir/Scan/Devices/UARTConnect/connect_scan.c.obj
                                                  CMakeFiles/kiibohd.dir/Scan/Devices/STLcd/lcd_scan.c.obj
                                                  CMakeFiles/kiibohd.dir/Scan/Devices/MatrixARMPeriodic/matrix_scan.c.obj
                                                  CMakeFiles/kiibohd.dir/Scan/Devices/ISSILed/led_scan.c.obj
                                                  CMakeFiles/kiibohd.dir/Scan/Devices/ISSILed/i2c.c.obj
                                                  CMakeFiles/kiibohd.dir/Lib/kinetis.c.obj
_sbrk                                             CMakeFiles/kiibohd.dir/Lib/kinetis.c.obj
_sbss                                             CMakeFiles/kiibohd.dir/Lib/kinetis.c.obj
_sdata                                            CMakeFiles/kiibohd.dir/Lib/kinetis.c.obj
adc0_isr                                          CMakeFiles/kiibohd.dir/Lib/kinetis.c.obj
adc1_isr                                          CMakeFiles/kiibohd.dir/Lib/kinetis.c.obj
aniAddCLIDict_DescEntry                           CMakeFiles/kiibohd.dir/Macro/PixelMap/pixel.c.obj
aniDelCLIDict_DescEntry                           CMakeFiles/kiibohd.dir/Macro/PixelMap/pixel.c.obj
aniStackCLIDict_DescEntry                         CMakeFiles/kiibohd.dir/Macro/PixelMap/pixel.c.obj
basicCLIDict                                      CMakeFiles/kiibohd.dir/Debug/cli/cli.c.obj
basicCLIDictName                                  CMakeFiles/kiibohd.dir/Debug/cli/cli.c.obj
bus_fault_default_isr                             CMakeFiles/kiibohd.dir/Lib/kinetis.c.obj
bus_fault_isr                                     CMakeFiles/kiibohd.dir/Lib/kinetis.c.obj
can0_bus_off_isr                                  CMakeFiles/kiibohd.dir/Lib/kinetis.c.obj
can0_error_isr                                    CMakeFiles/kiibohd.dir/Lib/kinetis.c.obj
can0_message_isr                                  CMakeFiles/kiibohd.dir/Lib/kinetis.c.obj
can0_rx_warn_isr                                  CMakeFiles/kiibohd.dir/Lib/kinetis.c.obj
can0_tx_warn_isr                                  CMakeFiles/kiibohd.dir/Lib/kinetis.c.obj
can0_wakeup_isr                                   CMakeFiles/kiibohd.dir/Lib/kinetis.c.obj
can1_bus_off_isr                                  CMakeFiles/kiibohd.dir/Lib/kinetis.c.obj
can1_error_isr                                    CMakeFiles/kiibohd.dir/Lib/kinetis.c.obj
can1_message_isr                                  CMakeFiles/kiibohd.dir/Lib/kinetis.c.obj
can1_rx_warn_isr                                  CMakeFiles/kiibohd.dir/Lib/kinetis.c.obj
can1_tx_warn_isr                                  CMakeFiles/kiibohd.dir/Lib/kinetis.c.obj
can1_wakeup_isr                                   CMakeFiles/kiibohd.dir/Lib/kinetis.c.obj
capListCLIDict_DescEntry                          CMakeFiles/kiibohd.dir/Macro/PartialMap/macro.c.obj
capSelectCLIDict_DescEntry                        CMakeFiles/kiibohd.dir/Macro/PartialMap/macro.c.obj
chanTestCLIDict_DescEntry                         CMakeFiles/kiibohd.dir/Macro/PixelMap/pixel.c.obj
clearCLIDict_DescEntry                            CMakeFiles/kiibohd.dir/Debug/cli/cli.c.obj
cliDebugCLIDict_DescEntry                         CMakeFiles/kiibohd.dir/Debug/cli/cli.c.obj
cliFullToggleState                                CMakeFiles/kiibohd.dir/Scan/Devices/STLcd/lcd_scan.c.obj
cliFunc_aniAdd                                    CMakeFiles/kiibohd.dir/Macro/PixelMap/pixel.c.obj
cliFunc_aniDel                                    CMakeFiles/kiibohd.dir/Macro/PixelMap/pixel.c.obj
cliFunc_aniStack                                  CMakeFiles/kiibohd.dir/Macro/PixelMap/pixel.c.obj
cliFunc_capList                                   CMakeFiles/kiibohd.dir/Macro/PartialMap/macro.c.obj
cliFunc_capSelect                                 CMakeFiles/kiibohd.dir/Macro/PartialMap/macro.c.obj
cliFunc_chanTest                                  CMakeFiles/kiibohd.dir/Macro/PixelMap/pixel.c.obj
cliFunc_clear                                     CMakeFiles/kiibohd.dir/Debug/cli/cli.c.obj
cliFunc_cliDebug                                  CMakeFiles/kiibohd.dir/Debug/cli/cli.c.obj
cliFunc_colorTest                                 CMakeFiles/kiibohd.dir/Debug/cli/cli.c.obj
cliFunc_connectCmd                                CMakeFiles/kiibohd.dir/Scan/Devices/UARTConnect/connect_scan.c.obj
cliFunc_connectDbg                                CMakeFiles/kiibohd.dir/Scan/Devices/UARTConnect/connect_scan.c.obj
cliFunc_connectIdl                                CMakeFiles/kiibohd.dir/Scan/Devices/UARTConnect/connect_scan.c.obj
cliFunc_connectLst                                CMakeFiles/kiibohd.dir/Scan/Devices/UARTConnect/connect_scan.c.obj
cliFunc_connectMst                                CMakeFiles/kiibohd.dir/Scan/Devices/UARTConnect/connect_scan.c.obj
cliFunc_connectRst                                CMakeFiles/kiibohd.dir/Scan/Devices/UARTConnect/connect_scan.c.obj
cliFunc_connectSts                                CMakeFiles/kiibohd.dir/Scan/Devices/UARTConnect/connect_scan.c.obj
cliFunc_current                                   CMakeFiles/kiibohd.dir/Output/Interface/output_gen.c.obj
cliFunc_debounce                                  CMakeFiles/kiibohd.dir/Scan/Devices/MatrixARMPeriodic/matrix_scan.c.obj
cliFunc_help                                      CMakeFiles/kiibohd.dir/Debug/cli/cli.c.obj
cliFunc_idle                                      CMakeFiles/kiibohd.dir/Output/USB/output_usb.c.obj
cliFunc_kbdProtocol                               CMakeFiles/kiibohd.dir/Output/USB/output_usb.c.obj
cliFunc_keyHold                                   CMakeFiles/kiibohd.dir/Macro/PartialMap/macro.c.obj
cliFunc_keyPress                                  CMakeFiles/kiibohd.dir/Macro/PartialMap/macro.c.obj
cliFunc_keyRelease                                CMakeFiles/kiibohd.dir/Macro/PartialMap/macro.c.obj
cliFunc_latency                                   CMakeFiles/kiibohd.dir/Debug/cli/cli.c.obj
cliFunc_layerDebug                                CMakeFiles/kiibohd.dir/Macro/PartialMap/macro.c.obj
cliFunc_layerList                                 CMakeFiles/kiibohd.dir/Macro/PartialMap/macro.c.obj
cliFunc_layerState                                CMakeFiles/kiibohd.dir/Macro/PartialMap/macro.c.obj
cliFunc_lcdCmd                                    CMakeFiles/kiibohd.dir/Scan/Devices/STLcd/lcd_scan.c.obj
cliFunc_lcdColor                                  CMakeFiles/kiibohd.dir/Scan/Devices/STLcd/lcd_scan.c.obj
cliFunc_lcdDisp                                   CMakeFiles/kiibohd.dir/Scan/Devices/STLcd/lcd_scan.c.obj
cliFunc_lcdInit                                   CMakeFiles/kiibohd.dir/Scan/Devices/STLcd/lcd_scan.c.obj
cliFunc_lcdTest                                   CMakeFiles/kiibohd.dir/Scan/Devices/STLcd/lcd_scan.c.obj
cliFunc_led                                       CMakeFiles/kiibohd.dir/Debug/cli/cli.c.obj
cliFunc_ledCheck                                  CMakeFiles/kiibohd.dir/Scan/Devices/ISSILed/led_scan.c.obj
cliFunc_ledFPS                                    CMakeFiles/kiibohd.dir/Scan/Devices/ISSILed/led_scan.c.obj
cliFunc_ledReset                                  CMakeFiles/kiibohd.dir/Scan/Devices/ISSILed/led_scan.c.obj
cliFunc_ledSet                                    CMakeFiles/kiibohd.dir/Scan/Devices/ISSILed/led_scan.c.obj
cliFunc_ledToggle                                 CMakeFiles/kiibohd.dir/Scan/Devices/ISSILed/led_scan.c.obj
cliFunc_macroDebug                                CMakeFiles/kiibohd.dir/Macro/PartialMap/macro.c.obj
cliFunc_macroList                                 CMakeFiles/kiibohd.dir/Macro/PartialMap/macro.c.obj
cliFunc_macroProc                                 CMakeFiles/kiibohd.dir/Macro/PartialMap/macro.c.obj
cliFunc_macroShow                                 CMakeFiles/kiibohd.dir/Macro/PartialMap/macro.c.obj
cliFunc_macroStep                                 CMakeFiles/kiibohd.dir/Macro/PartialMap/macro.c.obj
cliFunc_matrixDebug                               CMakeFiles/kiibohd.dir/Scan/Devices/MatrixARMPeriodic/matrix_scan.c.obj
cliFunc_matrixInfo                                CMakeFiles/kiibohd.dir/Scan/Devices/MatrixARMPeriodic/matrix_scan.c.obj
cliFunc_matrixState                               CMakeFiles/kiibohd.dir/Scan/Devices/MatrixARMPeriodic/matrix_scan.c.obj
cliFunc_outputDebug                               CMakeFiles/kiibohd.dir/Output/Interface/output_gen.c.obj
cliFunc_periodic                                  CMakeFiles/kiibohd.dir/Debug/cli/cli.c.obj
cliFunc_pixelList                                 CMakeFiles/kiibohd.dir/Macro/PixelMap/pixel.c.obj
cliFunc_pixelSCTest                               CMakeFiles/kiibohd.dir/Macro/PixelMap/pixel.c.obj
cliFunc_pixelTest                                 CMakeFiles/kiibohd.dir/Macro/PixelMap/pixel.c.obj
cliFunc_pixelXYTest                               CMakeFiles/kiibohd.dir/Macro/PixelMap/pixel.c.obj
cliFunc_posList                                   CMakeFiles/kiibohd.dir/Macro/PartialMap/macro.c.obj
cliFunc_rand                                      CMakeFiles/kiibohd.dir/Debug/cli/cli.c.obj
cliFunc_readLEDs                                  CMakeFiles/kiibohd.dir/Output/USB/output_usb.c.obj
cliFunc_rectDisp                                  CMakeFiles/kiibohd.dir/Macro/PixelMap/pixel.c.obj
cliFunc_reload                                    CMakeFiles/kiibohd.dir/Debug/cli/cli.c.obj
cliFunc_reset                                     CMakeFiles/kiibohd.dir/Debug/cli/cli.c.obj
cliFunc_restart                                   CMakeFiles/kiibohd.dir/Debug/cli/cli.c.obj
cliFunc_strobeDelay                               CMakeFiles/kiibohd.dir/Scan/Devices/MatrixARMPeriodic/matrix_scan.c.obj
cliFunc_tick                                      CMakeFiles/kiibohd.dir/Debug/cli/cli.c.obj
cliFunc_usbInitTime                               CMakeFiles/kiibohd.dir/Output/USB/output_usb.c.obj
cliFunc_version                                   CMakeFiles/kiibohd.dir/Debug/cli/cli.c.obj
cliFunc_voteDebug                                 CMakeFiles/kiibohd.dir/Macro/PartialMap/macro.c.obj
cliNormalReverseToggleState                       CMakeFiles/kiibohd.dir/Scan/Devices/STLcd/lcd_scan.c.obj
cmp0_isr                                          CMakeFiles/kiibohd.dir/Lib/kinetis.c.obj
cmp1_isr                                          CMakeFiles/kiibohd.dir/Lib/kinetis.c.obj
cmp2_isr                                          CMakeFiles/kiibohd.dir/Lib/kinetis.c.obj
cmp3_isr                                          CMakeFiles/kiibohd.dir/Lib/kinetis.c.obj
cmt_isr                                           CMakeFiles/kiibohd.dir/Lib/kinetis.c.obj
colorTestCLIDict_DescEntry                        CMakeFiles/kiibohd.dir/Debug/cli/cli.c.obj
connectCmdCLIDict_DescEntry                       CMakeFiles/kiibohd.dir/Scan/Devices/UARTConnect/connect_scan.c.obj
connectDbgCLIDict_DescEntry                       CMakeFiles/kiibohd.dir/Scan/Devices/UARTConnect/connect_scan.c.obj
connectIdlCLIDict_DescEntry                       CMakeFiles/kiibohd.dir/Scan/Devices/UARTConnect/connect_scan.c.obj
connectLstCLIDict_DescEntry                       CMakeFiles/kiibohd.dir/Scan/Devices/UARTConnect/connect_scan.c.obj
connectMstCLIDict_DescEntry                       CMakeFiles/kiibohd.dir/Scan/Devices/UARTConnect/connect_scan.c.obj
connectRstCLIDict_DescEntry                       CMakeFiles/kiibohd.dir/Scan/Devices/UARTConnect/connect_scan.c.obj
connectStsCLIDict_DescEntry                       CMakeFiles/kiibohd.dir/Scan/Devices/UARTConnect/connect_scan.c.obj
currentCLIDict_DescEntry                          CMakeFiles/kiibohd.dir/Output/Interface/output_gen.c.obj
cycle_now                                         CMakeFiles/kiibohd.dir/Lib/delay.c.obj
dac0_isr                                          CMakeFiles/kiibohd.dir/Lib/kinetis.c.obj
dac1_isr                                          CMakeFiles/kiibohd.dir/Lib/kinetis.c.obj
debounceCLIDict_DescEntry                         CMakeFiles/kiibohd.dir/Scan/Devices/MatrixARMPeriodic/matrix_scan.c.obj
debugmonitor_isr                                  CMakeFiles/kiibohd.dir/Lib/kinetis.c.obj
default_scanMap                                   CMakeFiles/kiibohd.dir/Macro/PartialMap/macro.c.obj
default_tl_0x00                                   CMakeFiles/kiibohd.dir/Macro/PartialMap/macro.c.obj
default_tl_0x01                                   CMakeFiles/kiibohd.dir/Macro/PartialMap/macro.c.obj
default_tl_0x02                                   CMakeFiles/kiibohd.dir/Macro/PartialMap/macro.c.obj
default_tl_0x03                                   CMakeFiles/kiibohd.dir/Macro/PartialMap/macro.c.obj
default_tl_0x04                                   CMakeFiles/kiibohd.dir/Macro/PartialMap/macro.c.obj
default_tl_0x05                                   CMakeFiles/kiibohd.dir/Macro/PartialMap/macro.c.obj
default_tl_0x06                                   CMakeFiles/kiibohd.dir/Macro/PartialMap/macro.c.obj
default_tl_0x07                                   CMakeFiles/kiibohd.dir/Macro/PartialMap/macro.c.obj
default_tl_0x08                                   CMakeFiles/kiibohd.dir/Macro/PartialMap/macro.c.obj
default_tl_0x09                                   CMakeFiles/kiibohd.dir/Macro/PartialMap/macro.c.obj
default_tl_0x0A                                   CMakeFiles/kiibohd.dir/Macro/PartialMap/macro.c.obj
default_tl_0x0B                                   CMakeFiles/kiibohd.dir/Macro/PartialMap/macro.c.obj
default_tl_0x0C                                   CMakeFiles/kiibohd.dir/Macro/PartialMap/macro.c.obj
default_tl_0x0D                                   CMakeFiles/kiibohd.dir/Macro/PartialMap/macro.c.obj
default_tl_0x0E                                   CMakeFiles/kiibohd.dir/Macro/PartialMap/macro.c.obj
default_tl_0x0F                                   CMakeFiles/kiibohd.dir/Macro/PartialMap/macro.c.obj
default_tl_0x10                                   CMakeFiles/kiibohd.dir/Macro/PartialMap/macro.c.obj
default_tl_0x11                                   CMakeFiles/kiibohd.dir/Macro/PartialMap/macro.c.obj
default_tl_0x12                                   CMakeFiles/kiibohd.dir/Macro/PartialMap/macro.c.obj
default_tl_0x13                                   CMakeFiles/kiibohd.dir/Macro/PartialMap/macro.c.obj
default_tl_0x14                                   CMakeFiles/kiibohd.dir/Macro/PartialMap/macro.c.obj
default_tl_0x15                                   CMakeFiles/kiibohd.dir/Macro/PartialMap/macro.c.obj
default_tl_0x16                                   CMakeFiles/kiibohd.dir/Macro/PartialMap/macro.c.obj
default_tl_0x17                                   CMakeFiles/kiibohd.dir/Macro/PartialMap/macro.c.obj
default_tl_0x18                                   CMakeFiles/kiibohd.dir/Macro/PartialMap/macro.c.obj
default_tl_0x19                                   CMakeFiles/kiibohd.dir/Macro/PartialMap/macro.c.obj
default_tl_0x1A                                   CMakeFiles/kiibohd.dir/Macro/PartialMap/macro.c.obj
default_tl_0x1B                                   CMakeFiles/kiibohd.dir/Macro/PartialMap/macro.c.obj
default_tl_0x1C                                   CMakeFiles/kiibohd.dir/Macro/PartialMap/macro.c.obj
default_tl_0x1D                                   CMakeFiles/kiibohd.dir/Macro/PartialMap/macro.c.obj
default_tl_0x1E                                   CMakeFiles/kiibohd.dir/Macro/PartialMap/macro.c.obj
default_tl_0x1F                                   CMakeFiles/kiibohd.dir/Macro/PartialMap/macro.c.obj
default_tl_0x20                                   CMakeFiles/kiibohd.dir/Macro/PartialMap/macro.c.obj
default_tl_0x21                                   CMakeFiles/kiibohd.dir/Macro/PartialMap/macro.c.obj
default_tl_0x22                                   CMakeFiles/kiibohd.dir/Macro/PartialMap/macro.c.obj
default_tl_0x23                                   CMakeFiles/kiibohd.dir/Macro/PartialMap/macro.c.obj
default_tl_0x24                                   CMakeFiles/kiibohd.dir/Macro/PartialMap/macro.c.obj
default_tl_0x25                                   CMakeFiles/kiibohd.dir/Macro/PartialMap/macro.c.obj
default_tl_0x26                                   CMakeFiles/kiibohd.dir/Macro/PartialMap/macro.c.obj
default_tl_0x27                                   CMakeFiles/kiibohd.dir/Macro/PartialMap/macro.c.obj
default_tl_0x28                                   CMakeFiles/kiibohd.dir/Macro/PartialMap/macro.c.obj
default_tl_0x29                                   CMakeFiles/kiibohd.dir/Macro/PartialMap/macro.c.obj
default_tl_0x2A                                   CMakeFiles/kiibohd.dir/Macro/PartialMap/macro.c.obj
default_tl_0x2B                                   CMakeFiles/kiibohd.dir/Macro/PartialMap/macro.c.obj
default_tl_0x2C                                   CMakeFiles/kiibohd.dir/Macro/PartialMap/macro.c.obj
default_tl_0x2D                                   CMakeFiles/kiibohd.dir/Macro/PartialMap/macro.c.obj
default_tl_0x2E                                   CMakeFiles/kiibohd.dir/Macro/PartialMap/macro.c.obj
default_tl_0x2F                                   CMakeFiles/kiibohd.dir/Macro/PartialMap/macro.c.obj
default_tl_0x30                                   CMakeFiles/kiibohd.dir/Macro/PartialMap/macro.c.obj
default_tl_0x31                                   CMakeFiles/kiibohd.dir/Macro/PartialMap/macro.c.obj
default_tl_0x32                                   CMakeFiles/kiibohd.dir/Macro/PartialMap/macro.c.obj
default_tl_0x33                                   CMakeFiles/kiibohd.dir/Macro/PartialMap/macro.c.obj
default_tl_0x34                                   CMakeFiles/kiibohd.dir/Macro/PartialMap/macro.c.obj
default_tl_0x35                                   CMakeFiles/kiibohd.dir/Macro/PartialMap/macro.c.obj
default_tl_0x36                                   CMakeFiles/kiibohd.dir/Macro/PartialMap/macro.c.obj
default_tl_0x37                                   CMakeFiles/kiibohd.dir/Macro/PartialMap/macro.c.obj
default_tl_0x38                                   CMakeFiles/kiibohd.dir/Macro/PartialMap/macro.c.obj
default_tl_0x39                                   CMakeFiles/kiibohd.dir/Macro/PartialMap/macro.c.obj
default_tl_0x3A                                   CMakeFiles/kiibohd.dir/Macro/PartialMap/macro.c.obj
default_tl_0x3B                                   CMakeFiles/kiibohd.dir/Macro/PartialMap/macro.c.obj
default_tl_0x3C                                   CMakeFiles/kiibohd.dir/Macro/PartialMap/macro.c.obj
default_tl_0x3D                                   CMakeFiles/kiibohd.dir/Macro/PartialMap/macro.c.obj
default_tl_0x3E                                   CMakeFiles/kiibohd.dir/Macro/PartialMap/macro.c.obj
default_tl_0x3F                                   CMakeFiles/kiibohd.dir/Macro/PartialMap/macro.c.obj
default_tl_0x40                                   CMakeFiles/kiibohd.dir/Macro/PartialMap/macro.c.obj
default_tl_0x41                                   CMakeFiles/kiibohd.dir/Macro/PartialMap/macro.c.obj
default_tl_0x42                                   CMakeFiles/kiibohd.dir/Macro/PartialMap/macro.c.obj
default_tl_0x43                                   CMakeFiles/kiibohd.dir/Macro/PartialMap/macro.c.obj
default_tl_0x44                                   CMakeFiles/kiibohd.dir/Macro/PartialMap/macro.c.obj
default_tl_0x45                                   CMakeFiles/kiibohd.dir/Macro/PartialMap/macro.c.obj
default_tl_0x46                                   CMakeFiles/kiibohd.dir/Macro/PartialMap/macro.c.obj
default_tl_0x47                                   CMakeFiles/kiibohd.dir/Macro/PartialMap/macro.c.obj
default_tl_0x48                                   CMakeFiles/kiibohd.dir/Macro/PartialMap/macro.c.obj
default_tl_0x49                                   CMakeFiles/kiibohd.dir/Macro/PartialMap/macro.c.obj
default_tl_0x4A                                   CMakeFiles/kiibohd.dir/Macro/PartialMap/macro.c.obj
default_tl_0x4B                                   CMakeFiles/kiibohd.dir/Macro/PartialMap/macro.c.obj
default_tl_0x4C                                   CMakeFiles/kiibohd.dir/Macro/PartialMap/macro.c.obj
default_tl_0x4D                                   CMakeFiles/kiibohd.dir/Macro/PartialMap/macro.c.obj
default_tl_0x4E                                   CMakeFiles/kiibohd.dir/Macro/PartialMap/macro.c.obj
default_tl_0x4F                                   CMakeFiles/kiibohd.dir/Macro/PartialMap/macro.c.obj
default_tl_0x50                                   CMakeFiles/kiibohd.dir/Macro/PartialMap/macro.c.obj
default_tl_0x51                                   CMakeFiles/kiibohd.dir/Macro/PartialMap/macro.c.obj
default_tl_0x52                                   CMakeFiles/kiibohd.dir/Macro/PartialMap/macro.c.obj
default_tl_0x53                                   CMakeFiles/kiibohd.dir/Macro/PartialMap/macro.c.obj
default_tl_0x54                                   CMakeFiles/kiibohd.dir/Macro/PartialMap/macro.c.obj
default_tl_0x55                                   CMakeFiles/kiibohd.dir/Macro/PartialMap/macro.c.obj
default_tl_0x56                                   CMakeFiles/kiibohd.dir/Macro/PartialMap/macro.c.obj
default_tl_0x57                                   CMakeFiles/kiibohd.dir/Macro/PartialMap/macro.c.obj
default_tl_0x58                                   CMakeFiles/kiibohd.dir/Macro/PartialMap/macro.c.obj
default_tl_0x59                                   CMakeFiles/kiibohd.dir/Macro/PartialMap/macro.c.obj
default_tl_0x5A                                   CMakeFiles/kiibohd.dir/Macro/PartialMap/macro.c.obj
delay_cycles                                      CMakeFiles/kiibohd.dir/Lib/delay.c.obj
delay_ms                                          CMakeFiles/kiibohd.dir/Lib/delay.c.obj
                                                  CMakeFiles/kiibohd.dir/Output/USB/arm/usb_dev.c.obj
                                                  CMakeFiles/kiibohd.dir/Scan/Devices/UARTConnect/connect_scan.c.obj
delay_us                                          CMakeFiles/kiibohd.dir/Lib/delay.c.obj
                                                  CMakeFiles/kiibohd.dir/Scan/Devices/STLcd/lcd_scan.c.obj
                                                  CMakeFiles/kiibohd.dir/Scan/Devices/MatrixARMPeriodic/matrix_scan.c.obj
                                                  CMakeFiles/kiibohd.dir/Scan/Devices/ISSILed/led_scan.c.obj
                                                  CMakeFiles/kiibohd.dir/Scan/Devices/ISSILed/i2c.c.obj
dma_ch0_isr                                       CMakeFiles/kiibohd.dir/Lib/kinetis.c.obj
dma_ch10_isr                                      CMakeFiles/kiibohd.dir/Lib/kinetis.c.obj
dma_ch11_isr                                      CMakeFiles/kiibohd.dir/Lib/kinetis.c.obj
dma_ch12_isr                                      CMakeFiles/kiibohd.dir/Lib/kinetis.c.obj
dma_ch13_isr                                      CMakeFiles/kiibohd.dir/Lib/kinetis.c.obj
dma_ch14_isr                                      CMakeFiles/kiibohd.dir/Lib/kinetis.c.obj
dma_ch15_isr                                      CMakeFiles/kiibohd.dir/Lib/kinetis.c.obj
dma_ch1_isr                                       CMakeFiles/kiibohd.dir/Lib/kinetis.c.obj
dma_ch2_isr                                       CMakeFiles/kiibohd.dir/Lib/kinetis.c.obj
dma_ch3_isr                                       CMakeFiles/kiibohd.dir/Lib/kinetis.c.obj
dma_ch4_isr                                       CMakeFiles/kiibohd.dir/Lib/kinetis.c.obj
dma_ch5_isr                                       CMakeFiles/kiibohd.dir/Lib/kinetis.c.obj
dma_ch6_isr                                       CMakeFiles/kiibohd.dir/Lib/kinetis.c.obj
dma_ch7_isr                                       CMakeFiles/kiibohd.dir/Lib/kinetis.c.obj
dma_ch8_isr                                       CMakeFiles/kiibohd.dir/Lib/kinetis.c.obj
dma_ch9_isr                                       CMakeFiles/kiibohd.dir/Lib/kinetis.c.obj
dma_error_isr                                     CMakeFiles/kiibohd.dir/Lib/kinetis.c.obj
enet_error_isr                                    CMakeFiles/kiibohd.dir/Lib/kinetis.c.obj
enet_rx_isr                                       CMakeFiles/kiibohd.dir/Lib/kinetis.c.obj
enet_timer_isr                                    CMakeFiles/kiibohd.dir/Lib/kinetis.c.obj
enet_tx_isr                                       CMakeFiles/kiibohd.dir/Lib/kinetis.c.obj
eqStr                                             CMakeFiles/kiibohd.dir/Debug/print/print.c.obj
                                                  CMakeFiles/kiibohd.dir/Debug/cli/cli.c.obj
errorLED                                          CMakeFiles/kiibohd.dir/Debug/led/led.c.obj
                                                  CMakeFiles/kiibohd.dir/Debug/cli/cli.c.obj
fault_isr                                         CMakeFiles/kiibohd.dir/Lib/kinetis.c.obj
flash_cmd_isr                                     CMakeFiles/kiibohd.dir/Lib/kinetis.c.obj
flash_error_isr                                   CMakeFiles/kiibohd.dir/Lib/kinetis.c.obj
ftm0_isr                                          CMakeFiles/kiibohd.dir/Lib/kinetis.c.obj
ftm1_isr                                          CMakeFiles/kiibohd.dir/Lib/kinetis.c.obj
ftm2_isr                                          CMakeFiles/kiibohd.dir/Lib/kinetis.c.obj
ftm3_isr                                          CMakeFiles/kiibohd.dir/Lib/kinetis.c.obj
gVectors                                          CMakeFiles/kiibohd.dir/Lib/kinetis.c.obj
gWDT_buffer                                       CMakeFiles/kiibohd.dir/Lib/entropy.c.obj
gWDT_buffer_position                              CMakeFiles/kiibohd.dir/Lib/entropy.c.obj
gWDT_entropy_pool                                 CMakeFiles/kiibohd.dir/Lib/entropy.c.obj
gWDT_loop_counter                                 CMakeFiles/kiibohd.dir/Lib/entropy.c.obj
gWDT_pool_count                                   CMakeFiles/kiibohd.dir/Lib/entropy.c.obj
gWDT_pool_end                                     CMakeFiles/kiibohd.dir/Lib/entropy.c.obj
gWDT_pool_start                                   CMakeFiles/kiibohd.dir/Lib/entropy.c.obj
hard_fault_default_isr                            CMakeFiles/kiibohd.dir/Lib/kinetis.c.obj
hard_fault_isr                                    CMakeFiles/kiibohd.dir/Lib/kinetis.c.obj
helpCLIDict_DescEntry                             CMakeFiles/kiibohd.dir/Debug/cli/cli.c.obj
hex32ToStr16                                      CMakeFiles/kiibohd.dir/Debug/print/print.c.obj
                                                  CMakeFiles/kiibohd.dir/Output/USB/arm/usb_dev.c.obj
hex32ToStr_op                                     CMakeFiles/kiibohd.dir/Debug/print/print.c.obj
hexToStr_op                                       CMakeFiles/kiibohd.dir/Debug/print/print.c.obj
hidioCLIDict                                      CMakeFiles/kiibohd.dir/Output/HID-IO/hidio_com.c.obj
hidioCLIDictName                                  CMakeFiles/kiibohd.dir/Output/HID-IO/hidio_com.c.obj
i2c0_isr                                          CMakeFiles/kiibohd.dir/Scan/Devices/ISSILed/i2c.c.obj
                                                  CMakeFiles/kiibohd.dir/Lib/kinetis.c.obj
i2c1_isr                                          CMakeFiles/kiibohd.dir/Scan/Devices/ISSILed/i2c.c.obj
                                                  CMakeFiles/kiibohd.dir/Lib/kinetis.c.obj
i2c2_isr                                          CMakeFiles/kiibohd.dir/Lib/kinetis.c.obj
i2c3_isr                                          CMakeFiles/kiibohd.dir/Lib/kinetis.c.obj
i2c_any_busy                                      CMakeFiles/kiibohd.dir/Scan/Devices/ISSILed/i2c.c.obj
                                                  CMakeFiles/kiibohd.dir/Scan/Devices/ISSILed/led_scan.c.obj
i2c_busy                                          CMakeFiles/kiibohd.dir/Scan/Devices/ISSILed/i2c.c.obj
                                                  CMakeFiles/kiibohd.dir/Scan/Devices/ISSILed/led_scan.c.obj
i2c_channels                                      CMakeFiles/kiibohd.dir/Scan/Devices/ISSILed/i2c.c.obj
i2c_isr                                           CMakeFiles/kiibohd.dir/Scan/Devices/ISSILed/i2c.c.obj
i2c_offset                                        CMakeFiles/kiibohd.dir/Scan/Devices/ISSILed/i2c.c.obj
i2c_reset                                         CMakeFiles/kiibohd.dir/Scan/Devices/ISSILed/i2c.c.obj
                                                  CMakeFiles/kiibohd.dir/Scan/Devices/ISSILed/led_scan.c.obj
i2c_send_sequence                                 CMakeFiles/kiibohd.dir/Scan/Devices/ISSILed/i2c.c.obj
                                                  CMakeFiles/kiibohd.dir/Scan/Devices/ISSILed/led_scan.c.obj
i2c_setup                                         CMakeFiles/kiibohd.dir/Scan/Devices/ISSILed/i2c.c.obj
                                                  CMakeFiles/kiibohd.dir/Scan/Devices/ISSILed/led_scan.c.obj
i2s0_isr                                          CMakeFiles/kiibohd.dir/Lib/kinetis.c.obj
i2s0_rx_isr                                       CMakeFiles/kiibohd.dir/Lib/kinetis.c.obj
i2s0_tx_isr                                       CMakeFiles/kiibohd.dir/Lib/kinetis.c.obj
idleCLIDict_DescEntry                             CMakeFiles/kiibohd.dir/Output/USB/output_usb.c.obj
init_errorLED                                     CMakeFiles/kiibohd.dir/Debug/led/led.c.obj
                                                  CMakeFiles/kiibohd.dir/Debug/cli/cli.c.obj
int16ToStr                                        CMakeFiles/kiibohd.dir/Debug/print/print.c.obj
int32ToStr                                        CMakeFiles/kiibohd.dir/Debug/print/print.c.obj
int8ToStr                                         CMakeFiles/kiibohd.dir/Debug/print/print.c.obj
kbdProtocolCLIDict_DescEntry                      CMakeFiles/kiibohd.dir/Output/USB/output_usb.c.obj
keyHoldCLIDict_DescEntry                          CMakeFiles/kiibohd.dir/Macro/PartialMap/macro.c.obj
keyPressCLIDict_DescEntry                         CMakeFiles/kiibohd.dir/Macro/PartialMap/macro.c.obj
keyReleaseCLIDict_DescEntry                       CMakeFiles/kiibohd.dir/Macro/PartialMap/macro.c.obj
latencyCLIDict_DescEntry                          CMakeFiles/kiibohd.dir/Debug/cli/cli.c.obj
layer1_scanMap                                    CMakeFiles/kiibohd.dir/Macro/PartialMap/macro.c.obj
layer1_tl_0x00                                    CMakeFiles/kiibohd.dir/Macro/PartialMap/macro.c.obj
layer1_tl_0x01                                    CMakeFiles/kiibohd.dir/Macro/PartialMap/macro.c.obj
layer1_tl_0x02                                    CMakeFiles/kiibohd.dir/Macro/PartialMap/macro.c.obj
layer1_tl_0x03                                    CMakeFiles/kiibohd.dir/Macro/PartialMap/macro.c.obj
layer1_tl_0x04                                    CMakeFiles/kiibohd.dir/Macro/PartialMap/macro.c.obj
layer1_tl_0x05                                    CMakeFiles/kiibohd.dir/Macro/PartialMap/macro.c.obj
layer1_tl_0x06                                    CMakeFiles/kiibohd.dir/Macro/PartialMap/macro.c.obj
layer1_tl_0x07                                    CMakeFiles/kiibohd.dir/Macro/PartialMap/macro.c.obj
layer1_tl_0x08                                    CMakeFiles/kiibohd.dir/Macro/PartialMap/macro.c.obj
layer1_tl_0x09                                    CMakeFiles/kiibohd.dir/Macro/PartialMap/macro.c.obj
layer1_tl_0x0A                                    CMakeFiles/kiibohd.dir/Macro/PartialMap/macro.c.obj
layer1_tl_0x0B                                    CMakeFiles/kiibohd.dir/Macro/PartialMap/macro.c.obj
layer1_tl_0x0C                                    CMakeFiles/kiibohd.dir/Macro/PartialMap/macro.c.obj
layer1_tl_0x0D                                    CMakeFiles/kiibohd.dir/Macro/PartialMap/macro.c.obj
layer1_tl_0x0E                                    CMakeFiles/kiibohd.dir/Macro/PartialMap/macro.c.obj
layer1_tl_0x0F                                    CMakeFiles/kiibohd.dir/Macro/PartialMap/macro.c.obj
layer1_tl_0x10                                    CMakeFiles/kiibohd.dir/Macro/PartialMap/macro.c.obj
layer1_tl_0x11                                    CMakeFiles/kiibohd.dir/Macro/PartialMap/macro.c.obj
layer1_tl_0x12                                    CMakeFiles/kiibohd.dir/Macro/PartialMap/macro.c.obj
layer1_tl_0x13                                    CMakeFiles/kiibohd.dir/Macro/PartialMap/macro.c.obj
layer1_tl_0x14                                    CMakeFiles/kiibohd.dir/Macro/PartialMap/macro.c.obj
layer1_tl_0x15                                    CMakeFiles/kiibohd.dir/Macro/PartialMap/macro.c.obj
layer1_tl_0x16                                    CMakeFiles/kiibohd.dir/Macro/PartialMap/macro.c.obj
layer1_tl_0x17                                    CMakeFiles/kiibohd.dir/Macro/PartialMap/macro.c.obj
layer1_tl_0x18                                    CMakeFiles/kiibohd.dir/Macro/PartialMap/macro.c.obj
layer1_tl_0x19                                    CMakeFiles/kiibohd.dir/Macro/PartialMap/macro.c.obj
layer1_tl_0x1A                                    CMakeFiles/kiibohd.dir/Macro/PartialMap/macro.c.obj
layer1_tl_0x1B                                    CMakeFiles/kiibohd.dir/Macro/PartialMap/macro.c.obj
layer1_tl_0x1C                                    CMakeFiles/kiibohd.dir/Macro/PartialMap/macro.c.obj
layer1_tl_0x1D                                    CMakeFiles/kiibohd.dir/Macro/PartialMap/macro.c.obj
layer1_tl_0x1E                                    CMakeFiles/kiibohd.dir/Macro/PartialMap/macro.c.obj
layer1_tl_0x1F                                    CMakeFiles/kiibohd.dir/Macro/PartialMap/macro.c.obj
layer1_tl_0x20                                    CMakeFiles/kiibohd.dir/Macro/PartialMap/macro.c.obj
layer1_tl_0x21                                    CMakeFiles/kiibohd.dir/Macro/PartialMap/macro.c.obj
layer1_tl_0x22                                    CMakeFiles/kiibohd.dir/Macro/PartialMap/macro.c.obj
layer1_tl_0x23                                    CMakeFiles/kiibohd.dir/Macro/PartialMap/macro.c.obj
layer1_tl_0x24                                    CMakeFiles/kiibohd.dir/Macro/PartialMap/macro.c.obj
layer1_tl_0x25                                    CMakeFiles/kiibohd.dir/Macro/PartialMap/macro.c.obj
layer1_tl_0x26                                    CMakeFiles/kiibohd.dir/Macro/PartialMap/macro.c.obj
layer1_tl_0x27                                    CMakeFiles/kiibohd.dir/Macro/PartialMap/macro.c.obj
layer1_tl_0x28                                    CMakeFiles/kiibohd.dir/Macro/PartialMap/macro.c.obj
layer1_tl_0x29                                    CMakeFiles/kiibohd.dir/Macro/PartialMap/macro.c.obj
layer1_tl_0x2A                                    CMakeFiles/kiibohd.dir/Macro/PartialMap/macro.c.obj
layer1_tl_0x2B                                    CMakeFiles/kiibohd.dir/Macro/PartialMap/macro.c.obj
layer1_tl_0x2C                                    CMakeFiles/kiibohd.dir/Macro/PartialMap/macro.c.obj
layer1_tl_0x2D                                    CMakeFiles/kiibohd.dir/Macro/PartialMap/macro.c.obj
layer1_tl_0x2E                                    CMakeFiles/kiibohd.dir/Macro/PartialMap/macro.c.obj
layer1_tl_0x2F                                    CMakeFiles/kiibohd.dir/Macro/PartialMap/macro.c.obj
layer1_tl_0x30                                    CMakeFiles/kiibohd.dir/Macro/PartialMap/macro.c.obj
layer1_tl_0x31                                    CMakeFiles/kiibohd.dir/Macro/PartialMap/macro.c.obj
layer1_tl_0x32                                    CMakeFiles/kiibohd.dir/Macro/PartialMap/macro.c.obj
layer1_tl_0x33                                    CMakeFiles/kiibohd.dir/Macro/PartialMap/macro.c.obj
layer1_tl_0x34                                    CMakeFiles/kiibohd.dir/Macro/PartialMap/macro.c.obj
layer1_tl_0x35                                    CMakeFiles/kiibohd.dir/Macro/PartialMap/macro.c.obj
layer1_tl_0x36                                    CMakeFiles/kiibohd.dir/Macro/PartialMap/macro.c.obj
layer1_tl_0x37                                    CMakeFiles/kiibohd.dir/Macro/PartialMap/macro.c.obj
layer1_tl_0x38                                    CMakeFiles/kiibohd.dir/Macro/PartialMap/macro.c.obj
layer1_tl_0x39                                    CMakeFiles/kiibohd.dir/Macro/PartialMap/macro.c.obj
layer1_tl_0x3A                                    CMakeFiles/kiibohd.dir/Macro/PartialMap/macro.c.obj
layer1_tl_0x3B                                    CMakeFiles/kiibohd.dir/Macro/PartialMap/macro.c.obj
layer1_tl_0x3C                                    CMakeFiles/kiibohd.dir/Macro/PartialMap/macro.c.obj
layer1_tl_0x3D                                    CMakeFiles/kiibohd.dir/Macro/PartialMap/macro.c.obj
layer1_tl_0x3E                                    CMakeFiles/kiibohd.dir/Macro/PartialMap/macro.c.obj
layer1_tl_0x3F                                    CMakeFiles/kiibohd.dir/Macro/PartialMap/macro.c.obj
layer1_tl_0x40                                    CMakeFiles/kiibohd.dir/Macro/PartialMap/macro.c.obj
layer1_tl_0x41                                    CMakeFiles/kiibohd.dir/Macro/PartialMap/macro.c.obj
layer1_tl_0x42                                    CMakeFiles/kiibohd.dir/Macro/PartialMap/macro.c.obj
layer1_tl_0x43                                    CMakeFiles/kiibohd.dir/Macro/PartialMap/macro.c.obj
layer1_tl_0x44                                    CMakeFiles/kiibohd.dir/Macro/PartialMap/macro.c.obj
layer1_tl_0x45                                    CMakeFiles/kiibohd.dir/Macro/PartialMap/macro.c.obj
layer1_tl_0x46                                    CMakeFiles/kiibohd.dir/Macro/PartialMap/macro.c.obj
layer1_tl_0x47                                    CMakeFiles/kiibohd.dir/Macro/PartialMap/macro.c.obj
layer1_tl_0x48                                    CMakeFiles/kiibohd.dir/Macro/PartialMap/macro.c.obj
layerDebugCLIDict_DescEntry                       CMakeFiles/kiibohd.dir/Macro/PartialMap/macro.c.obj
layerDebugMode                                    CMakeFiles/kiibohd.dir/Macro/PartialMap/macro.c.obj
layerListCLIDict_DescEntry                        CMakeFiles/kiibohd.dir/Macro/PartialMap/macro.c.obj
layerStateCLIDict_DescEntry                       CMakeFiles/kiibohd.dir/Macro/PartialMap/macro.c.obj
lcdCLIDict                                        CMakeFiles/kiibohd.dir/Scan/Devices/STLcd/lcd_scan.c.obj
lcdCLIDictName                                    CMakeFiles/kiibohd.dir/Scan/Devices/STLcd/lcd_scan.c.obj
lcdCmdCLIDict_DescEntry                           CMakeFiles/kiibohd.dir/Scan/Devices/STLcd/lcd_scan.c.obj
lcdColorCLIDict_DescEntry                         CMakeFiles/kiibohd.dir/Scan/Devices/STLcd/lcd_scan.c.obj
lcdDispCLIDict_DescEntry                          CMakeFiles/kiibohd.dir/Scan/Devices/STLcd/lcd_scan.c.obj
lcdInitCLIDict_DescEntry                          CMakeFiles/kiibohd.dir/Scan/Devices/STLcd/lcd_scan.c.obj
lcdTestCLIDict_DescEntry                          CMakeFiles/kiibohd.dir/Scan/Devices/STLcd/lcd_scan.c.obj
ledCLIDict                                        CMakeFiles/kiibohd.dir/Scan/Devices/ISSILed/led_scan.c.obj
ledCLIDictName                                    CMakeFiles/kiibohd.dir/Scan/Devices/ISSILed/led_scan.c.obj
ledCLIDict_DescEntry                              CMakeFiles/kiibohd.dir/Debug/cli/cli.c.obj
ledCheckCLIDict_DescEntry                         CMakeFiles/kiibohd.dir/Scan/Devices/ISSILed/led_scan.c.obj
ledFPSCLIDict_DescEntry                           CMakeFiles/kiibohd.dir/Scan/Devices/ISSILed/led_scan.c.obj
ledResetCLIDict_DescEntry                         CMakeFiles/kiibohd.dir/Scan/Devices/ISSILed/led_scan.c.obj
ledSetCLIDict_DescEntry                           CMakeFiles/kiibohd.dir/Scan/Devices/ISSILed/led_scan.c.obj
ledToggleCLIDict_DescEntry                        CMakeFiles/kiibohd.dir/Scan/Devices/ISSILed/led_scan.c.obj
lenStr                                            CMakeFiles/kiibohd.dir/Debug/print/print.c.obj
                                                  CMakeFiles/kiibohd.dir/Debug/cli/cli.c.obj
low_voltage_isr                                   CMakeFiles/kiibohd.dir/Lib/kinetis.c.obj
lptmr_isr                                         CMakeFiles/kiibohd.dir/Lib/entropy.c.obj
                                                  CMakeFiles/kiibohd.dir/Lib/kinetis.c.obj
lpuart0_status_isr                                CMakeFiles/kiibohd.dir/Lib/kinetis.c.obj
macroCLIDict                                      CMakeFiles/kiibohd.dir/Macro/PartialMap/macro.c.obj
macroCLIDictName                                  CMakeFiles/kiibohd.dir/Macro/PartialMap/macro.c.obj
macroDebugCLIDict_DescEntry                       CMakeFiles/kiibohd.dir/Macro/PartialMap/macro.c.obj
macroDebugMode                                    CMakeFiles/kiibohd.dir/Macro/PartialMap/macro.c.obj
macroDebugShowResult                              CMakeFiles/kiibohd.dir/Macro/PartialMap/macro.c.obj
macroDebugShowTrigger                             CMakeFiles/kiibohd.dir/Macro/PartialMap/macro.c.obj
macroInterconnectCache                            CMakeFiles/kiibohd.dir/Macro/PartialMap/macro.c.obj
macroInterconnectCacheSize                        CMakeFiles/kiibohd.dir/Macro/PartialMap/macro.c.obj
macroLayerIndexStack                              CMakeFiles/kiibohd.dir/Macro/PartialMap/macro.c.obj
                                                  CMakeFiles/kiibohd.dir/Scan/Devices/STLcd/lcd_scan.c.obj
macroLayerIndexStackSize                          CMakeFiles/kiibohd.dir/Macro/PartialMap/macro.c.obj
                                                  CMakeFiles/kiibohd.dir/Scan/Devices/STLcd/lcd_scan.c.obj
macroListCLIDict_DescEntry                        CMakeFiles/kiibohd.dir/Macro/PartialMap/macro.c.obj
macroPauseMode                                    CMakeFiles/kiibohd.dir/Macro/PartialMap/macro.c.obj
macroProcCLIDict_DescEntry                        CMakeFiles/kiibohd.dir/Macro/PartialMap/macro.c.obj
macroResultDelayedCapabilities                    CMakeFiles/kiibohd.dir/Macro/PartialMap/result.c.obj
macroResultMacroPendingList                       CMakeFiles/kiibohd.dir/Macro/PartialMap/result.c.obj
                                                  CMakeFiles/kiibohd.dir/Macro/PartialMap/macro.c.obj
macroShowCLIDict_DescEntry                        CMakeFiles/kiibohd.dir/Macro/PartialMap/macro.c.obj
macroStepCLIDict_DescEntry                        CMakeFiles/kiibohd.dir/Macro/PartialMap/macro.c.obj
macroStepCounter                                  CMakeFiles/kiibohd.dir/Macro/PartialMap/macro.c.obj
macroTriggerEventBuffer                           CMakeFiles/kiibohd.dir/Macro/PartialMap/macro.c.obj
                                                  CMakeFiles/kiibohd.dir/Macro/PartialMap/trigger.c.obj
macroTriggerEventBufferSize                       CMakeFiles/kiibohd.dir/Macro/PartialMap/macro.c.obj
                                                  CMakeFiles/kiibohd.dir/Macro/PartialMap/trigger.c.obj
macroTriggerEventLayerCache                       CMakeFiles/kiibohd.dir/Macro/PartialMap/macro.c.obj
macroTriggerMacroPendingList                      CMakeFiles/kiibohd.dir/Macro/PartialMap/trigger.c.obj
                                                  CMakeFiles/kiibohd.dir/Macro/PartialMap/macro.c.obj
macroTriggerMacroPendingListSize                  CMakeFiles/kiibohd.dir/Macro/PartialMap/trigger.c.obj
                                                  CMakeFiles/kiibohd.dir/Macro/PartialMap/macro.c.obj
main                                              CMakeFiles/kiibohd.dir/main.c.obj
                                                  CMakeFiles/kiibohd.dir/Lib/kinetis.c.obj
main_periodic                                     CMakeFiles/kiibohd.dir/main.c.obj
matrixCLIDict                                     CMakeFiles/kiibohd.dir/Scan/Devices/MatrixARMPeriodic/matrix_scan.c.obj
matrixCLIDictName                                 CMakeFiles/kiibohd.dir/Scan/Devices/MatrixARMPeriodic/matrix_scan.c.obj
matrixDebugCLIDict_DescEntry                      CMakeFiles/kiibohd.dir/Scan/Devices/MatrixARMPeriodic/matrix_scan.c.obj
matrixInfoCLIDict_DescEntry                       CMakeFiles/kiibohd.dir/Scan/Devices/MatrixARMPeriodic/matrix_scan.c.obj
matrixStateCLIDict_DescEntry                      CMakeFiles/kiibohd.dir/Scan/Devices/MatrixARMPeriodic/matrix_scan.c.obj
mcg_isr                                           CMakeFiles/kiibohd.dir/Lib/kinetis.c.obj
mcm_isr                                           CMakeFiles/kiibohd.dir/Lib/kinetis.c.obj
memcmp                                            CMakeFiles/kiibohd.dir/Lib/kinetis.c.obj
memcpy                                            CMakeFiles/kiibohd.dir/Lib/kinetis.c.obj
                                                  CMakeFiles/kiibohd.dir/Output/USB/arm/usb_serial.c.obj
                                                  CMakeFiles/kiibohd.dir/Output/USB/arm/usb_rawio.c.obj
                                                  CMakeFiles/kiibohd.dir/Output/USB/arm/usb_keyboard.c.obj
                                                  CMakeFiles/kiibohd.dir/Output/USB/arm/usb_dev.c.obj
                                                  CMakeFiles/kiibohd.dir/Output/HID-IO/hidio_com.c.obj
                                                  CMakeFiles/kiibohd.dir/Macro/PixelMap/pixel.c.obj
                                                  CMakeFiles/kiibohd.dir/Macro/PartialMap/result.c.obj
                                                  CMakeFiles/kiibohd.dir/Scan/Devices/STLcd/lcd_scan.c.obj
memmanage_fault_default_isr                       CMakeFiles/kiibohd.dir/Lib/kinetis.c.obj
memmanage_fault_isr                               CMakeFiles/kiibohd.dir/Lib/kinetis.c.obj
memset                                            CMakeFiles/kiibohd.dir/Lib/kinetis.c.obj
                                                  CMakeFiles/kiibohd.dir/Debug/latency/latency.c.obj
                                                  CMakeFiles/kiibohd.dir/Output/USB/arm/usb_keyboard.c.obj
                                                  CMakeFiles/kiibohd.dir/Output/USB/output_usb.c.obj
                                                  CMakeFiles/kiibohd.dir/Scan/Devices/UARTConnect/connect_scan.c.obj
                                                  CMakeFiles/kiibohd.dir/Scan/Devices/STLcd/lcd_scan.c.obj
                                                  CMakeFiles/kiibohd.dir/Scan/Devices/ISSILed/led_scan.c.obj
ms_now                                            CMakeFiles/kiibohd.dir/Lib/delay.c.obj
nmi_default_isr                                   CMakeFiles/kiibohd.dir/Lib/kinetis.c.obj
nmi_isr                                           CMakeFiles/kiibohd.dir/Lib/kinetis.c.obj
numToInt                                          CMakeFiles/kiibohd.dir/Debug/print/print.c.obj
                                                  CMakeFiles/kiibohd.dir/Debug/cli/cli.c.obj
                                                  CMakeFiles/kiibohd.dir/Output/USB/output_usb.c.obj
                                                  CMakeFiles/kiibohd.dir/Output/Interface/output_gen.c.obj
                                                  CMakeFiles/kiibohd.dir/Macro/PixelMap/pixel.c.obj
                                                  CMakeFiles/kiibohd.dir/Macro/PartialMap/macro.c.obj
                                                  CMakeFiles/kiibohd.dir/Scan/Devices/UARTConnect/connect_scan.c.obj
                                                  CMakeFiles/kiibohd.dir/Scan/Devices/STLcd/lcd_scan.c.obj
                                                  CMakeFiles/kiibohd.dir/Scan/Devices/MatrixARMPeriodic/matrix_scan.c.obj
                                                  CMakeFiles/kiibohd.dir/Scan/Devices/ISSILed/led_scan.c.obj
nvic_execution_priority                           CMakeFiles/kiibohd.dir/Lib/kinetis.c.obj
outputCLIDict                                     CMakeFiles/kiibohd.dir/Output/Interface/output_gen.c.obj
outputCLIDictName                                 CMakeFiles/kiibohd.dir/Output/Interface/output_gen.c.obj
outputDebugCLIDict_DescEntry                      CMakeFiles/kiibohd.dir/Output/Interface/output_gen.c.obj
pdb_isr                                           CMakeFiles/kiibohd.dir/Lib/kinetis.c.obj
pendablesrvreq_isr                                CMakeFiles/kiibohd.dir/Lib/kinetis.c.obj
periodicCLIDict_DescEntry                         CMakeFiles/kiibohd.dir/Debug/cli/cli.c.obj
pit0_isr                                          CMakeFiles/kiibohd.dir/Lib/periodic.c.obj
                                                  CMakeFiles/kiibohd.dir/Lib/kinetis.c.obj
pit1_isr                                          CMakeFiles/kiibohd.dir/Lib/kinetis.c.obj
pit2_isr                                          CMakeFiles/kiibohd.dir/Lib/kinetis.c.obj
pit3_isr                                          CMakeFiles/kiibohd.dir/Lib/kinetis.c.obj
pit_isr                                           CMakeFiles/kiibohd.dir/Lib/kinetis.c.obj
pixelCLIDict                                      CMakeFiles/kiibohd.dir/Macro/PixelMap/pixel.c.obj
pixelCLIDictName                                  CMakeFiles/kiibohd.dir/Macro/PixelMap/pixel.c.obj
pixelListCLIDict_DescEntry                        CMakeFiles/kiibohd.dir/Macro/PixelMap/pixel.c.obj
pixelSCTestCLIDict_DescEntry                      CMakeFiles/kiibohd.dir/Macro/PixelMap/pixel.c.obj
pixelTestCLIDict_DescEntry                        CMakeFiles/kiibohd.dir/Macro/PixelMap/pixel.c.obj
pixelXYTestCLIDict_DescEntry                      CMakeFiles/kiibohd.dir/Macro/PixelMap/pixel.c.obj
porta_isr                                         CMakeFiles/kiibohd.dir/Lib/kinetis.c.obj
portb_isr                                         CMakeFiles/kiibohd.dir/Lib/kinetis.c.obj
portc_isr                                         CMakeFiles/kiibohd.dir/Lib/kinetis.c.obj
portcd_isr                                        CMakeFiles/kiibohd.dir/Lib/kinetis.c.obj
portd_isr                                         CMakeFiles/kiibohd.dir/Lib/kinetis.c.obj
porte_isr                                         CMakeFiles/kiibohd.dir/Lib/kinetis.c.obj
posListCLIDict_DescEntry                          CMakeFiles/kiibohd.dir/Macro/PartialMap/macro.c.obj
printChar                                         CMakeFiles/kiibohd.dir/Debug/print/print.c.obj
printHex32_op                                     CMakeFiles/kiibohd.dir/Debug/print/print.c.obj
                                                  CMakeFiles/kiibohd.dir/Debug/cli/cli.c.obj
                                                  CMakeFiles/kiibohd.dir/Macro/PixelMap/pixel.c.obj
                                                  CMakeFiles/kiibohd.dir/Scan/Devices/UARTConnect/connect_scan.c.obj
                                                  CMakeFiles/kiibohd.dir/Lib/kinetis.c.obj
printHex_op                                       CMakeFiles/kiibohd.dir/Debug/print/print.c.obj
                                                  CMakeFiles/kiibohd.dir/Debug/cli/cli.c.obj
                                                  CMakeFiles/kiibohd.dir/Output/USB/arm/usb_keyboard.c.obj
                                                  CMakeFiles/kiibohd.dir/Output/USB/arm/usb_dev.c.obj
                                                  CMakeFiles/kiibohd.dir/Output/USB/output_usb.c.obj
                                                  CMakeFiles/kiibohd.dir/Macro/PixelMap/pixel.c.obj
                                                  CMakeFiles/kiibohd.dir/Macro/PartialMap/macro.c.obj
                                                  CMakeFiles/kiibohd.dir/Scan/Devices/UARTConnect/connect_scan.c.obj
                                                  CMakeFiles/kiibohd.dir/Scan/Devices/STLcd/lcd_scan.c.obj
                                                  CMakeFiles/kiibohd.dir/Scan/Devices/MatrixARMPeriodic/matrix_scan.c.obj
                                                  CMakeFiles/kiibohd.dir/Scan/Devices/ISSILed/i2c.c.obj
                                                  CMakeFiles/kiibohd.dir/Lib/kinetis.c.obj
printInt16                                        CMakeFiles/kiibohd.dir/Debug/print/print.c.obj
                                                  CMakeFiles/kiibohd.dir/Debug/cli/cli.c.obj
                                                  CMakeFiles/kiibohd.dir/Output/USB/output_usb.c.obj
                                                  CMakeFiles/kiibohd.dir/Output/Interface/output_gen.c.obj
                                                  CMakeFiles/kiibohd.dir/Output/HID-IO/hidio_com.c.obj
                                                  CMakeFiles/kiibohd.dir/Macro/PixelMap/pixel.c.obj
                                                  CMakeFiles/kiibohd.dir/Macro/PartialMap/macro.c.obj
                                                  CMakeFiles/kiibohd.dir/Scan/Devices/MatrixARMPeriodic/matrix_scan.c.obj
printInt32                                        CMakeFiles/kiibohd.dir/Debug/print/print.c.obj
                                                  CMakeFiles/kiibohd.dir/Debug/cli/cli.c.obj
                                                  CMakeFiles/kiibohd.dir/Output/USB/output_usb.c.obj
                                                  CMakeFiles/kiibohd.dir/Output/Interface/output_gen.c.obj
                                                  CMakeFiles/kiibohd.dir/Output/HID-IO/hidio_com.c.obj
                                                  CMakeFiles/kiibohd.dir/Macro/PixelMap/pixel.c.obj
                                                  CMakeFiles/kiibohd.dir/Macro/PartialMap/macro.c.obj
                                                  CMakeFiles/kiibohd.dir/Scan/Devices/MatrixARMPeriodic/matrix_scan.c.obj
                                                  CMakeFiles/kiibohd.dir/Scan/Devices/ISSILed/led_scan.c.obj
printInt8                                         CMakeFiles/kiibohd.dir/Debug/print/print.c.obj
                                                  CMakeFiles/kiibohd.dir/Debug/cli/cli.c.obj
                                                  CMakeFiles/kiibohd.dir/Output/USB/output_usb.c.obj
                                                  CMakeFiles/kiibohd.dir/Macro/PixelMap/pixel.c.obj
                                                  CMakeFiles/kiibohd.dir/Macro/PartialMap/macro.c.obj
                                                  CMakeFiles/kiibohd.dir/Scan/Devices/UARTConnect/connect_scan.c.obj
                                                  CMakeFiles/kiibohd.dir/Scan/Devices/MatrixARMPeriodic/matrix_scan.c.obj
printLatency                                      CMakeFiles/kiibohd.dir/Debug/cli/cli.c.obj
printstrs                                         CMakeFiles/kiibohd.dir/Debug/print/print.c.obj
                                                  CMakeFiles/kiibohd.dir/Debug/cli/cli.c.obj
prompt                                            CMakeFiles/kiibohd.dir/Debug/cli/cli.c.obj
randCLIDict_DescEntry                             CMakeFiles/kiibohd.dir/Debug/cli/cli.c.obj
rand_available                                    CMakeFiles/kiibohd.dir/Lib/entropy.c.obj
                                                  CMakeFiles/kiibohd.dir/Debug/cli/cli.c.obj
rand_disable                                      CMakeFiles/kiibohd.dir/Lib/entropy.c.obj
rand_initialize                                   CMakeFiles/kiibohd.dir/Lib/entropy.c.obj
                                                  CMakeFiles/kiibohd.dir/Lib/kinetis.c.obj
rand_value32                                      CMakeFiles/kiibohd.dir/Lib/entropy.c.obj
                                                  CMakeFiles/kiibohd.dir/Debug/cli/cli.c.obj
randnum_isr                                       CMakeFiles/kiibohd.dir/Lib/kinetis.c.obj
readLEDsCLIDict_DescEntry                         CMakeFiles/kiibohd.dir/Output/USB/output_usb.c.obj
rectDispCLIDict_DescEntry                         CMakeFiles/kiibohd.dir/Macro/PixelMap/pixel.c.obj
reloadCLIDict_DescEntry                           CMakeFiles/kiibohd.dir/Debug/cli/cli.c.obj
resetCLIDict_DescEntry                            CMakeFiles/kiibohd.dir/Debug/cli/cli.c.obj
restartCLIDict_DescEntry                          CMakeFiles/kiibohd.dir/Debug/cli/cli.c.obj
revsStr                                           CMakeFiles/kiibohd.dir/Debug/print/print.c.obj
rm0_guide                                         CMakeFiles/kiibohd.dir/Macro/PartialMap/macro.c.obj
rm10_guide                                        CMakeFiles/kiibohd.dir/Macro/PartialMap/macro.c.obj
rm11_guide                                        CMakeFiles/kiibohd.dir/Macro/PartialMap/macro.c.obj
rm12_guide                                        CMakeFiles/kiibohd.dir/Macro/PartialMap/macro.c.obj
rm13_guide                                        CMakeFiles/kiibohd.dir/Macro/PartialMap/macro.c.obj
rm14_guide                                        CMakeFiles/kiibohd.dir/Macro/PartialMap/macro.c.obj
rm15_guide                                        CMakeFiles/kiibohd.dir/Macro/PartialMap/macro.c.obj
rm16_guide                                        CMakeFiles/kiibohd.dir/Macro/PartialMap/macro.c.obj
rm17_guide                                        CMakeFiles/kiibohd.dir/Macro/PartialMap/macro.c.obj
rm18_guide                                        CMakeFiles/kiibohd.dir/Macro/PartialMap/macro.c.obj
rm19_guide                                        CMakeFiles/kiibohd.dir/Macro/PartialMap/macro.c.obj
rm1_guide                                         CMakeFiles/kiibohd.dir/Macro/PartialMap/macro.c.obj
rm20_guide                                        CMakeFiles/kiibohd.dir/Macro/PartialMap/macro.c.obj
rm21_guide                                        CMakeFiles/kiibohd.dir/Macro/PartialMap/macro.c.obj
rm22_guide                                        CMakeFiles/kiibohd.dir/Macro/PartialMap/macro.c.obj
rm23_guide                                        CMakeFiles/kiibohd.dir/Macro/PartialMap/macro.c.obj
rm24_guide                                        CMakeFiles/kiibohd.dir/Macro/PartialMap/macro.c.obj
rm25_guide                                        CMakeFiles/kiibohd.dir/Macro/PartialMap/macro.c.obj
rm26_guide                                        CMakeFiles/kiibohd.dir/Macro/PartialMap/macro.c.obj
rm27_guide                                        CMakeFiles/kiibohd.dir/Macro/PartialMap/macro.c.obj
rm28_guide                                        CMakeFiles/kiibohd.dir/Macro/PartialMap/macro.c.obj
rm29_guide                                        CMakeFiles/kiibohd.dir/Macro/PartialMap/macro.c.obj
rm2_guide                                         CMakeFiles/kiibohd.dir/Macro/PartialMap/macro.c.obj
rm30_guide                                        CMakeFiles/kiibohd.dir/Macro/PartialMap/macro.c.obj
rm31_guide                                        CMakeFiles/kiibohd.dir/Macro/PartialMap/macro.c.obj
rm32_guide                                        CMakeFiles/kiibohd.dir/Macro/PartialMap/macro.c.obj
rm33_guide                                        CMakeFiles/kiibohd.dir/Macro/PartialMap/macro.c.obj
rm34_guide                                        CMakeFiles/kiibohd.dir/Macro/PartialMap/macro.c.obj
rm35_guide                                        CMakeFiles/kiibohd.dir/Macro/PartialMap/macro.c.obj
rm36_guide                                        CMakeFiles/kiibohd.dir/Macro/PartialMap/macro.c.obj
rm37_guide                                        CMakeFiles/kiibohd.dir/Macro/PartialMap/macro.c.obj
rm38_guide                                        CMakeFiles/kiibohd.dir/Macro/PartialMap/macro.c.obj
rm39_guide                                        CMakeFiles/kiibohd.dir/Macro/PartialMap/macro.c.obj
rm3_guide                                         CMakeFiles/kiibohd.dir/Macro/PartialMap/macro.c.obj
rm40_guide                                        CMakeFiles/kiibohd.dir/Macro/PartialMap/macro.c.obj
rm41_guide                                        CMakeFiles/kiibohd.dir/Macro/PartialMap/macro.c.obj
rm42_guide                                        CMakeFiles/kiibohd.dir/Macro/PartialMap/macro.c.obj
rm43_guide                                        CMakeFiles/kiibohd.dir/Macro/PartialMap/macro.c.obj
rm44_guide                                        CMakeFiles/kiibohd.dir/Macro/PartialMap/macro.c.obj
rm45_guide                                        CMakeFiles/kiibohd.dir/Macro/PartialMap/macro.c.obj
rm46_guide                                        CMakeFiles/kiibohd.dir/Macro/PartialMap/macro.c.obj
rm47_guide                                        CMakeFiles/kiibohd.dir/Macro/PartialMap/macro.c.obj
rm48_guide                                        CMakeFiles/kiibohd.dir/Macro/PartialMap/macro.c.obj
rm49_guide                                        CMakeFiles/kiibohd.dir/Macro/PartialMap/macro.c.obj
rm4_guide                                         CMakeFiles/kiibohd.dir/Macro/PartialMap/macro.c.obj
rm50_guide                                        CMakeFiles/kiibohd.dir/Macro/PartialMap/macro.c.obj
rm51_guide                                        CMakeFiles/kiibohd.dir/Macro/PartialMap/macro.c.obj
rm52_guide                                        CMakeFiles/kiibohd.dir/Macro/PartialMap/macro.c.obj
rm53_guide                                        CMakeFiles/kiibohd.dir/Macro/PartialMap/macro.c.obj
rm54_guide                                        CMakeFiles/kiibohd.dir/Macro/PartialMap/macro.c.obj
rm55_guide                                        CMakeFiles/kiibohd.dir/Macro/PartialMap/macro.c.obj
rm56_guide                                        CMakeFiles/kiibohd.dir/Macro/PartialMap/macro.c.obj
rm57_guide                                        CMakeFiles/kiibohd.dir/Macro/PartialMap/macro.c.obj
rm58_guide                                        CMakeFiles/kiibohd.dir/Macro/PartialMap/macro.c.obj
rm59_guide                                        CMakeFiles/kiibohd.dir/Macro/PartialMap/macro.c.obj
rm5_guide                                         CMakeFiles/kiibohd.dir/Macro/PartialMap/macro.c.obj
rm60_guide                                        CMakeFiles/kiibohd.dir/Macro/PartialMap/macro.c.obj
rm61_guide                                        CMakeFiles/kiibohd.dir/Macro/PartialMap/macro.c.obj
rm62_guide                                        CMakeFiles/kiibohd.dir/Macro/PartialMap/macro.c.obj
rm63_guide                                        CMakeFiles/kiibohd.dir/Macro/PartialMap/macro.c.obj
rm64_guide                                        CMakeFiles/kiibohd.dir/Macro/PartialMap/macro.c.obj
rm65_guide                                        CMakeFiles/kiibohd.dir/Macro/PartialMap/macro.c.obj
rm66_guide                                        CMakeFiles/kiibohd.dir/Macro/PartialMap/macro.c.obj
rm67_guide                                        CMakeFiles/kiibohd.dir/Macro/PartialMap/macro.c.obj
rm68_guide                                        CMakeFiles/kiibohd.dir/Macro/PartialMap/macro.c.obj
rm69_guide                                        CMakeFiles/kiibohd.dir/Macro/PartialMap/macro.c.obj
rm6_guide                                         CMakeFiles/kiibohd.dir/Macro/PartialMap/macro.c.obj
rm70_guide                                        CMakeFiles/kiibohd.dir/Macro/PartialMap/macro.c.obj
rm71_guide                                        CMakeFiles/kiibohd.dir/Macro/PartialMap/macro.c.obj
rm72_guide                                        CMakeFiles/kiibohd.dir/Macro/PartialMap/macro.c.obj
rm73_guide                                        CMakeFiles/kiibohd.dir/Macro/PartialMap/macro.c.obj
rm74_guide                                        CMakeFiles/kiibohd.dir/Macro/PartialMap/macro.c.obj
rm75_guide                                        CMakeFiles/kiibohd.dir/Macro/PartialMap/macro.c.obj
rm76_guide                                        CMakeFiles/kiibohd.dir/Macro/PartialMap/macro.c.obj
rm77_guide                                        CMakeFiles/kiibohd.dir/Macro/PartialMap/macro.c.obj
rm78_guide                                        CMakeFiles/kiibohd.dir/Macro/PartialMap/macro.c.obj
rm79_guide                                        CMakeFiles/kiibohd.dir/Macro/PartialMap/macro.c.obj
rm7_guide                                         CMakeFiles/kiibohd.dir/Macro/PartialMap/macro.c.obj
rm80_guide                                        CMakeFiles/kiibohd.dir/Macro/PartialMap/macro.c.obj
rm81_guide                                        CMakeFiles/kiibohd.dir/Macro/PartialMap/macro.c.obj
rm82_guide                                        CMakeFiles/kiibohd.dir/Macro/PartialMap/macro.c.obj
rm83_guide                                        CMakeFiles/kiibohd.dir/Macro/PartialMap/macro.c.obj
rm84_guide                                        CMakeFiles/kiibohd.dir/Macro/PartialMap/macro.c.obj
rm85_guide                                        CMakeFiles/kiibohd.dir/Macro/PartialMap/macro.c.obj
rm86_guide                                        CMakeFiles/kiibohd.dir/Macro/PartialMap/macro.c.obj
rm87_guide                                        CMakeFiles/kiibohd.dir/Macro/PartialMap/macro.c.obj
rm88_guide                                        CMakeFiles/kiibohd.dir/Macro/PartialMap/macro.c.obj
rm89_guide                                        CMakeFiles/kiibohd.dir/Macro/PartialMap/macro.c.obj
rm8_guide                                         CMakeFiles/kiibohd.dir/Macro/PartialMap/macro.c.obj
rm90_guide                                        CMakeFiles/kiibohd.dir/Macro/PartialMap/macro.c.obj
rm91_guide                                        CMakeFiles/kiibohd.dir/Macro/PartialMap/macro.c.obj
rm92_guide                                        CMakeFiles/kiibohd.dir/Macro/PartialMap/macro.c.obj
rm93_guide                                        CMakeFiles/kiibohd.dir/Macro/PartialMap/macro.c.obj
rm94_guide                                        CMakeFiles/kiibohd.dir/Macro/PartialMap/macro.c.obj
rm95_guide                                        CMakeFiles/kiibohd.dir/Macro/PartialMap/macro.c.obj
rm96_guide                                        CMakeFiles/kiibohd.dir/Macro/PartialMap/macro.c.obj
rm97_guide                                        CMakeFiles/kiibohd.dir/Macro/PartialMap/macro.c.obj
rm98_guide                                        CMakeFiles/kiibohd.dir/Macro/PartialMap/macro.c.obj
rm9_guide                                         CMakeFiles/kiibohd.dir/Macro/PartialMap/macro.c.obj
rtc_alarm_isr                                     CMakeFiles/kiibohd.dir/Lib/kinetis.c.obj
rtc_seconds_isr                                   CMakeFiles/kiibohd.dir/Lib/kinetis.c.obj
sdhc_isr                                          CMakeFiles/kiibohd.dir/Lib/kinetis.c.obj
software_isr                                      CMakeFiles/kiibohd.dir/Lib/kinetis.c.obj
spi0_isr                                          CMakeFiles/kiibohd.dir/Lib/kinetis.c.obj
spi1_isr                                          CMakeFiles/kiibohd.dir/Lib/kinetis.c.obj
spi2_isr                                          CMakeFiles/kiibohd.dir/Lib/kinetis.c.obj
string0                                           CMakeFiles/kiibohd.dir/Output/USB/arm/usb_desc.c.obj
strobeDelayCLIDict_DescEntry                      CMakeFiles/kiibohd.dir/Scan/Devices/MatrixARMPeriodic/matrix_scan.c.obj
svcall_isr                                        CMakeFiles/kiibohd.dir/Lib/kinetis.c.obj
sys_reset_to_loader_magic                         CMakeFiles/kiibohd.dir/Lib/kinetis.c.obj
                                                  CMakeFiles/kiibohd.dir/Output/USB/arm/usb_dev.c.obj
systick_default_isr                               CMakeFiles/kiibohd.dir/Lib/kinetis.c.obj
systick_isr                                       CMakeFiles/kiibohd.dir/Lib/kinetis.c.obj
systick_millis_count                              CMakeFiles/kiibohd.dir/Lib/delay.c.obj
                                                  CMakeFiles/kiibohd.dir/Output/USB/arm/usb_keyboard.c.obj
                                                  CMakeFiles/kiibohd.dir/Output/USB/arm/usb_dev.c.obj
                                                  CMakeFiles/kiibohd.dir/Scan/Devices/UARTConnect/connect_scan.c.obj
                                                  CMakeFiles/kiibohd.dir/Scan/Devices/MatrixARMPeriodic/matrix_scan.c.obj
                                                  CMakeFiles/kiibohd.dir/Lib/time.c.obj
                                                  CMakeFiles/kiibohd.dir/Lib/kinetis.c.obj
tickCLIDict_DescEntry                             CMakeFiles/kiibohd.dir/Debug/cli/cli.c.obj
tm0_guide                                         CMakeFiles/kiibohd.dir/Macro/PartialMap/macro.c.obj
tm10_guide                                        CMakeFiles/kiibohd.dir/Macro/PartialMap/macro.c.obj
tm11_guide                                        CMakeFiles/kiibohd.dir/Macro/PartialMap/macro.c.obj
tm12_guide                                        CMakeFiles/kiibohd.dir/Macro/PartialMap/macro.c.obj
tm13_guide                                        CMakeFiles/kiibohd.dir/Macro/PartialMap/macro.c.obj
tm14_guide                                        CMakeFiles/kiibohd.dir/Macro/PartialMap/macro.c.obj
tm15_guide                                        CMakeFiles/kiibohd.dir/Macro/PartialMap/macro.c.obj
tm16_guide                                        CMakeFiles/kiibohd.dir/Macro/PartialMap/macro.c.obj
tm17_guide                                        CMakeFiles/kiibohd.dir/Macro/PartialMap/macro.c.obj
tm18_guide                                        CMakeFiles/kiibohd.dir/Macro/PartialMap/macro.c.obj
tm19_guide                                        CMakeFiles/kiibohd.dir/Macro/PartialMap/macro.c.obj
tm1_guide                                         CMakeFiles/kiibohd.dir/Macro/PartialMap/macro.c.obj
tm20_guide                                        CMakeFiles/kiibohd.dir/Macro/PartialMap/macro.c.obj
tm21_guide                                        CMakeFiles/kiibohd.dir/Macro/PartialMap/macro.c.obj
tm22_guide                                        CMakeFiles/kiibohd.dir/Macro/PartialMap/macro.c.obj
tm23_guide                                        CMakeFiles/kiibohd.dir/Macro/PartialMap/macro.c.obj
tm24_guide                                        CMakeFiles/kiibohd.dir/Macro/PartialMap/macro.c.obj
tm25_guide                                        CMakeFiles/kiibohd.dir/Macro/PartialMap/macro.c.obj
tm26_guide                                        CMakeFiles/kiibohd.dir/Macro/PartialMap/macro.c.obj
tm27_guide                                        CMakeFiles/kiibohd.dir/Macro/PartialMap/macro.c.obj
tm28_guide                                        CMakeFiles/kiibohd.dir/Macro/PartialMap/macro.c.obj
tm29_guide                                        CMakeFiles/kiibohd.dir/Macro/PartialMap/macro.c.obj
tm2_guide                                         CMakeFiles/kiibohd.dir/Macro/PartialMap/macro.c.obj
tm30_guide                                        CMakeFiles/kiibohd.dir/Macro/PartialMap/macro.c.obj
tm31_guide                                        CMakeFiles/kiibohd.dir/Macro/PartialMap/macro.c.obj
tm32_guide                                        CMakeFiles/kiibohd.dir/Macro/PartialMap/macro.c.obj
tm33_guide                                        CMakeFiles/kiibohd.dir/Macro/PartialMap/macro.c.obj
tm34_guide                                        CMakeFiles/kiibohd.dir/Macro/PartialMap/macro.c.obj
tm35_guide                                        CMakeFiles/kiibohd.dir/Macro/PartialMap/macro.c.obj
tm36_guide                                        CMakeFiles/kiibohd.dir/Macro/PartialMap/macro.c.obj
tm37_guide                                        CMakeFiles/kiibohd.dir/Macro/PartialMap/macro.c.obj
tm38_guide                                        CMakeFiles/kiibohd.dir/Macro/PartialMap/macro.c.obj
tm39_guide                                        CMakeFiles/kiibohd.dir/Macro/PartialMap/macro.c.obj
tm3_guide                                         CMakeFiles/kiibohd.dir/Macro/PartialMap/macro.c.obj
tm40_guide                                        CMakeFiles/kiibohd.dir/Macro/PartialMap/macro.c.obj
tm41_guide                                        CMakeFiles/kiibohd.dir/Macro/PartialMap/macro.c.obj
tm42_guide                                        CMakeFiles/kiibohd.dir/Macro/PartialMap/macro.c.obj
tm43_guide                                        CMakeFiles/kiibohd.dir/Macro/PartialMap/macro.c.obj
tm44_guide                                        CMakeFiles/kiibohd.dir/Macro/PartialMap/macro.c.obj
tm45_guide                                        CMakeFiles/kiibohd.dir/Macro/PartialMap/macro.c.obj
tm46_guide                                        CMakeFiles/kiibohd.dir/Macro/PartialMap/macro.c.obj
tm47_guide                                        CMakeFiles/kiibohd.dir/Macro/PartialMap/macro.c.obj
tm48_guide                                        CMakeFiles/kiibohd.dir/Macro/PartialMap/macro.c.obj
tm49_guide                                        CMakeFiles/kiibohd.dir/Macro/PartialMap/macro.c.obj
tm4_guide                                         CMakeFiles/kiibohd.dir/Macro/PartialMap/macro.c.obj
tm50_guide                                        CMakeFiles/kiibohd.dir/Macro/PartialMap/macro.c.obj
tm51_guide                                        CMakeFiles/kiibohd.dir/Macro/PartialMap/macro.c.obj
tm52_guide                                        CMakeFiles/kiibohd.dir/Macro/PartialMap/macro.c.obj
tm53_guide                                        CMakeFiles/kiibohd.dir/Macro/PartialMap/macro.c.obj
tm54_guide                                        CMakeFiles/kiibohd.dir/Macro/PartialMap/macro.c.obj
tm55_guide                                        CMakeFiles/kiibohd.dir/Macro/PartialMap/macro.c.obj
tm56_guide                                        CMakeFiles/kiibohd.dir/Macro/PartialMap/macro.c.obj
tm57_guide                                        CMakeFiles/kiibohd.dir/Macro/PartialMap/macro.c.obj
tm58_guide                                        CMakeFiles/kiibohd.dir/Macro/PartialMap/macro.c.obj
tm59_guide                                        CMakeFiles/kiibohd.dir/Macro/PartialMap/macro.c.obj
tm5_guide                                         CMakeFiles/kiibohd.dir/Macro/PartialMap/macro.c.obj
tm60_guide                                        CMakeFiles/kiibohd.dir/Macro/PartialMap/macro.c.obj
tm61_guide                                        CMakeFiles/kiibohd.dir/Macro/PartialMap/macro.c.obj
tm62_guide                                        CMakeFiles/kiibohd.dir/Macro/PartialMap/macro.c.obj
tm63_guide                                        CMakeFiles/kiibohd.dir/Macro/PartialMap/macro.c.obj
tm64_guide                                        CMakeFiles/kiibohd.dir/Macro/PartialMap/macro.c.obj
tm65_guide                                        CMakeFiles/kiibohd.dir/Macro/PartialMap/macro.c.obj
tm66_guide                                        CMakeFiles/kiibohd.dir/Macro/PartialMap/macro.c.obj
tm67_guide                                        CMakeFiles/kiibohd.dir/Macro/PartialMap/macro.c.obj
tm68_guide                                        CMakeFiles/kiibohd.dir/Macro/PartialMap/macro.c.obj
tm69_guide                                        CMakeFiles/kiibohd.dir/Macro/PartialMap/macro.c.obj
tm6_guide                                         CMakeFiles/kiibohd.dir/Macro/PartialMap/macro.c.obj
tm70_guide                                        CMakeFiles/kiibohd.dir/Macro/PartialMap/macro.c.obj
tm71_guide                                        CMakeFiles/kiibohd.dir/Macro/PartialMap/macro.c.obj
tm72_guide                                        CMakeFiles/kiibohd.dir/Macro/PartialMap/macro.c.obj
tm73_guide                                        CMakeFiles/kiibohd.dir/Macro/PartialMap/macro.c.obj
tm74_guide                                        CMakeFiles/kiibohd.dir/Macro/PartialMap/macro.c.obj
tm75_guide                                        CMakeFiles/kiibohd.dir/Macro/PartialMap/macro.c.obj
tm7_guide                                         CMakeFiles/kiibohd.dir/Macro/PartialMap/macro.c.obj
tm8_guide                                         CMakeFiles/kiibohd.dir/Macro/PartialMap/macro.c.obj
tm9_guide                                         CMakeFiles/kiibohd.dir/Macro/PartialMap/macro.c.obj
tpm0_isr                                          CMakeFiles/kiibohd.dir/Lib/kinetis.c.obj
tpm1_isr                                          CMakeFiles/kiibohd.dir/Lib/kinetis.c.obj
tpm2_isr                                          CMakeFiles/kiibohd.dir/Lib/kinetis.c.obj
tsi0_isr                                          CMakeFiles/kiibohd.dir/Lib/kinetis.c.obj
uart0_error_isr                                   CMakeFiles/kiibohd.dir/Lib/kinetis.c.obj
uart0_lon_isr                                     CMakeFiles/kiibohd.dir/Lib/kinetis.c.obj
uart0_status_isr                                  CMakeFiles/kiibohd.dir/Lib/kinetis.c.obj
uart1_error_isr                                   CMakeFiles/kiibohd.dir/Lib/kinetis.c.obj
uart1_status_isr                                  CMakeFiles/kiibohd.dir/Lib/kinetis.c.obj
uart2_error_isr                                   CMakeFiles/kiibohd.dir/Lib/kinetis.c.obj
uart2_status_isr                                  CMakeFiles/kiibohd.dir/Lib/kinetis.c.obj
uart3_error_isr                                   CMakeFiles/kiibohd.dir/Lib/kinetis.c.obj
uart3_status_isr                                  CMakeFiles/kiibohd.dir/Lib/kinetis.c.obj
uart4_error_isr                                   CMakeFiles/kiibohd.dir/Lib/kinetis.c.obj
uart4_status_isr                                  CMakeFiles/kiibohd.dir/Lib/kinetis.c.obj
uart5_error_isr                                   CMakeFiles/kiibohd.dir/Lib/kinetis.c.obj
uart5_status_isr                                  CMakeFiles/kiibohd.dir/Lib/kinetis.c.obj
uartConnectCLIDict                                CMakeFiles/kiibohd.dir/Scan/Devices/UARTConnect/connect_scan.c.obj
uartConnectCLIDictName                            CMakeFiles/kiibohd.dir/Scan/Devices/UARTConnect/connect_scan.c.obj
uart_rx_buf                                       CMakeFiles/kiibohd.dir/Scan/Devices/UARTConnect/connect_scan.c.obj
uart_rx_status                                    CMakeFiles/kiibohd.dir/Scan/Devices/UARTConnect/connect_scan.c.obj
uart_tx_buf                                       CMakeFiles/kiibohd.dir/Scan/Devices/UARTConnect/connect_scan.c.obj
uart_tx_status                                    CMakeFiles/kiibohd.dir/Scan/Devices/UARTConnect/connect_scan.c.obj
uarts_configured                                  CMakeFiles/kiibohd.dir/Scan/Devices/UARTConnect/connect_scan.c.obj
unused_isr                                        CMakeFiles/kiibohd.dir/Lib/kinetis.c.obj
us_now                                            CMakeFiles/kiibohd.dir/Lib/delay.c.obj
usage_fault_default_isr                           CMakeFiles/kiibohd.dir/Lib/kinetis.c.obj
usage_fault_isr                                   CMakeFiles/kiibohd.dir/Lib/kinetis.c.obj
usbCLIDict                                        CMakeFiles/kiibohd.dir/Output/USB/output_usb.c.obj
usbCLIDictName                                    CMakeFiles/kiibohd.dir/Output/USB/output_usb.c.obj
usbInitTimeCLIDict_DescEntry                      CMakeFiles/kiibohd.dir/Output/USB/output_usb.c.obj
usb_bMaxPower                                     CMakeFiles/kiibohd.dir/Output/USB/arm/usb_desc.c.obj
                                                  CMakeFiles/kiibohd.dir/Output/USB/arm/usb_dev.c.obj
usb_buffer_memory                                 CMakeFiles/kiibohd.dir/Output/USB/arm/usb_mem.c.obj
usb_cdc_line_coding                               CMakeFiles/kiibohd.dir/Output/USB/arm/usb_serial.c.obj
                                                  CMakeFiles/kiibohd.dir/Output/USB/arm/usb_dev.c.obj
usb_cdc_line_rtsdtr                               CMakeFiles/kiibohd.dir/Output/USB/arm/usb_serial.c.obj
                                                  CMakeFiles/kiibohd.dir/Output/USB/arm/usb_dev.c.obj
usb_cdc_transmit_flush_timer                      CMakeFiles/kiibohd.dir/Output/USB/arm/usb_serial.c.obj
                                                  CMakeFiles/kiibohd.dir/Output/USB/arm/usb_dev.c.obj
usb_charge_isr                                    CMakeFiles/kiibohd.dir/Lib/kinetis.c.obj
usb_configuration                                 CMakeFiles/kiibohd.dir/Output/USB/arm/usb_dev.c.obj
                                                  CMakeFiles/kiibohd.dir/Output/USB/arm/usb_serial.c.obj
                                                  CMakeFiles/kiibohd.dir/Output/USB/arm/usb_rawio.c.obj
                                                  CMakeFiles/kiibohd.dir/Output/USB/arm/usb_mouse.c.obj
                                                  CMakeFiles/kiibohd.dir/Output/USB/arm/usb_mem.c.obj
                                                  CMakeFiles/kiibohd.dir/Output/USB/arm/usb_keyboard.c.obj
usb_configured                                    CMakeFiles/kiibohd.dir/Output/USB/arm/usb_dev.c.obj
usb_descriptor_list                               CMakeFiles/kiibohd.dir/Output/USB/arm/usb_desc.c.obj
                                                  CMakeFiles/kiibohd.dir/Output/USB/arm/usb_dev.c.obj
usb_device_check                                  CMakeFiles/kiibohd.dir/Output/USB/arm/usb_dev.c.obj
                                                  CMakeFiles/kiibohd.dir/Output/USB/output_usb.c.obj
usb_device_reload                                 CMakeFiles/kiibohd.dir/Output/USB/arm/usb_dev.c.obj
                                                  CMakeFiles/kiibohd.dir/Output/USB/output_usb.c.obj
usb_endpoint_config_table                         CMakeFiles/kiibohd.dir/Output/USB/arm/usb_desc.c.obj
                                                  CMakeFiles/kiibohd.dir/Output/USB/arm/usb_dev.c.obj
usb_free                                          CMakeFiles/kiibohd.dir/Output/USB/arm/usb_mem.c.obj
                                                  CMakeFiles/kiibohd.dir/Output/USB/arm/usb_serial.c.obj
                                                  CMakeFiles/kiibohd.dir/Output/USB/arm/usb_rawio.c.obj
                                                  CMakeFiles/kiibohd.dir/Output/USB/arm/usb_dev.c.obj
usb_init                                          CMakeFiles/kiibohd.dir/Output/USB/arm/usb_dev.c.obj
                                                  CMakeFiles/kiibohd.dir/Output/USB/output_usb.c.obj
usb_isr                                           CMakeFiles/kiibohd.dir/Output/USB/arm/usb_dev.c.obj
                                                  CMakeFiles/kiibohd.dir/Lib/kinetis.c.obj
usb_keyboard_clear                                CMakeFiles/kiibohd.dir/Output/USB/arm/usb_keyboard.c.obj
                                                  CMakeFiles/kiibohd.dir/Output/USB/output_usb.c.obj
usb_keyboard_idle_update                          CMakeFiles/kiibohd.dir/Output/USB/arm/usb_keyboard.c.obj
                                                  CMakeFiles/kiibohd.dir/Output/USB/output_usb.c.obj
usb_keyboard_send                                 CMakeFiles/kiibohd.dir/Output/USB/arm/usb_keyboard.c.obj
                                                  CMakeFiles/kiibohd.dir/Output/USB/output_usb.c.obj
usb_malloc                                        CMakeFiles/kiibohd.dir/Output/USB/arm/usb_mem.c.obj
                                                  CMakeFiles/kiibohd.dir/Output/USB/arm/usb_serial.c.obj
                                                  CMakeFiles/kiibohd.dir/Output/USB/arm/usb_rawio.c.obj
                                                  CMakeFiles/kiibohd.dir/Output/USB/arm/usb_mouse.c.obj
                                                  CMakeFiles/kiibohd.dir/Output/USB/arm/usb_keyboard.c.obj
                                                  CMakeFiles/kiibohd.dir/Output/USB/arm/usb_dev.c.obj
usb_mouse_buttons_state                           CMakeFiles/kiibohd.dir/Output/USB/arm/usb_mouse.c.obj
usb_mouse_move                                    CMakeFiles/kiibohd.dir/Output/USB/arm/usb_mouse.c.obj
usb_mouse_position                                CMakeFiles/kiibohd.dir/Output/USB/arm/usb_mouse.c.obj
usb_mouse_screen_size                             CMakeFiles/kiibohd.dir/Output/USB/arm/usb_mouse.c.obj
usb_mouse_send                                    CMakeFiles/kiibohd.dir/Output/USB/arm/usb_mouse.c.obj
                                                  CMakeFiles/kiibohd.dir/Output/USB/output_usb.c.obj
usb_rawio_available                               CMakeFiles/kiibohd.dir/Output/USB/arm/usb_rawio.c.obj
                                                  CMakeFiles/kiibohd.dir/Output/USB/output_usb.c.obj
usb_rawio_rx                                      CMakeFiles/kiibohd.dir/Output/USB/arm/usb_rawio.c.obj
                                                  CMakeFiles/kiibohd.dir/Output/USB/output_usb.c.obj
usb_rawio_tx                                      CMakeFiles/kiibohd.dir/Output/USB/arm/usb_rawio.c.obj
                                                  CMakeFiles/kiibohd.dir/Output/USB/output_usb.c.obj
usb_reboot_timer                                  CMakeFiles/kiibohd.dir/Output/USB/arm/usb_dev.c.obj
usb_reinit                                        CMakeFiles/kiibohd.dir/Output/USB/arm/usb_dev.c.obj
usb_resume                                        CMakeFiles/kiibohd.dir/Output/USB/arm/usb_dev.c.obj
                                                  CMakeFiles/kiibohd.dir/Output/USB/arm/usb_keyboard.c.obj
usb_rx                                            CMakeFiles/kiibohd.dir/Output/USB/arm/usb_dev.c.obj
                                                  CMakeFiles/kiibohd.dir/Output/USB/arm/usb_serial.c.obj
                                                  CMakeFiles/kiibohd.dir/Output/USB/arm/usb_rawio.c.obj
usb_rx_byte_count_data                            CMakeFiles/kiibohd.dir/Output/USB/arm/usb_dev.c.obj
                                                  CMakeFiles/kiibohd.dir/Output/USB/arm/usb_serial.c.obj
                                                  CMakeFiles/kiibohd.dir/Output/USB/arm/usb_rawio.c.obj
usb_rx_memory                                     CMakeFiles/kiibohd.dir/Output/USB/arm/usb_dev.c.obj
                                                  CMakeFiles/kiibohd.dir/Output/USB/arm/usb_mem.c.obj
usb_rx_memory_needed                              CMakeFiles/kiibohd.dir/Output/USB/arm/usb_dev.c.obj
                                                  CMakeFiles/kiibohd.dir/Output/USB/arm/usb_mem.c.obj
usb_serial_available                              CMakeFiles/kiibohd.dir/Output/USB/arm/usb_serial.c.obj
                                                  CMakeFiles/kiibohd.dir/Output/USB/output_usb.c.obj
usb_serial_flush_callback                         CMakeFiles/kiibohd.dir/Output/USB/arm/usb_serial.c.obj
                                                  CMakeFiles/kiibohd.dir/Output/USB/arm/usb_dev.c.obj
usb_serial_flush_input                            CMakeFiles/kiibohd.dir/Output/USB/arm/usb_serial.c.obj
usb_serial_flush_output                           CMakeFiles/kiibohd.dir/Output/USB/arm/usb_serial.c.obj
usb_serial_getchar                                CMakeFiles/kiibohd.dir/Output/USB/arm/usb_serial.c.obj
                                                  CMakeFiles/kiibohd.dir/Output/USB/output_usb.c.obj
usb_serial_peekchar                               CMakeFiles/kiibohd.dir/Output/USB/arm/usb_serial.c.obj
usb_serial_putchar                                CMakeFiles/kiibohd.dir/Output/USB/arm/usb_serial.c.obj
                                                  CMakeFiles/kiibohd.dir/Output/USB/output_usb.c.obj
usb_serial_read                                   CMakeFiles/kiibohd.dir/Output/USB/arm/usb_serial.c.obj
usb_serial_write                                  CMakeFiles/kiibohd.dir/Output/USB/arm/usb_serial.c.obj
                                                  CMakeFiles/kiibohd.dir/Output/USB/output_usb.c.obj
usb_set_config_descriptor_size                    CMakeFiles/kiibohd.dir/Output/USB/arm/usb_desc.c.obj
                                                  CMakeFiles/kiibohd.dir/Output/USB/arm/usb_dev.c.obj
usb_string_cdc_data_name                          CMakeFiles/kiibohd.dir/Output/USB/arm/usb_desc.c.obj
usb_string_cdc_status_name                        CMakeFiles/kiibohd.dir/Output/USB/arm/usb_desc.c.obj
usb_string_flashingstation_name                   CMakeFiles/kiibohd.dir/Output/USB/arm/usb_desc.c.obj
usb_string_keyboard_name                          CMakeFiles/kiibohd.dir/Output/USB/arm/usb_desc.c.obj
usb_string_manufacturer_name                      CMakeFiles/kiibohd.dir/Output/USB/arm/usb_desc.c.obj
usb_string_manufacturer_name_default              CMakeFiles/kiibohd.dir/Output/USB/arm/usb_desc.c.obj
usb_string_mouse_name                             CMakeFiles/kiibohd.dir/Output/USB/arm/usb_desc.c.obj
usb_string_nkro_keyboard_name                     CMakeFiles/kiibohd.dir/Output/USB/arm/usb_desc.c.obj
usb_string_product_name                           CMakeFiles/kiibohd.dir/Output/USB/arm/usb_desc.c.obj
usb_string_product_name_default                   CMakeFiles/kiibohd.dir/Output/USB/arm/usb_desc.c.obj
usb_string_rawio_name                             CMakeFiles/kiibohd.dir/Output/USB/arm/usb_desc.c.obj
usb_string_serial_number                          CMakeFiles/kiibohd.dir/Output/USB/arm/usb_desc.c.obj
usb_string_serial_number_default                  CMakeFiles/kiibohd.dir/Output/USB/arm/usb_desc.c.obj
                                                  CMakeFiles/kiibohd.dir/Output/USB/arm/usb_dev.c.obj
usb_string_sys_ctrl_name                          CMakeFiles/kiibohd.dir/Output/USB/arm/usb_desc.c.obj
usb_tx                                            CMakeFiles/kiibohd.dir/Output/USB/arm/usb_dev.c.obj
                                                  CMakeFiles/kiibohd.dir/Output/USB/arm/usb_serial.c.obj
                                                  CMakeFiles/kiibohd.dir/Output/USB/arm/usb_rawio.c.obj
                                                  CMakeFiles/kiibohd.dir/Output/USB/arm/usb_mouse.c.obj
                                                  CMakeFiles/kiibohd.dir/Output/USB/arm/usb_keyboard.c.obj
usb_tx_byte_count                                 CMakeFiles/kiibohd.dir/Output/USB/arm/usb_dev.c.obj
usb_tx_packet_count                               CMakeFiles/kiibohd.dir/Output/USB/arm/usb_dev.c.obj
                                                  CMakeFiles/kiibohd.dir/Output/USB/arm/usb_serial.c.obj
                                                  CMakeFiles/kiibohd.dir/Output/USB/arm/usb_rawio.c.obj
                                                  CMakeFiles/kiibohd.dir/Output/USB/arm/usb_mouse.c.obj
                                                  CMakeFiles/kiibohd.dir/Output/USB/arm/usb_keyboard.c.obj
usbhs_isr                                         CMakeFiles/kiibohd.dir/Lib/kinetis.c.obj
usbhs_phy_isr                                     CMakeFiles/kiibohd.dir/Lib/kinetis.c.obj
versionCLIDict_DescEntry                          CMakeFiles/kiibohd.dir/Debug/cli/cli.c.obj
voteDebugCLIDict_DescEntry                        CMakeFiles/kiibohd.dir/Macro/PartialMap/macro.c.obj
voteDebugMode                                     CMakeFiles/kiibohd.dir/Macro/PartialMap/macro.c.obj
                                                  CMakeFiles/kiibohd.dir/Macro/PartialMap/trigger.c.obj
wakeup_isr                                        CMakeFiles/kiibohd.dir/Lib/kinetis.c.obj
watchdog_default_isr                              CMakeFiles/kiibohd.dir/Lib/kinetis.c.obj
watchdog_isr                                      CMakeFiles/kiibohd.dir/Lib/kinetis.c.obj
yield                                             CMakeFiles/kiibohd.dir/Lib/delay.c.obj
                                                  CMakeFiles/kiibohd.dir/Output/USB/arm/usb_serial.c.obj
                                                  CMakeFiles/kiibohd.dir/Output/USB/arm/usb_rawio.c.obj
                                                  CMakeFiles/kiibohd.dir/Output/USB/arm/usb_mouse.c.obj
                                                  CMakeFiles/kiibohd.dir/Output/USB/arm/usb_keyboard.c.obj
